 jvm

 Timestamp is 401aa64a (Fri Jan 30 10:45:30 2004)

 Preferred load address is 08000000

 Start         Length     Name                   Class
 0001:00000000 001eb3e0H .text                   CODE
 0002:00000000 0000026cH .idata$5                DATA
 0002:00000270 00045d30H .rdata                  DATA
 0002:00045fa0 00000064H .idata$2                DATA
 0002:00046004 00000014H .idata$3                DATA
 0002:00046018 0000026cH .idata$4                DATA
 0002:00046284 000008faH .idata$6                DATA
 0002:00046b80 0000d3f6H .edata                  DATA
 0003:00000000 00000004H .CRT$XCA                DATA
 0003:00000004 00000390H .CRT$XCU                DATA
 0003:00000394 00000004H .CRT$XCZ                DATA
 0003:00000398 00000004H .CRT$XIA                DATA
 0003:0000039c 00000004H .CRT$XIZ                DATA
 0003:000003a0 00022850H .data                   DATA
 0003:00022bf0 000102a0H .bss                    DATA

  Address         Publics by Value              Rva+Base     Lib:Object

 0001:00000000       ?atomic_set_bits@AccessFlags@@QAEXH@Z 08001000 f   accessFlags.obj
 0001:00000040       ?atomic_clear_bits@AccessFlags@@QAEXH@Z 08001040 f   accessFlags.obj
 0001:00000080       ?write_kind@JvmdiEvent@@SAXAAVoutputStream@@H@Z 08001080 f   accessFlags.obj
 0001:00000080       ?pd_gc_epilog@frame@@QAEXXZ 08001080 f   accessFlags.obj
 0001:00000080       ?destroy@JvmdiEventDispatcher@@SAXXZ 08001080 f   accessFlags.obj
 0001:00000080       ?pd_initialize@TemplateTable@@SAXXZ 08001080 f   accessFlags.obj
 0001:00000080       ?clear@Space@@UAEXXZ       08001080 f   accessFlags.obj
 0001:00000080       ?nmethods_do@Thread@@QAEXXZ 08001080 f   accessFlags.obj
 0001:00000080       ?vmStructs_init@@YAXXZ     08001080 f   accessFlags.obj
 0001:00000080       ?pd_patch_runtime_calls_with_trampolines@CompiledCodeSafepointHandler@@CAXPAVThreadCodeBuffer@@H@Z 08001080 f   accessFlags.obj
 0001:00000080       ?initialize_thread@os@@SAXXZ 08001080 f   accessFlags.obj
 0001:00000080       ??3ProfilerNode@@SAXPAX@Z  08001080 f   accessFlags.obj
 0001:00000080       ?icache_init@@YAXXZ        08001080 f   accessFlags.obj
 0001:00000080       ?Sort@VectorSet@@UAEXXZ    08001080 f   accessFlags.obj
 0001:00000080       ?end_class_load@VTune@@SAXXZ 08001080 f   accessFlags.obj
 0001:00000080       ?pd_destroy@OSThread@@AAEXXZ 08001080 f   accessFlags.obj
 0001:00000080       ?print_impl@ciMethodData@@EAEXXZ 08001080 f   accessFlags.obj
 0001:00000080       ?check_ThreadShadow@@YAXXZ 08001080 f   accessFlags.obj
 0001:00000080       ?prepare_for_verify@CardGeneration@@UAEXXZ 08001080 f   accessFlags.obj
 0001:00000080       ?gc_prologue@CodeCache@@SAXXZ 08001080 f   accessFlags.obj
 0001:00000080       ?prepare_for_verify@OneContigSpaceCardGeneration@@UAEXXZ 08001080 f   accessFlags.obj
 0001:00000080       ?destruct@GCTaskQueue@@MAEXXZ 08001080 f   accessFlags.obj
 0001:00000080       ?report_untested@@YAXPBDH0@Z 08001080 f   accessFlags.obj
 0001:00000080       ?fill_stackmap_epilog@OopMapForCacheEntry@@EAEXXZ 08001080 f   accessFlags.obj
 0001:00000080       ?div0_check@TemplateTable@@CAXPAVRegisterImpl@@@Z 08001080 f   accessFlags.obj
 0001:00000080       ?vtune_init@@YAXXZ         08001080 f   accessFlags.obj
 0001:00000080       ?flush@AbstractAssembler@@QAEXXZ 08001080 f   accessFlags.obj
 0001:00000080       ?verify@InterpreterCodelet@@QAEXXZ 08001080 f   accessFlags.obj
 0001:00000080       ?print_compiler_threads@CompileBroker@@SAXXZ 08001080 f   accessFlags.obj
 0001:00000080       ?disable@jvmdi@@SAXXZ      08001080 f   accessFlags.obj
 0001:00000080       ??1Dict@@QAE@XZ            08001080 f   accessFlags.obj
 0001:00000080       ?jvmdi_init@JvmdiInternal@@SAXXZ 08001080 f   accessFlags.obj
 0001:00000080       ?start_class_load@VTune@@SAXXZ 08001080 f   accessFlags.obj
 0001:00000080       ?accessFlags_init@@YAXXZ   08001080 f   accessFlags.obj
 0001:00000080       ?initialize@JvmdiCurrentBreakpoints@@SAXXZ 08001080 f   accessFlags.obj
 0001:00000080       ??1Scheduling@@QAE@XZ      08001080 f   accessFlags.obj
 0001:00000080       ?print@oopDesc@@QAEXXZ     08001080 f   accessFlags.obj
 0001:00000080       ?destruct@GCTask@@MAEXXZ   08001080 f   accessFlags.obj
 0001:00000080       ?save_thread_state_at_safepoint@SafepointSynchronize@@SAXPAVJavaThread@@@Z 08001080 f   accessFlags.obj
 0001:00000080       ?print_timers@C2Compiler@@UAEXXZ 08001080 f   accessFlags.obj
 0001:00000080       ?hint_no_preempt@os@@SAXXZ 08001080 f   accessFlags.obj
 0001:00000080       ??1PhaseLive@@QAE@XZ       08001080 f   accessFlags.obj
 0001:00000080       ?set_exception_handler_during_fatal_error@os@@SAXHH@Z 08001080 f   accessFlags.obj
 0001:00000080       ??1State@@QAE@XZ           08001080 f   accessFlags.obj
 0001:00000080       ?compute_new_size@TrainGeneration@@UAEXXZ 08001080 f   accessFlags.obj
 0001:00000080       ?Finish_Warm@Compile@@AAEXXZ 08001080 f   accessFlags.obj
 0001:00000080       ?pd_obfuscate_location@@YAXPADH@Z 08001080 f   accessFlags.obj
 0001:00000080       ?trace@BytecodeTracer@@SAXPAVmethodOopDesc@@PAEII@Z 08001080 f   accessFlags.obj
 0001:00000080       ?verify@PhaseConservativeCoalesce@@UAEXXZ 08001080 f   accessFlags.obj
 0001:00000080       ?pd_initialize@Bytecodes@@CAXXZ 08001080 f   accessFlags.obj
 0001:00000080       ?invalidate_nmethods@@YAXXZ 08001080 f   accessFlags.obj
 0001:00000080       ?marksweep_init@@YAXXZ     08001080 f   accessFlags.obj
 0001:00000080       ?InterfaceSupport_init@@YAXXZ 08001080 f   accessFlags.obj
 0001:00000080       ?transition@TemplateTable@@CAXW4TosState@@0@Z 08001080 f   accessFlags.obj
 0001:00000080       ?start_recompilation_monitor_task@RecompilationMonitor@@SAXXZ 08001080 f   accessFlags.obj
 0001:00000080       ?eventlog_init@@YAXXZ      08001080 f   accessFlags.obj
 0001:00000090       ?ret_addr_offset@MachCallStaticJavaNode@@UAEHXZ 08001090 f   ad_i486.obj
 0001:000000c0       ?ret_addr_offset@MachCallDynamicJavaNode@@UAEHXZ 080010c0 f   ad_i486.obj
 0001:000000f0       ?ret_addr_offset@MachCallRuntimeNode@@UAEHXZ 080010f0 f   ad_i486.obj
 0001:00000120       ?reloc@storeF_immNode@@EBEHXZ 08001120 f   ad_i486.obj
 0001:00000120       ?reloc@storeImmPNode@@EBEHXZ 08001120 f   ad_i486.obj
 0001:00000120       ?reloc@xorI_mem_immNode@@EBEHXZ 08001120 f   ad_i486.obj
 0001:00000120       ?number_of_saved_registers@Matcher@@SAHXZ 08001120 f   ad_i486.obj
 0001:00000120       ?reloc@xorI_mem_eRegNode@@EBEHXZ 08001120 f   ad_i486.obj
 0001:00000120       ?reloc@andI_mem_eRegNode@@EBEHXZ 08001120 f   ad_i486.obj
 0001:00000120       ?reloc@sarI_mem_immNode@@EBEHXZ 08001120 f   ad_i486.obj
 0001:00000120       ?reloc@andI_mem_immNode@@EBEHXZ 08001120 f   ad_i486.obj
 0001:00000120       ?reloc@addI_mem_immNode@@EBEHXZ 08001120 f   ad_i486.obj
 0001:00000120       ?reloc@addD_mem_regNode@@EBEHXZ 08001120 f   ad_i486.obj
 0001:00000120       ?reloc@incI_memNode@@EBEHXZ 08001120 f   ad_i486.obj
 0001:00000120       ?reloc@orI_mem_immNode@@EBEHXZ 08001120 f   ad_i486.obj
 0001:00000120       ?reloc@sarI_mem_1Node@@EBEHXZ 08001120 f   ad_i486.obj
 0001:00000120       ?reloc@subI_mem_eRegNode@@EBEHXZ 08001120 f   ad_i486.obj
 0001:00000120       ?reloc@orI_mem_eRegNode@@EBEHXZ 08001120 f   ad_i486.obj
 0001:00000120       ?reloc@addI_mem_eRegNode@@EBEHXZ 08001120 f   ad_i486.obj
 0001:00000120       ?ret_addr_offset@MachCallCompiledJavaNode@@UAEHXZ 08001120 f   ad_i486.obj
 0001:00000120       ?reloc@decI_memNode@@EBEHXZ 08001120 f   ad_i486.obj
 0001:00000130       ?ret_addr_offset@MachCallInterpreterNode@@UAEHXZ 08001130 f   ad_i486.obj
 0001:00000130       ?Opcode@BoxLockNode@@UBEHXZ 08001130 f   ad_i486.obj
 0001:00000130       ?sigexitnum_pd@os@@SAHXZ   08001130 f   ad_i486.obj
 0001:00000140       ?ret_addr_offset@MachCallNativeNode@@UAEHXZ 08001140 f   ad_i486.obj
 0001:00000150       ?compute_padding@CallStaticJavaDirectNode@@EBEHH@Z 08001150 f   ad_i486.obj
 0001:000001a0       ?compute_padding@CallDynamicJavaDirectNode@@EBEHH@Z 080011a0 f   ad_i486.obj
 0001:000001f0       ?compute_padding@CallInterpreterDirectNode@@EBEHH@Z 080011f0 f   ad_i486.obj
 0001:00000210       ?emit_rm@@YAXAAVCodeBuffer@@HHH@Z 08001210 f   ad_i486.obj
 0001:00000240       ?emit_cc@@YAXAAVCodeBuffer@@HH@Z 08001240 f   ad_i486.obj
 0001:00000260       ?emit_d8@@YAXAAVCodeBuffer@@H@Z 08001260 f   ad_i486.obj
 0001:00000260       ?emit_opcode@@YAXAAVCodeBuffer@@H@Z 08001260 f   ad_i486.obj
 0001:00000280       ?emit_opcode@@YAXAAVCodeBuffer@@HW4relocType@relocInfo@@H@Z 08001280 f   ad_i486.obj
 0001:000002d0       ?emit_d16@@YAXAAVCodeBuffer@@H@Z 080012d0 f   ad_i486.obj
 0001:000002f0       ?emit_d32@@YAXAAVCodeBuffer@@H@Z 080012f0 f   ad_i486.obj
 0001:00000310       ?emit_d32_reloc@@YAXAAVCodeBuffer@@HW4relocType@relocInfo@@H@Z 08001310 f   ad_i486.obj
 0001:00000360       ?emit_d32_reloc@@YAXAAVCodeBuffer@@HABVRelocationHolder@@H@Z 08001360 f   ad_i486.obj
 0001:00000390       ?store_to_stackslot@@YAXAAVCodeBuffer@@HHH@Z 08001390 f   ad_i486.obj
 0001:00000410       ?encode_RegMem@@YAXAAVCodeBuffer@@HHHHHH@Z 08001410 f   ad_i486.obj
 0001:000005c0       ?encode_Copy@@YAXAAVCodeBuffer@@HH@Z 080015c0 f   ad_i486.obj
 0001:000005f0       ?emit@MachPrologNode@@UBEXAAVCodeBuffer@@PAVPhaseRegAlloc@@@Z 080015f0 f   ad_i486.obj
 0001:00000780       ?bang_stack_with_offset@MacroAssembler@@UAEXH@Z 08001780 f i ad_i486.obj
 0001:000007f0       ?bytecode_prolog@MethodClosure@@UAEXW4Code@Bytecodes@@@Z 080017f0 f i ad_i486.obj
 0001:000007f0       ?gc_prologue@Generation@@UAEXH@Z 080017f0 f i ad_i486.obj
 0001:000007f0       ?verify@OffsetTableContigSpace@@UBEXH@Z 080017f0 f i ad_i486.obj
 0001:000007f0       ?verify@CompactibleFreeListSpace@@UBEXH@Z 080017f0 f i ad_i486.obj
 0001:000007f0       ?print_value_on@SingletonBlob@@UBEXPAVoutputStream@@@Z 080017f0 f i ad_i486.obj
 0001:000007f0       ?verify@MutableSpace@@UBEXH@Z 080017f0 f i ad_i486.obj
 0001:000007f0       ?fix_relocation_at_move@Relocation@@UAEXH@Z 080017f0 f i ad_i486.obj
 0001:000007f0       ?oops_do@VM_Operation@@UAEXPAVOopClosure@@@Z 080017f0 f i ad_i486.obj
 0001:000007f0       ?oops_do@runtimeStubNode@@UAEXPAVOopClosure@@@Z 080017f0 f i ad_i486.obj
 0001:000007f0       ?par_oop_since_save_marks_iterate_done@Generation@@UAEXH@Z 080017f0 f i ad_i486.obj
 0001:000007f0       ?examine_modified_oop@Generation@@UAEXPAPAVoopDesc@@@Z 080017f0 f i ad_i486.obj
 0001:000007f0       ?do_object@TrainIsAliveClosure@@UAEXPAVoopDesc@@@Z 080017f0 f i ad_i486.obj
 0001:000007f0       ?oops_do@SafepointBlob@@UAEXPAVOopClosure@@@Z 080017f0 f i ad_i486.obj
 0001:000007f0       ?do_object@IsAliveClosure@MarkSweep@@UAEXPAVoopDesc@@@Z 080017f0 f i ad_i486.obj
 0001:000007f0       ?oops_do@ExceptionBlob@@UAEXPAVOopClosure@@@Z 080017f0 f i ad_i486.obj
 0001:000007f0       ?print_value_on@CodeBlob@@UBEXPAVoutputStream@@@Z 080017f0 f i ad_i486.obj
 0001:000007f0       ?oops_do@UncommonTrapBlob@@UAEXPAVOopClosure@@@Z 080017f0 f i ad_i486.obj
 0001:000007f0       ?fill_stackmap_prolog@GeneratePairingInfo@@EAEXH@Z 080017f0 f i ad_i486.obj
 0001:000007f0       ?verify@CarSpace@@UBEXH@Z  080017f0 f i ad_i486.obj
 0001:000007f0       ?fix_relocation_at_move@breakpoint_Relocation@@UAEXH@Z 080017f0 f i ad_i486.obj
 0001:000007f0       ?pop_tag@xmlStream@@MAEXPBD@Z 080017f0 f i ad_i486.obj
 0001:000007f0       ?oops_do@adapterNode@@UAEXPAVOopClosure@@@Z 080017f0 f i ad_i486.obj
 0001:000007f0       ?do_oop@AssertIsPermClosure@@UAEXPAPAVoopDesc@@@Z 080017f0 f i ad_i486.obj
 0001:000007f0       ?do_object@EntireTrainIsAliveClosure@@UAEXPAVoopDesc@@@Z 080017f0 f i ad_i486.obj
 0001:000007f0       ?do_object@PSIsAliveClosure@@UAEXPAVoopDesc@@@Z 080017f0 f i ad_i486.obj
 0001:000007f0       ?verify@ContiguousSpace@@UBEXH@Z 080017f0 f i ad_i486.obj
 0001:000007f0       ?oops_do@OSRAdapter@@UAEXPAVOopClosure@@@Z 080017f0 f i ad_i486.obj
 0001:000007f0       ?remember_klass@OopClosure@@UAEXPAVKlass@@@Z 080017f0 f i ad_i486.obj
 0001:000007f0       ?oop_iterate@ProfileData@@UAEXPAVOopClosure@@@Z 080017f0 f i ad_i486.obj
 0001:000007f0       ?do_object@CMSIsAliveClosure@@UAEXPAVoopDesc@@@Z 080017f0 f i ad_i486.obj
 0001:000007f0       ?set_alloc_size@instanceKlass@@UAEX_I@Z 080017f0 f i ad_i486.obj
 0001:000007f0       ?verify@ICStubInterface@@UAEXPAVStub@@@Z 080017f0 f i ad_i486.obj
 0001:000007f0       ?gc_epilogue@Generation@@UAEXH@Z 080017f0 f i ad_i486.obj
 0001:000007f0       ?oops_do@Relocation@@UAEXP6AXPAPAVoopDesc@@@Z@Z 080017f0 f i ad_i486.obj
 0001:000007f0       ?print_value_on@C2IAdapter@@UBEXPAVoutputStream@@@Z 080017f0 f i ad_i486.obj
 0001:000007f0       ?do_oop@DoNothingClosure@@UAEXPAPAVoopDesc@@@Z 080017f0 f i ad_i486.obj
 0001:000007f0       ?check_int@StateVector@ciTypeFlow@@QAEXW4Cell@2@@Z 080017f0 f i ad_i486.obj
 0001:000007f0       ?print_value_on@I2CAdapter@@UBEXPAVoutputStream@@@Z 080017f0 f i ad_i486.obj
 0001:000007f0       ?oops_do@BufferBlob@@UAEXPAVOopClosure@@@Z 080017f0 f i ad_i486.obj
 0001:000007f0       ?print_value_on@nmethod@@UBEXPAVoutputStream@@@Z 080017f0 f i ad_i486.obj
 0001:000007f0       ?verify@OneContigSpaceCardGeneration@@UAEXH@Z 080017f0 f i ad_i486.obj
 0001:000007f0       ?translate_from@ProfileData@@UAEXPAV1@@Z 080017f0 f i ad_i486.obj
 0001:000007f0       ?fill_stackmap_prolog@GenerateOopMapForBCI@@UAEXH@Z 080017f0 f i ad_i486.obj
 0001:000007f0       ?oops_do@DeoptimizationBlob@@UAEXPAVOopClosure@@@Z 080017f0 f i ad_i486.obj
 0001:000007f0       ?print_value_on@BufferBlob@@UBEXPAVoutputStream@@@Z 080017f0 f i ad_i486.obj
 0001:000007f0       ?oops_do@unknown_compiledNode@@UAEXPAVOopClosure@@@Z 080017f0 f i ad_i486.obj
 0001:000007f0       ?print@CompilationScope@@UAEXH@Z 080017f0 f i ad_i486.obj
 0001:000007f0       ?print_value_on@RuntimeStub@@UBEXPAVoutputStream@@@Z 080017f0 f i ad_i486.obj
 0001:000007f0       ?print_value_on@DeoptimizationBlob@@UBEXPAVoutputStream@@@Z 080017f0 f i ad_i486.obj
 0001:000007f0       ?raise_bottom_type@Node@@UAEXPBVType@@@Z 080017f0 f i ad_i486.obj
 0001:000007f0       ?fill_init_vars@GeneratePairingInfo@@EAEXPAV?$GrowableArray@H@@@Z 080017f0 f i ad_i486.obj
 0001:000007f0       ?array_klasses_do@Klass@@UAEXP6AXPAVklassOopDesc@@@Z@Z 080017f0 f i ad_i486.obj
 0001:000007f0       ?fill_init_vars@GenerateOopMapForBCI@@UAEXPAV?$GrowableArray@H@@@Z 080017f0 f i ad_i486.obj
 0001:000007f0       ?oops_do@RuntimeStub@@UAEXPAVOopClosure@@@Z 080017f0 f i ad_i486.obj
 0001:000007f0       ?print_value_on@OSRAdapter@@UBEXPAVoutputStream@@@Z 080017f0 f i ad_i486.obj
 0001:000007f0       ?oops_do@vmNode@@UAEXPAVOopClosure@@@Z 080017f0 f i ad_i486.obj
 0001:000007f0       ?post_visit@InlineImageTreeClosure@@UAEXPAVInlineImageTree@@@Z 080017f0 f i ad_i486.obj
 0001:000007f0       ?par_promote_alloc_done@Generation@@UAEXH@Z 080017f0 f i ad_i486.obj
 0001:000007f0       ?read_ref_field@ModRefBarrierSet@@UAEXPAPAVoopDesc@@@Z 080017f0 f i ad_i486.obj
 0001:000007f0       ?fill_stackmap_prolog@ResolveOopMapConflicts@@EAEXH@Z 080017f0 f i ad_i486.obj
 0001:000007f0       ?print@ICStubInterface@@UAEXPAVStub@@@Z 080017f0 f i ad_i486.obj
 0001:000007f0       ?set_size_in_bytes@Arena@@QAEXI@Z 080017f0 f i ad_i486.obj
 0001:00000800       ?size@MachPrologNode@@UBEIPAVPhaseRegAlloc@@@Z 08001800 f   ad_i486.obj
 0001:00000810       ?is_block_proj@Node@@UBEPBV1@XZ 08001810 f   ad_i486.obj
 0001:00000810       ?is_finite@Type@@UBEHXZ    08001810 f   ad_i486.obj
 0001:00000810       ?constant_is_oop@MachOper@@UBEHXZ 08001810 f   ad_i486.obj
 0001:00000810       ?hash@Opaque1Node@@EBEIXZ  08001810 f   ad_i486.obj
 0001:00000810       ?empty@TypeFunc@@EBEHXZ    08001810 f   ad_i486.obj
 0001:00000810       ?hash@MergeMemNode@@EBEIXZ 08001810 f   ad_i486.obj
 0001:00000810       ?class_status@Klass@@UBEHXZ 08001810 f   ad_i486.obj
 0001:00000810       ?singleton@TypeTuple@@UBEHXZ 08001810 f   ad_i486.obj
 0001:00000810       ?reloc@MachEpilogNode@@UBEHXZ 08001810 f   ad_i486.obj
 0001:00000810       ?singleton@TypeAry@@UBEHXZ 08001810 f   ad_i486.obj
 0001:00000810       ?Opcode@Node@@UBEHXZ       08001810 f   ad_i486.obj
 0001:00000810       ?ccode@MachOper@@UBEHXZ    08001810 f   ad_i486.obj
 0001:00000810       ?compiler_method_oop_reg@Matcher@@SA?AW4Name@OptoReg@@XZ 08001810 f   ad_i486.obj
 0001:00000810       ?hash@MemBarNode@@EBEIXZ   08001810 f   ad_i486.obj
 0001:00000810       ?can_be_at_safepoint_after_suspend@SafepointSynchronize@@SAHPAVJavaThread@@W4JavaThreadState@@@Z 08001810 f   ad_i486.obj
 0001:00000810       ?constant@MachOper@@UBEHXZ 08001810 f   ad_i486.obj
 0001:00000810       ?oop@MachOper@@UBEPAVTypeOopPtr@@XZ 08001810 f   ad_i486.obj
 0001:00000810       ?needs_deopt_suspend@SafepointSynchronize@@SAHPAVJavaThread@@@Z 08001810 f   ad_i486.obj
 0001:00000810       ?constant_disp@MachOper@@UBEHXZ 08001810 f   ad_i486.obj
 0001:00000810       ?is_block_start@Node@@UBEHXZ 08001810 f   ad_i486.obj
 0001:00000810       ?bind_to_processor@os@@SAHI@Z 08001810 f   ad_i486.obj
 0001:00000810       ?hash@StoreNode@@UBEIXZ    08001810 f   ad_i486.obj
 0001:00000810       ?singleton@TypeFunc@@EBEHXZ 08001810 f   ad_i486.obj
 0001:00000810       ?jvms@Node@@UBEPAVJVMState@@XZ 08001810 f   ad_i486.obj
 0001:00000810       ?empty@TypeD@@UBEHXZ       08001810 f   ad_i486.obj
 0001:00000810       ?first_compaction_space@TrainGeneration@@UBEPAVCompactibleSpace@@XZ 08001810 f   ad_i486.obj
 0001:00000810       ?out_preserve_stack_slots@Compile@@SAIXZ 08001810 f   ad_i486.obj
 0001:00000810       ?Inline_Warm@Compile@@AAEHXZ 08001810 f   ad_i486.obj
 0001:00000810       ?is_nan@Type@@UBEHXZ       08001810 f   ad_i486.obj
 0001:00000810       ?scale@MachOper@@UBEHXZ    08001810 f   ad_i486.obj
 0001:00000810       ?needs_deopt_suspend@SafepointSynchronize@@SAHXZ 08001810 f   ad_i486.obj
 0001:00000810       ?stack_direction@Matcher@@UBEHXZ 08001810 f   ad_i486.obj
 0001:00000810       ?empty@TypeF@@UBEHXZ       08001810 f   ad_i486.obj
 0001:00000810       ?hash@Opaque2Node@@EBEIXZ  08001810 f   ad_i486.obj
 0001:00000810       ?reloc@MachPrologNode@@UBEHXZ 08001810 f   ad_i486.obj
 0001:00000810       ?distribute_processes@os@@SAHIPAI@Z 08001810 f   ad_i486.obj
 0001:00000810       ?varargs_C_out_slots_killed@Compile@@QBEIXZ 08001810 f   ad_i486.obj
 0001:00000810       ?disp_is_oop@MachOper@@UBEHXZ 08001810 f   ad_i486.obj
 0001:00000810       ?ideal_reg@Node@@UBEIXZ    08001810 f   ad_i486.obj
 0001:00000820       ?emit@MachEpilogNode@@UBEXAAVCodeBuffer@@PAVPhaseRegAlloc@@@Z 08001820 f   ad_i486.obj
 0001:00000910       ?size@MachEpilogNode@@UBEIPAVPhaseRegAlloc@@@Z 08001910 f   ad_i486.obj
 0001:00000980       ?pipeline@MachNode@@UBEPBVPipeline@@XZ 08001980 f   ad_i486.obj
 0001:00000980       ?pipeline@MachEpilogNode@@UBEPBVPipeline@@XZ 08001980 f   ad_i486.obj
 0001:00000990       ?implementation@MachSpillCopyNode@@QBEIPAVCodeBuffer@@PAVPhaseRegAlloc@@H@Z 08001990 f   ad_i486.obj
 0001:000011f0       ?emit@MachSpillCopyNode@@UBEXAAVCodeBuffer@@PAVPhaseRegAlloc@@@Z 080021f0 f   ad_i486.obj
 0001:00001210       ?size@MachSpillCopyNode@@UBEIPAVPhaseRegAlloc@@@Z 08002210 f   ad_i486.obj
 0001:00001230       ?emit@MachNopNode@@UBEXAAVCodeBuffer@@PAVPhaseRegAlloc@@@Z 08002230 f   ad_i486.obj
 0001:00001250       ?cmp@Node@@UBEIABV1@@Z     08002250 f   ad_i486.obj
 0001:00001250       ?size@MachBreakpointNode@@UBEIPAVPhaseRegAlloc@@@Z 08002250 f   ad_i486.obj
 0001:00001250       ?size@MachNopNode@@UBEIPAVPhaseRegAlloc@@@Z 08002250 f   ad_i486.obj
 0001:00001250       ?eq@Type@@EBEHPBV1@@Z      08002250 f   ad_i486.obj
 0001:00001250       ?size@decI_eRegNode@@EBEIPAVPhaseRegAlloc@@@Z 08002250 f   ad_i486.obj
 0001:00001250       ?oop_being_unloaded@Klass@@UAEHPAVoopDesc@@@Z 08002250 f   ad_i486.obj
 0001:00001250       ?size@incI_eRegNode@@EBEIPAVPhaseRegAlloc@@@Z 08002250 f   ad_i486.obj
 0001:00001260       ?emit@BoxLockNode@@UBEXAAVCodeBuffer@@PAVPhaseRegAlloc@@@Z 08002260 f   ad_i486.obj
 0001:00001350       ?size@BoxLockNode@@UBEIPAVPhaseRegAlloc@@@Z 08002350 f   ad_i486.obj
 0001:000013d0       ?emit_java_to_interp@@YAXAAVCodeBuffer@@@Z 080023d0 f   ad_i486.obj
 0001:00001550       ??0RelocationHolder@@QAE@XZ 08002550 f i ad_i486.obj
 0001:00001560       ?set_value@DataRelocation@@UAEXPAE@Z 08002560 f i ad_i486.obj
 0001:00001580       ?value@CallRelocation@@UAEPAEXZ 08002580 f i ad_i486.obj
 0001:00001590       ?set_value@CallRelocation@@UAEXPAE@Z 08002590 f i ad_i486.obj
 0001:000015a0       ?constant@immL32Oper@@UBEHXZ 080025a0 f i ad_i486.obj
 0001:000015a0       ?constant_disp@indIndexScaleOffsetOper@@UBEHXZ 080025a0 f i ad_i486.obj
 0001:000015a0       ?initialize_threshold@CompactibleSpace@@UAEPAVHeapWord@@XZ 080025a0 f i ad_i486.obj
 0001:000015a0       ?as_gen@CMSPermGen@@UBEPAVGeneration@@XZ 080025a0 f i ad_i486.obj
 0001:000015a0       ?constant@immL_127Oper@@UBEHXZ 080025a0 f i ad_i486.obj
 0001:000015a0       ?constant@immL0Oper@@UBEHXZ 080025a0 f i ad_i486.obj
 0001:000015a0       ?constant@immL_32bitsOper@@UBEHXZ 080025a0 f i ad_i486.obj
 0001:000015a0       ?is_virtual@LibraryIntrinsic@@UBEHXZ 080025a0 f i ad_i486.obj
 0001:000015a0       ?generations@CollectorPolicy@@UAEPAPAVGenerationSpec@@XZ 080025a0 f i ad_i486.obj
 0001:000015a0       ?constant@immLOper@@UBEHXZ 080025a0 f i ad_i486.obj
 0001:000015a0       ?constant_disp@indIndexScaleOffset_win95_safeOper@@UBEHXZ 080025a0 f i ad_i486.obj
 0001:000015a0       ?offset@oop_Relocation@@UAEHXZ 080025a0 f i ad_i486.obj
 0001:000015a0       ?as_gen@CompactingPermGen@@UBEPAVGeneration@@XZ 080025a0 f i ad_i486.obj
 0001:000015a0       ?end@Space@@QBEPAVHeapWord@@XZ 080025a0 f i ad_i486.obj
 0001:000015b0       ?value@oop_Relocation@@UAEPAEXZ 080025b0 f i ad_i486.obj
 0001:000015c0       ?ideal_reg@MulLNode@@UBEIXZ 080025c0 f i ad_i486.obj
 0001:000015c0       ?ideal_reg@XorLNode@@UBEIXZ 080025c0 f i ad_i486.obj
 0001:000015c0       ?ideal_reg@ConvF2LNode@@UBEIXZ 080025c0 f i ad_i486.obj
 0001:000015c0       ?ideal_reg@ConvI2LNode@@UBEIXZ 080025c0 f i ad_i486.obj
 0001:000015c0       ?ideal_reg@LShiftLNode@@UBEIXZ 080025c0 f i ad_i486.obj
 0001:000015c0       ?ideal_reg@ModLNode@@UBEIXZ 080025c0 f i ad_i486.obj
 0001:000015c0       ?type@runtime_call_Relocation@@EAE?AW4relocType@relocInfo@@XZ 080025c0 f i ad_i486.obj
 0001:000015c0       ?ideal_reg@DivLNode@@UBEIXZ 080025c0 f i ad_i486.obj
 0001:000015c0       ?ideal_reg@AddLNode@@UBEIXZ 080025c0 f i ad_i486.obj
 0001:000015c0       ?ideal_reg@OrLNode@@UBEIXZ 080025c0 f i ad_i486.obj
 0001:000015c0       ?ideal_Opcode@storeSSLNode@@EBEHXZ 080025c0 f i ad_i486.obj
 0001:000015c0       ?ideal_reg@SubLNode@@UBEIXZ 080025c0 f i ad_i486.obj
 0001:000015c0       ?ideal_reg@ConvD2LNode@@UBEIXZ 080025c0 f i ad_i486.obj
 0001:000015c0       ?ideal_reg@AndLNode@@UBEIXZ 080025c0 f i ad_i486.obj
 0001:000015c0       ?ideal_reg@LoadLNode@@UBEIXZ 080025c0 f i ad_i486.obj
 0001:000015c0       ?ideal_reg@CastP2LNode@@UBEIXZ 080025c0 f i ad_i486.obj
 0001:000015c0       ?opcode@sRegLOper@@UBEIXZ  080025c0 f i ad_i486.obj
 0001:000015c0       ?ideal_reg@RShiftLNode@@UBEIXZ 080025c0 f i ad_i486.obj
 0001:000015c0       ?ideal_reg@URShiftLNode@@UBEIXZ 080025c0 f i ad_i486.obj
 0001:000015c0       ?less_equal@cmpOpUOper@@UBEHXZ 080025c0 f i ad_i486.obj
 0001:000015d0       ?size_java_to_interp@@YAIXZ 080025d0 f   ad_i486.obj
 0001:000015d0       ?Opcode@AbsFNode@@UBEHXZ   080025d0 f   ad_i486.obj
 0001:000015e0       ?inline_cache_reg@Matcher@@SA?AW4Name@OptoReg@@XZ 080025e0 f   ad_i486.obj
 0001:000015e0       ?pd_code_alignment@VtableStub@@CAHXZ 080025e0 f   ad_i486.obj
 0001:000015e0       ?reloc_java_to_interp@@YAIXZ 080025e0 f   ad_i486.obj
 0001:000015f0       ?emit@MachUEPNode@@UBEXAAVCodeBuffer@@PAVPhaseRegAlloc@@@Z 080025f0 f   ad_i486.obj
 0001:000016a0       ?size@MachUEPNode@@UBEIPAVPhaseRegAlloc@@@Z 080026a0 f   ad_i486.obj
 0001:000016a0       ?size@mulL_eReg_conNode@@EBEIPAVPhaseRegAlloc@@@Z 080026a0 f   ad_i486.obj
 0001:000016b0       ?emit@MachC2IEntriesNode@@UBEXAAVCodeBuffer@@PAVPhaseRegAlloc@@@Z 080026b0 f   ad_i486.obj
 0001:000017d0       ?size@MachC2IEntriesNode@@UBEIPAVPhaseRegAlloc@@@Z 080027d0 f   ad_i486.obj
 0001:000017e0       ?emit@MachC2IcheckICNode@@UBEXAAVCodeBuffer@@PAVPhaseRegAlloc@@@Z 080027e0 f   ad_i486.obj
 0001:000018d0       ?size@MachC2IcheckICNode@@UBEIPAVPhaseRegAlloc@@@Z 080028d0 f   ad_i486.obj
 0001:000018e0       ?emit_exception_handler@@YAXAAVCodeBuffer@@@Z 080028e0 f   ad_i486.obj
 0001:00001980       ?compute_Object_vtable@ClassLoader@@SAHXZ 08002980 f   ad_i486.obj
 0001:00001980       ?size_exception_handler@@YAIXZ 08002980 f   ad_i486.obj
 0001:00001990       ?regnum_to_fpu_offset@Matcher@@UAEHH@Z 08002990 f   ad_i486.obj
 0001:000019a0       ?is_positive_zero_float@@YAHM@Z 080029a0 f   ad_i486.obj
 0001:000019d0       ?is_positive_one_float@@YAHM@Z 080029d0 f   ad_i486.obj
 0001:00001a00       ?is_positive_zero_double@@YAHN@Z 08002a00 f   ad_i486.obj
 0001:00001a50       ?is_positive_one_double@@YAHN@Z 08002a50 f   ad_i486.obj
 0001:00001aa0       ?is_short_branch_offset@Matcher@@QAEHH@Z 08002aa0 f   ad_i486.obj
 0001:00001ac0       ?pd_implicit_null_fixup@Matcher@@QAEXPAVMachNode@@I@Z 08002ac0 f   ad_i486.obj
 0001:00001d90       ?Amalloc@Arena@@QAEPAXI@Z  08002d90 f i ad_i486.obj
 0001:00001dc0       ?ideal_Opcode@salI_eReg_CLNode@@EBEHXZ 08002dc0 f i ad_i486.obj
 0001:00001dc0       ?opcode@indirect_win95_safeOper@@UBEIXZ 08002dc0 f i ad_i486.obj
 0001:00001dc0       ?ideal_Opcode@salI_eReg_immNode@@EBEHXZ 08002dc0 f i ad_i486.obj
 0001:00001dc0       ?ideal_Opcode@shlI_eReg_1Node@@EBEHXZ 08002dc0 f i ad_i486.obj
 0001:00001dd0       ?base@indIndexOffset_win95_safeOper@@UBEHPAVPhaseRegAlloc@@PBVNode@@H@Z 08002dd0 f i ad_i486.obj
 0001:00001dd0       ?base@indOffset32XOper@@UBEHPAVPhaseRegAlloc@@PBVNode@@H@Z 08002dd0 f i ad_i486.obj
 0001:00001dd0       ?base@indOffset32_win95_safeOper@@UBEHPAVPhaseRegAlloc@@PBVNode@@H@Z 08002dd0 f i ad_i486.obj
 0001:00001dd0       ?base@indOffset8Oper@@UBEHPAVPhaseRegAlloc@@PBVNode@@H@Z 08002dd0 f i ad_i486.obj
 0001:00001dd0       ?base@indOffset32Oper@@UBEHPAVPhaseRegAlloc@@PBVNode@@H@Z 08002dd0 f i ad_i486.obj
 0001:00001dd0       ?base@load_long_indOffset32Oper@@UBEHPAVPhaseRegAlloc@@PBVNode@@H@Z 08002dd0 f i ad_i486.obj
 0001:00001dd0       ?base@indIndexScaleOffsetOper@@UBEHPAVPhaseRegAlloc@@PBVNode@@H@Z 08002dd0 f i ad_i486.obj
 0001:00001dd0       ?base@indirectOper@@UBEHPAVPhaseRegAlloc@@PBVNode@@H@Z 08002dd0 f i ad_i486.obj
 0001:00001dd0       ?base@indIndexScale_win95_safeOper@@UBEHPAVPhaseRegAlloc@@PBVNode@@H@Z 08002dd0 f i ad_i486.obj
 0001:00001dd0       ?base@indIndexOffsetOper@@UBEHPAVPhaseRegAlloc@@PBVNode@@H@Z 08002dd0 f i ad_i486.obj
 0001:00001dd0       ?base@indIndexScaleOffset_win95_safeOper@@UBEHPAVPhaseRegAlloc@@PBVNode@@H@Z 08002dd0 f i ad_i486.obj
 0001:00001dd0       ?base@load_long_indirectOper@@UBEHPAVPhaseRegAlloc@@PBVNode@@H@Z 08002dd0 f i ad_i486.obj
 0001:00001dd0       ?base@indOffset8_win95_safeOper@@UBEHPAVPhaseRegAlloc@@PBVNode@@H@Z 08002dd0 f i ad_i486.obj
 0001:00001dd0       ?base@indIndexScaleOper@@UBEHPAVPhaseRegAlloc@@PBVNode@@H@Z 08002dd0 f i ad_i486.obj
 0001:00001dd0       ?base@indIndexOper@@UBEHPAVPhaseRegAlloc@@PBVNode@@H@Z 08002dd0 f i ad_i486.obj
 0001:00001dd0       ?base@indirect_win95_safeOper@@UBEHPAVPhaseRegAlloc@@PBVNode@@H@Z 08002dd0 f i ad_i486.obj
 0001:00001e00       ?index@indOffset8Oper@@UBEHPAVPhaseRegAlloc@@PBVNode@@H@Z 08002e00 f i ad_i486.obj
 0001:00001e00       ?index@stackSlotFOper@@UBEHPAVPhaseRegAlloc@@PBVNode@@H@Z 08002e00 f i ad_i486.obj
 0001:00001e00       ?index@stackSlotLOper@@UBEHPAVPhaseRegAlloc@@PBVNode@@H@Z 08002e00 f i ad_i486.obj
 0001:00001e00       ?index@indOffset32XOper@@UBEHPAVPhaseRegAlloc@@PBVNode@@H@Z 08002e00 f i ad_i486.obj
 0001:00001e00       ?index@indirect_win95_safeOper@@UBEHPAVPhaseRegAlloc@@PBVNode@@H@Z 08002e00 f i ad_i486.obj
 0001:00001e00       ?index@stackSlotIOper@@UBEHPAVPhaseRegAlloc@@PBVNode@@H@Z 08002e00 f i ad_i486.obj
 0001:00001e00       ?base@stackSlotPOper@@UBEHPAVPhaseRegAlloc@@PBVNode@@H@Z 08002e00 f i ad_i486.obj
 0001:00001e00       ?index@indOffset32_win95_safeOper@@UBEHPAVPhaseRegAlloc@@PBVNode@@H@Z 08002e00 f i ad_i486.obj
 0001:00001e00       ?index@stackSlotDOper@@UBEHPAVPhaseRegAlloc@@PBVNode@@H@Z 08002e00 f i ad_i486.obj
 0001:00001e00       ?index@stackSlotPOper@@UBEHPAVPhaseRegAlloc@@PBVNode@@H@Z 08002e00 f i ad_i486.obj
 0001:00001e00       ?index@indOffset32Oper@@UBEHPAVPhaseRegAlloc@@PBVNode@@H@Z 08002e00 f i ad_i486.obj
 0001:00001e00       ?base@stackSlotIOper@@UBEHPAVPhaseRegAlloc@@PBVNode@@H@Z 08002e00 f i ad_i486.obj
 0001:00001e00       ?base@stackSlotDOper@@UBEHPAVPhaseRegAlloc@@PBVNode@@H@Z 08002e00 f i ad_i486.obj
 0001:00001e00       ?index@indOffset8_win95_safeOper@@UBEHPAVPhaseRegAlloc@@PBVNode@@H@Z 08002e00 f i ad_i486.obj
 0001:00001e00       ?base@stackSlotLOper@@UBEHPAVPhaseRegAlloc@@PBVNode@@H@Z 08002e00 f i ad_i486.obj
 0001:00001e00       ?index@indirectOper@@UBEHPAVPhaseRegAlloc@@PBVNode@@H@Z 08002e00 f i ad_i486.obj
 0001:00001e00       ?index@load_long_indOffset32Oper@@UBEHPAVPhaseRegAlloc@@PBVNode@@H@Z 08002e00 f i ad_i486.obj
 0001:00001e00       ?base@stackSlotFOper@@UBEHPAVPhaseRegAlloc@@PBVNode@@H@Z 08002e00 f i ad_i486.obj
 0001:00001e00       ?index@directOper@@UBEHPAVPhaseRegAlloc@@PBVNode@@H@Z 08002e00 f i ad_i486.obj
 0001:00001e00       ?index@load_long_indirectOper@@UBEHPAVPhaseRegAlloc@@PBVNode@@H@Z 08002e00 f i ad_i486.obj
 0001:00001e10       ?disp@indIndexScaleOper@@UBEHPAVPhaseRegAlloc@@PBVNode@@H@Z 08002e10 f i ad_i486.obj
 0001:00001e10       ?disp@indIndexScale_win95_safeOper@@UBEHPAVPhaseRegAlloc@@PBVNode@@H@Z 08002e10 f i ad_i486.obj
 0001:00001e10       ?disp@indirect_win95_safeOper@@UBEHPAVPhaseRegAlloc@@PBVNode@@H@Z 08002e10 f i ad_i486.obj
 0001:00001e10       ?disp@indIndexOper@@UBEHPAVPhaseRegAlloc@@PBVNode@@H@Z 08002e10 f i ad_i486.obj
 0001:00001e10       ?disp@indirectOper@@UBEHPAVPhaseRegAlloc@@PBVNode@@H@Z 08002e10 f i ad_i486.obj
 0001:00001e10       ?allocation_limit_reached@Generation@@UAEPAVHeapWord@@PAVSpace@@PAV2@I@Z 08002e10 f i ad_i486.obj
 0001:00001e10       ?disp@load_long_indirectOper@@UBEHPAVPhaseRegAlloc@@PBVNode@@H@Z 08002e10 f i ad_i486.obj
 0001:00001e20       ?set_bottom@Space@@UAEXPAVHeapWord@@@Z 08002e20 f i ad_i486.obj
 0001:00001e20       ?set_con@load_long_indOffset32Oper@@UAEXH@Z 08002e20 f i ad_i486.obj
 0001:00001e20       ?set_con@immI_32Oper@@UAEXH@Z 08002e20 f i ad_i486.obj
 0001:00001e20       ?set_con@indOffset32_win95_safeOper@@UAEXH@Z 08002e20 f i ad_i486.obj
 0001:00001e20       ?set_con@immI8Oper@@UAEXH@Z 08002e20 f i ad_i486.obj
 0001:00001e20       ?set_con@immI_255Oper@@UAEXH@Z 08002e20 f i ad_i486.obj
 0001:00001e20       ?set_con@indIndexOffsetOper@@UAEXH@Z 08002e20 f i ad_i486.obj
 0001:00001e20       ?set_con@immI_32_63Oper@@UAEXH@Z 08002e20 f i ad_i486.obj
 0001:00001e20       ?set_con@indIndexScale_win95_safeOper@@UAEXH@Z 08002e20 f i ad_i486.obj
 0001:00001e20       ?set_con@indOffset8Oper@@UAEXH@Z 08002e20 f i ad_i486.obj
 0001:00001e20       ?set_con@immI_24Oper@@UAEXH@Z 08002e20 f i ad_i486.obj
 0001:00001e20       ?set_con@immI_16Oper@@UAEXH@Z 08002e20 f i ad_i486.obj
 0001:00001e20       ?set_con@immI_M1Oper@@UAEXH@Z 08002e20 f i ad_i486.obj
 0001:00001e20       ?set_con@immInzOper@@UAEXH@Z 08002e20 f i ad_i486.obj
 0001:00001e20       ?set_con@immI0Oper@@UAEXH@Z 08002e20 f i ad_i486.obj
 0001:00001e20       ?set_con@indOffset8_win95_safeOper@@UAEXH@Z 08002e20 f i ad_i486.obj
 0001:00001e20       ?set_con@immI10Oper@@UAEXH@Z 08002e20 f i ad_i486.obj
 0001:00001e20       ?set_con@indOffset32Oper@@UAEXH@Z 08002e20 f i ad_i486.obj
 0001:00001e20       ?set_con@immIOper@@UAEXH@Z 08002e20 f i ad_i486.obj
 0001:00001e20       ?set_con@immInoneOper@@UAEXH@Z 08002e20 f i ad_i486.obj
 0001:00001e20       ?set_con@immI_1_31Oper@@UAEXH@Z 08002e20 f i ad_i486.obj
 0001:00001e20       ?set_con@immI1Oper@@UAEXH@Z 08002e20 f i ad_i486.obj
 0001:00001e20       ?set_con@immI2Oper@@UAEXH@Z 08002e20 f i ad_i486.obj
 0001:00001e20       ?set_con@indIndexOffset_win95_safeOper@@UAEXH@Z 08002e20 f i ad_i486.obj
 0001:00001e20       ?set_con@immI16Oper@@UAEXH@Z 08002e20 f i ad_i486.obj
 0001:00001e20       ?set_con@indIndexScaleOper@@UAEXH@Z 08002e20 f i ad_i486.obj
 0001:00001e30       ?ideal_Opcode@shlL_eReg_32_63Node@@EBEHXZ 08002e30 f i ad_i486.obj
 0001:00001e30       ?ideal_Opcode@salL_eReg_CLNode@@EBEHXZ 08002e30 f i ad_i486.obj
 0001:00001e30       ?ideal_Opcode@shlL_eReg_1_31Node@@EBEHXZ 08002e30 f i ad_i486.obj
 0001:00001e30       ?opcode@indOffset8_win95_safeOper@@UBEIXZ 08002e30 f i ad_i486.obj
 0001:00001e40       ?disp@indOffset8_win95_safeOper@@UBEHPAVPhaseRegAlloc@@PBVNode@@H@Z 08002e40 f i ad_i486.obj
 0001:00001e40       ?disp@indIndexOffset_win95_safeOper@@UBEHPAVPhaseRegAlloc@@PBVNode@@H@Z 08002e40 f i ad_i486.obj
 0001:00001e40       ?disp@indOffset32Oper@@UBEHPAVPhaseRegAlloc@@PBVNode@@H@Z 08002e40 f i ad_i486.obj
 0001:00001e40       ?disp@indOffset8Oper@@UBEHPAVPhaseRegAlloc@@PBVNode@@H@Z 08002e40 f i ad_i486.obj
 0001:00001e40       ?disp@indOffset32_win95_safeOper@@UBEHPAVPhaseRegAlloc@@PBVNode@@H@Z 08002e40 f i ad_i486.obj
 0001:00001e40       ?disp@load_long_indOffset32Oper@@UBEHPAVPhaseRegAlloc@@PBVNode@@H@Z 08002e40 f i ad_i486.obj
 0001:00001e40       ?disp@indIndexOffsetOper@@UBEHPAVPhaseRegAlloc@@PBVNode@@H@Z 08002e40 f i ad_i486.obj
 0001:00001e50       ?constant@immI10Oper@@UBEHXZ 08002e50 f i ad_i486.obj
 0001:00001e50       ?constant@immI2Oper@@UBEHXZ 08002e50 f i ad_i486.obj
 0001:00001e50       ?permanent_generation@CollectorPolicy@@UAEPAVPermanentGenerationSpec@@XZ 08002e50 f i ad_i486.obj
 0001:00001e50       ?constant_disp@load_long_indOffset32Oper@@UBEHXZ 08002e50 f i ad_i486.obj
 0001:00001e50       ?scale@indIndexScaleOffsetOper@@UBEHXZ 08002e50 f i ad_i486.obj
 0001:00001e50       ?label@labelOper@@UBEPAVLabel@@XZ 08002e50 f i ad_i486.obj
 0001:00001e50       ?type@directOper@@UBEPBVType@@XZ 08002e50 f i ad_i486.obj
 0001:00001e50       ?constant@immI_32Oper@@UBEHXZ 08002e50 f i ad_i486.obj
 0001:00001e50       ?constant@immI16Oper@@UBEHXZ 08002e50 f i ad_i486.obj
 0001:00001e50       ?constant@immI_32_63Oper@@UBEHXZ 08002e50 f i ad_i486.obj
 0001:00001e50       ?constant@immI_16Oper@@UBEHXZ 08002e50 f i ad_i486.obj
 0001:00001e50       ?constant@immI_24Oper@@UBEHXZ 08002e50 f i ad_i486.obj
 0001:00001e50       ?method@methodOper@@UBEHXZ 08002e50 f i ad_i486.obj
 0001:00001e50       ?disp_as_type@indOffset32XOper@@UBEPBVTypePtr@@XZ 08002e50 f i ad_i486.obj
 0001:00001e50       ?pred_count@Block@Parse@@QBEHXZ 08002e50 f i ad_i486.obj
 0001:00001e50       ?constant@immI_M1Oper@@UBEHXZ 08002e50 f i ad_i486.obj
 0001:00001e50       ?constant@immInoneOper@@UBEHXZ 08002e50 f i ad_i486.obj
 0001:00001e50       ?constant_disp@indIndexOffsetOper@@UBEHXZ 08002e50 f i ad_i486.obj
 0001:00001e50       ?constant_disp@indOffset32Oper@@UBEHXZ 08002e50 f i ad_i486.obj
 0001:00001e50       ?constant@immI1Oper@@UBEHXZ 08002e50 f i ad_i486.obj
 0001:00001e50       ?scale@indIndexScale_win95_safeOper@@UBEHXZ 08002e50 f i ad_i486.obj
 0001:00001e50       ?constant@immI0Oper@@UBEHXZ 08002e50 f i ad_i486.obj
 0001:00001e50       ?constant@immI_1_31Oper@@UBEHXZ 08002e50 f i ad_i486.obj
 0001:00001e50       ?constant@immInzOper@@UBEHXZ 08002e50 f i ad_i486.obj
 0001:00001e50       ?type@immPOper@@UBEPBVType@@XZ 08002e50 f i ad_i486.obj
 0001:00001e50       ?constant_disp@indIndexOffset_win95_safeOper@@UBEHXZ 08002e50 f i ad_i486.obj
 0001:00001e50       ?scale@indIndexScaleOffset_win95_safeOper@@UBEHXZ 08002e50 f i ad_i486.obj
 0001:00001e50       ?scale@indIndexScaleOper@@UBEHXZ 08002e50 f i ad_i486.obj
 0001:00001e50       ?bottom@Space@@QBEPAVHeapWord@@XZ 08002e50 f i ad_i486.obj
 0001:00001e50       ?constant@immIOper@@UBEHXZ 08002e50 f i ad_i486.obj
 0001:00001e50       ?constant_disp@indOffset8_win95_safeOper@@UBEHXZ 08002e50 f i ad_i486.obj
 0001:00001e50       ?constant@immI8Oper@@UBEHXZ 08002e50 f i ad_i486.obj
 0001:00001e50       ?type@immP0Oper@@UBEPBVType@@XZ 08002e50 f i ad_i486.obj
 0001:00001e50       ?constant@immI_255Oper@@UBEHXZ 08002e50 f i ad_i486.obj
 0001:00001e50       ?constant_disp@indOffset8Oper@@UBEHXZ 08002e50 f i ad_i486.obj
 0001:00001e50       ?constant_disp@indOffset32_win95_safeOper@@UBEHXZ 08002e50 f i ad_i486.obj
 0001:00001e60       ?ideal_Opcode@loadBNode@@EBEHXZ 08002e60 f i ad_i486.obj
 0001:00001e60       ?opcode@indOffset32_win95_safeOper@@UBEIXZ 08002e60 f i ad_i486.obj
 0001:00001e70       ?opcode@indIndexOffset_win95_safeOper@@UBEIXZ 08002e70 f i ad_i486.obj
 0001:00001e70       ?ideal_Opcode@loadCNode@@EBEHXZ 08002e70 f i ad_i486.obj
 0001:00001e80       ?opcode@indIndexScale_win95_safeOper@@UBEIXZ 08002e80 f i ad_i486.obj
 0001:00001e80       ?ideal_Opcode@loadXDNode@@EBEHXZ 08002e80 f i ad_i486.obj
 0001:00001e80       ?ideal_Opcode@loadDNode@@EBEHXZ 08002e80 f i ad_i486.obj
 0001:00001e90       ?opcode@indIndexScaleOffset_win95_safeOper@@UBEIXZ 08002e90 f i ad_i486.obj
 0001:00001ea0       ?index@indIndexScaleOffsetOper@@UBEHPAVPhaseRegAlloc@@PBVNode@@H@Z 08002ea0 f i ad_i486.obj
 0001:00001ea0       ?index@indIndexScaleOffset_win95_safeOper@@UBEHPAVPhaseRegAlloc@@PBVNode@@H@Z 08002ea0 f i ad_i486.obj
 0001:00001ea0       ?index@indIndexOper@@UBEHPAVPhaseRegAlloc@@PBVNode@@H@Z 08002ea0 f i ad_i486.obj
 0001:00001ea0       ?index@indIndexScale_win95_safeOper@@UBEHPAVPhaseRegAlloc@@PBVNode@@H@Z 08002ea0 f i ad_i486.obj
 0001:00001ea0       ?index@indIndexScaleOper@@UBEHPAVPhaseRegAlloc@@PBVNode@@H@Z 08002ea0 f i ad_i486.obj
 0001:00001ea0       ?index@indIndexOffsetOper@@UBEHPAVPhaseRegAlloc@@PBVNode@@H@Z 08002ea0 f i ad_i486.obj
 0001:00001ea0       ?index@indIndexOffset_win95_safeOper@@UBEHPAVPhaseRegAlloc@@PBVNode@@H@Z 08002ea0 f i ad_i486.obj
 0001:00001ed0       ?disp@indIndexScaleOffsetOper@@UBEHPAVPhaseRegAlloc@@PBVNode@@H@Z 08002ed0 f i ad_i486.obj
 0001:00001ed0       ?disp@indIndexScaleOffset_win95_safeOper@@UBEHPAVPhaseRegAlloc@@PBVNode@@H@Z 08002ed0 f i ad_i486.obj
 0001:00001ee0       ?can_be_arg@Matcher@@SAHH@Z 08002ee0 f   ad_i486.obj
 0001:00001f20       ?is_spillable_arg@Matcher@@SAHH@Z 08002f20 f   ad_i486.obj
 0001:00001f30       ?emit_break@@YAXAAVCodeBuffer@@@Z 08002f30 f   ad_i486.obj
 0001:00001f50       ?emit@MachBreakpointNode@@UBEXAAVCodeBuffer@@PAVPhaseRegAlloc@@@Z 08002f50 f   ad_i486.obj
 0001:00001f60       ?clone@labelOper@@UBEPAVMachOper@@XZ 08002f60 f   ad_i486.obj
 0001:00001fc0       ?interpreter_arg_ptr_reg@Matcher@@SA?AW4Name@OptoReg@@XZ 08002fc0 f   ad_i486.obj
 0001:00001fc0       ?reloc@addXD_memNode@@EBEHXZ 08002fc0 f   ad_i486.obj
 0001:00001fc0       ?reloc@cmovII_mem_LEGTNode@@EBEHXZ 08002fc0 f   ad_i486.obj
 0001:00001fc0       ?reloc@addF24_mem_regNode@@EBEHXZ 08002fc0 f   ad_i486.obj
 0001:00001fc0       ?reloc@convI2D_memNode@@EBEHXZ 08002fc0 f   ad_i486.obj
 0001:00001fc0       ?reloc@subXD_memNode@@EBEHXZ 08002fc0 f   ad_i486.obj
 0001:00001fc0       ?reloc@loadXDNode@@EBEHXZ  08002fc0 f   ad_i486.obj
 0001:00001fc0       ?reloc@sqrtXD_memNode@@EBEHXZ 08002fc0 f   ad_i486.obj
 0001:00001fc0       ?reloc@testI_reg_memNode@@EBEHXZ 08002fc0 f   ad_i486.obj
 0001:00001fc0       ?powDSupported@Matcher@@SA?BHXZ 08002fc0 f   ad_i486.obj
 0001:00001fc0       ?sqrtDSupported@Matcher@@SA?BHXZ 08002fc0 f   ad_i486.obj
 0001:00001fc0       ?reloc@addF24_reg_memNode@@EBEHXZ 08002fc0 f   ad_i486.obj
 0001:00001fc0       ?reloc@compP_mem_eRegNode@@EBEHXZ 08002fc0 f   ad_i486.obj
 0001:00001fc0       ?reloc@mulX_immNode@@EBEHXZ 08002fc0 f   ad_i486.obj
 0001:00001fc0       ?reloc@xorI_eReg_memNode@@EBEHXZ 08002fc0 f   ad_i486.obj
 0001:00001fc0       ?reloc@subX_immNode@@EBEHXZ 08002fc0 f   ad_i486.obj
 0001:00001fc0       ?interpreter_method_oop_reg@Matcher@@SA?AW4Name@OptoReg@@XZ 08002fc0 f   ad_i486.obj
 0001:00001fc0       ?reloc@subX_memNode@@EBEHXZ 08002fc0 f   ad_i486.obj
 0001:00001fc0       ?reloc@convI2F_SSF_memNode@@EBEHXZ 08002fc0 f   ad_i486.obj
 0001:00001fc0       ?reloc@addX_immNode@@EBEHXZ 08002fc0 f   ad_i486.obj
 0001:00001fc0       ?reloc@cmovLL_mem_LTGENode@@EBEHXZ 08002fc0 f   ad_i486.obj
 0001:00001fc0       ?reloc@loadLLockedNode@@EBEHXZ 08002fc0 f   ad_i486.obj
 0001:00001fc0       ?reloc@subL_eReg_memNode@@EBEHXZ 08002fc0 f   ad_i486.obj
 0001:00001fc0       ?reloc@divX_immNode@@EBEHXZ 08002fc0 f   ad_i486.obj
 0001:00001fc0       ?reloc@loadL_volatileNode@@EBEHXZ 08002fc0 f   ad_i486.obj
 0001:00001fc0       ?reloc@cmpF_0Node@@EBEHXZ  08002fc0 f   ad_i486.obj
 0001:00001fc0       ?reloc@cmovI_memuNode@@EBEHXZ 08002fc0 f   ad_i486.obj
 0001:00001fc0       ?reloc@mulX_memNode@@EBEHXZ 08002fc0 f   ad_i486.obj
 0001:00001fc0       ?reloc@addI_eReg_memNode@@EBEHXZ 08002fc0 f   ad_i486.obj
 0001:00001fc0       ?reloc@loadUBNode@@EBEHXZ  08002fc0 f   ad_i486.obj
 0001:00001fc0       ?reloc@mulD_reg_memNode@@EBEHXZ 08002fc0 f   ad_i486.obj
 0001:00001fc0       ?reloc@cmpD_0Node@@EBEHXZ  08002fc0 f   ad_i486.obj
 0001:00001fc0       ?reloc@loadConPNode@@EBEHXZ 08002fc0 f   ad_i486.obj
 0001:00001fc0       ?reloc@cmpX_ccmemNode@@EBEHXZ 08002fc0 f   ad_i486.obj
 0001:00001fc0       ?reloc@mulF_reg_immNode@@EBEHXZ 08002fc0 f   ad_i486.obj
 0001:00001fc0       ?reloc@compI_eReg_memNode@@EBEHXZ 08002fc0 f   ad_i486.obj
 0001:00001fc0       ?modFSupported@Matcher@@SA?BHXZ 08002fc0 f   ad_i486.obj
 0001:00001fc0       ?reloc@loadPNode@@EBEHXZ   08002fc0 f   ad_i486.obj
 0001:00001fc0       ?allow_nested_vm_operations@VM_GetOrSetLocal@@UBEHXZ 08002fc0 f   ad_i486.obj
 0001:00001fc0       ?reloc@cmovLL_mem_LEGTNode@@EBEHXZ 08002fc0 f   ad_i486.obj
 0001:00001fc0       ?reloc@andL_eReg_memNode@@EBEHXZ 08002fc0 f   ad_i486.obj
 0001:00001fc0       ?reloc@RetNode@@EBEHXZ     08002fc0 f   ad_i486.obj
 0001:00001fc0       ?reloc@loadSNode@@EBEHXZ   08002fc0 f   ad_i486.obj
 0001:00001fc0       ?reloc@mulD_reg_mem_ciscNode@@EBEHXZ 08002fc0 f   ad_i486.obj
 0001:00001fc0       ?reloc@xorl_eReg_memNode@@EBEHXZ 08002fc0 f   ad_i486.obj
 0001:00001fc0       ?cosDSupported@Matcher@@SA?BHXZ 08002fc0 f   ad_i486.obj
 0001:00001fc0       ?reloc@cmovII_mem_EQNENode@@EBEHXZ 08002fc0 f   ad_i486.obj
 0001:00001fc0       ?reloc@testP_regNode@@EBEHXZ 08002fc0 f   ad_i486.obj
 0001:00001fc0       ?pd_breakpoint_size@Relocation@@KAHXZ 08002fc0 f   ad_i486.obj
 0001:00001fc0       ?reloc@storePConditionalNode@@EBEHXZ 08002fc0 f   ad_i486.obj
 0001:00001fc0       ?reloc@safePointNode@@EBEHXZ 08002fc0 f   ad_i486.obj
 0001:00001fc0       ?reloc@mulF_reg_load1Node@@EBEHXZ 08002fc0 f   ad_i486.obj
 0001:00001fc0       ?modDSupported@Matcher@@SA?BHXZ 08002fc0 f   ad_i486.obj
 0001:00001fc0       ?reloc@cmovLL_mem_EQNENode@@EBEHXZ 08002fc0 f   ad_i486.obj
 0001:00001fc0       ?reloc@RethrowExceptionNode@@EBEHXZ 08002fc0 f   ad_i486.obj
 0001:00001fc0       ?reloc@loadINode@@EBEHXZ   08002fc0 f   ad_i486.obj
 0001:00001fc0       ?reloc@tailjmpIndNode@@EBEHXZ 08002fc0 f   ad_i486.obj
 0001:00001fc0       ?reloc@CallStaticJavaDirectNode@@EBEHXZ 08002fc0 f   ad_i486.obj
 0001:00001fc0       ?reloc@prefetch0Node@@EBEHXZ 08002fc0 f   ad_i486.obj
 0001:00001fc0       ?reloc@prefetch1Node@@EBEHXZ 08002fc0 f   ad_i486.obj
 0001:00001fc0       ?bailouts_and_breaks@Compile@@QAEHXZ 08002fc0 f   ad_i486.obj
 0001:00001fc0       ?reloc@mulF_reg_memNode@@EBEHXZ 08002fc0 f   ad_i486.obj
 0001:00001fc0       ?reloc@TailCalljmpIndNode@@EBEHXZ 08002fc0 f   ad_i486.obj
 0001:00001fc0       ?reloc@loadRangeNode@@EBEHXZ 08002fc0 f   ad_i486.obj
 0001:00001fc0       ?reloc@mulF24_reg_immNode@@EBEHXZ 08002fc0 f   ad_i486.obj
 0001:00001fc0       ?reloc@loadLNode@@EBEHXZ   08002fc0 f   ad_i486.obj
 0001:00001fc0       ?reloc@divXD_memNode@@EBEHXZ 08002fc0 f   ad_i486.obj
 0001:00001fc0       ?sinDSupported@Matcher@@SA?BHXZ 08002fc0 f   ad_i486.obj
 0001:00001fc0       ?reloc@loadCNode@@EBEHXZ   08002fc0 f   ad_i486.obj
 0001:00001fc0       ?atanDSupported@Matcher@@SA?BHXZ 08002fc0 f   ad_i486.obj
 0001:00001fc0       ?reloc@mulF24_reg_memNode@@EBEHXZ 08002fc0 f   ad_i486.obj
 0001:00001fc0       ?reloc@mulINode@@EBEHXZ    08002fc0 f   ad_i486.obj
 0001:00001fc0       ?reloc@CallDynamicJavaDirectNode@@EBEHXZ 08002fc0 f   ad_i486.obj
 0001:00001fc0       ?reloc@addX_memNode@@EBEHXZ 08002fc0 f   ad_i486.obj
 0001:00001fc0       ?reloc@loadDNode@@EBEHXZ   08002fc0 f   ad_i486.obj
 0001:00001fc0       ?reloc@addF24_reg_immNode@@EBEHXZ 08002fc0 f   ad_i486.obj
 0001:00001fc0       ?reloc@cmpX_regmemNode@@EBEHXZ 08002fc0 f   ad_i486.obj
 0001:00001fc0       ?reloc@cmpXD_ccmemNode@@EBEHXZ 08002fc0 f   ad_i486.obj
 0001:00001fc0       ?reloc@mulXD_memNode@@EBEHXZ 08002fc0 f   ad_i486.obj
 0001:00001fc0       ?is_finite@TypeLong@@UBEHXZ 08002fc0 f   ad_i486.obj
 0001:00001fc0       ?allow_nested_vm_operations@VM_ChangeFramePops@@UBEHXZ 08002fc0 f   ad_i486.obj
 0001:00001fc0       ?reloc@CallCompiledJavaDirectNode@@EBEHXZ 08002fc0 f   ad_i486.obj
 0001:00001fc0       ?reloc@convI2F_memNode@@EBEHXZ 08002fc0 f   ad_i486.obj
 0001:00001fc0       ?reloc@loadBNode@@EBEHXZ   08002fc0 f   ad_i486.obj
 0001:00001fc0       ?reloc@addF_reg_memNode@@EBEHXZ 08002fc0 f   ad_i486.obj
 0001:00001fc0       ?reloc@testP_Reg_memNode@@EBEHXZ 08002fc0 f   ad_i486.obj
 0001:00001fc0       ?reloc@addD_reg_immNode@@EBEHXZ 08002fc0 f   ad_i486.obj
 0001:00001fc0       ?reloc@loadKlassNode@@EBEHXZ 08002fc0 f   ad_i486.obj
 0001:00001fc0       ?tanDSupported@Matcher@@SA?BHXZ 08002fc0 f   ad_i486.obj
 0001:00001fc0       ?singleton@TypeD@@UBEHXZ   08002fc0 f   ad_i486.obj
 0001:00001fc0       ?singleton@TypeF@@UBEHXZ   08002fc0 f   ad_i486.obj
 0001:00001fc0       ?reloc@addD_reg_imm_roundNode@@EBEHXZ 08002fc0 f   ad_i486.obj
 0001:00001fc0       ?reloc@addD_reg_memNode@@EBEHXZ 08002fc0 f   ad_i486.obj
 0001:00001fc0       ?reloc@CallNativeDirectNode@@EBEHXZ 08002fc0 f   ad_i486.obj
 0001:00001fc0       ?sync_stack_slots@Compile@@QBEHXZ 08002fc0 f   ad_i486.obj
 0001:00001fc0       ?reloc@mulXD_immNode@@EBEHXZ 08002fc0 f   ad_i486.obj
 0001:00001fc0       ?reloc@cmovI_memNode@@EBEHXZ 08002fc0 f   ad_i486.obj
 0001:00001fc0       ?can_be_at_safepoint_before_suspend@SafepointSynchronize@@SAHPAVJavaThread@@W4JavaThreadState@@@Z 08002fc0 f   ad_i486.obj
 0001:00001fc0       ?reloc@addD_reg_imm1Node@@EBEHXZ 08002fc0 f   ad_i486.obj
 0001:00001fc0       ?reloc@addF_reg_immNode@@EBEHXZ 08002fc0 f   ad_i486.obj
 0001:00001fc0       ?reloc@divXD_immNode@@EBEHXZ 08002fc0 f   ad_i486.obj
 0001:00001fc0       ?reloc@orl_eReg_memNode@@EBEHXZ 08002fc0 f   ad_i486.obj
 0001:00001fc0       ?reloc@convI2XD_memNode@@EBEHXZ 08002fc0 f   ad_i486.obj
 0001:00001fc0       ?reloc@CallInterpreterDirectNode@@EBEHXZ 08002fc0 f   ad_i486.obj
 0001:00001fc0       ?reloc@loadXNode@@EBEHXZ   08002fc0 f   ad_i486.obj
 0001:00001fc0       ?reloc@andI_eReg_memNode@@EBEHXZ 08002fc0 f   ad_i486.obj
 0001:00001fc0       ?reloc@loadFNode@@EBEHXZ   08002fc0 f   ad_i486.obj
 0001:00001fc0       ?reloc@mulI_mem_immNode@@EBEHXZ 08002fc0 f   ad_i486.obj
 0001:00001fc0       ?reloc@compP_eReg_memNode@@EBEHXZ 08002fc0 f   ad_i486.obj
 0001:00001fc0       ?reloc@subD_reg_memNode@@EBEHXZ 08002fc0 f   ad_i486.obj
 0001:00001fc0       ?reloc@subXD_immNode@@EBEHXZ 08002fc0 f   ad_i486.obj
 0001:00001fc0       ?reloc@addF_mulF_reg_load1Node@@EBEHXZ 08002fc0 f   ad_i486.obj
 0001:00001fc0       ?is_finite@TypeInt@@UBEHXZ 08002fc0 f   ad_i486.obj
 0001:00001fc0       ?opcode@labelOper@@UBEIXZ  08002fc0 f   ad_i486.obj
 0001:00001fc0       ?in_preserve_stack_slots@Compile@@QAEIXZ 08002fc0 f   ad_i486.obj
 0001:00001fc0       ?reloc@CallLeafDirectNode@@EBEHXZ 08002fc0 f   ad_i486.obj
 0001:00001fc0       ?reloc@divX_memNode@@EBEHXZ 08002fc0 f   ad_i486.obj
 0001:00001fc0       ?reloc@orI_eReg_memNode@@EBEHXZ 08002fc0 f   ad_i486.obj
 0001:00001fc0       ?reloc@compP_eReg_immNode@@EBEHXZ 08002fc0 f   ad_i486.obj
 0001:00001fc0       ?reloc@addL_eReg_memNode@@EBEHXZ 08002fc0 f   ad_i486.obj
 0001:00001fc0       ?reloc@loadPLockedNode@@EBEHXZ 08002fc0 f   ad_i486.obj
 0001:00001fc0       ?reloc@CallRuntimeDirectNode@@EBEHXZ 08002fc0 f   ad_i486.obj
 0001:00001fc0       ?reloc@subI_eReg_memNode@@EBEHXZ 08002fc0 f   ad_i486.obj
 0001:00001fc0       ?reloc@cmpXD_regmemNode@@EBEHXZ 08002fc0 f   ad_i486.obj
 0001:00001fc0       ?reloc@mulD_reg_immNode@@EBEHXZ 08002fc0 f   ad_i486.obj
 0001:00001fc0       ?reloc@compU_eReg_memNode@@EBEHXZ 08002fc0 f   ad_i486.obj
 0001:00001fc0       ?reloc@cmovII_mem_LTGENode@@EBEHXZ 08002fc0 f   ad_i486.obj
 0001:00001fc0       ?reloc@addXD_immNode@@EBEHXZ 08002fc0 f   ad_i486.obj
 0001:00001fd0       ?in_RegMask@stackSlotIOper@@EBEPBVRegMask@@H@Z 08002fd0 f   ad_i486.obj
 0001:00001fd0       ?in_RegMask@stackSlotLOper@@EBEPBVRegMask@@H@Z 08002fd0 f   ad_i486.obj
 0001:00001fd0       ?in_RegMask@sRegDOper@@EBEPBVRegMask@@H@Z 08002fd0 f   ad_i486.obj
 0001:00001fd0       ?in_RegMask@stackSlotDOper@@EBEPBVRegMask@@H@Z 08002fd0 f   ad_i486.obj
 0001:00001fd0       ?in_RegMask@sRegFOper@@EBEPBVRegMask@@H@Z 08002fd0 f   ad_i486.obj
 0001:00001fd0       ?in_RegMask@sRegIOper@@EBEPBVRegMask@@H@Z 08002fd0 f   ad_i486.obj
 0001:00001fd0       ?in_RegMask@sRegLOper@@EBEPBVRegMask@@H@Z 08002fd0 f   ad_i486.obj
 0001:00001fd0       ?in_RegMask@stackSlotPOper@@EBEPBVRegMask@@H@Z 08002fd0 f   ad_i486.obj
 0001:00001fd0       ?in_RegMask@sRegPOper@@EBEPBVRegMask@@H@Z 08002fd0 f   ad_i486.obj
 0001:00001fd0       ?in_RegMask@stackSlotFOper@@EBEPBVRegMask@@H@Z 08002fd0 f   ad_i486.obj
 0001:00001ff0       ?clone@methodOper@@UBEPAVMachOper@@XZ 08002ff0 f   ad_i486.obj
 0001:00002040       ?c_frame_pointer@Matcher@@QBE?AW4Name@OptoReg@@XZ 08003040 f   ad_i486.obj
 0001:00002040       ?opcode@methodOper@@UBEIXZ 08003040 f   ad_i486.obj
 0001:00002040       ?class_status@arrayKlass@@UBEHXZ 08003040 f   ad_i486.obj
 0001:00002050       ?in_RegMask@xRegIOper@@EBEPBVRegMask@@H@Z 08003050 f   ad_i486.obj
 0001:00002060       ?in_RegMask@eDXRegIOper@@EBEPBVRegMask@@H@Z 08003060 f   ad_i486.obj
 0001:00002070       ?in_RegMask@eDIRegPOper@@EBEPBVRegMask@@H@Z 08003070 f   ad_i486.obj
 0001:00002070       ?in_RegMask@eDIRegIOper@@EBEPBVRegMask@@H@Z 08003070 f   ad_i486.obj
 0001:00002080       ?in_RegMask@nadxRegIOper@@EBEPBVRegMask@@H@Z 08003080 f   ad_i486.obj
 0001:00002090       ?in_RegMask@ncxRegIOper@@EBEPBVRegMask@@H@Z 08003090 f   ad_i486.obj
 0001:000020a0       ?in_RegMask@anyRegPOper@@EBEPBVRegMask@@H@Z 080030a0 f   ad_i486.obj
 0001:000020b0       ?in_RegMask@indOffset32Oper@@EBEPBVRegMask@@H@Z 080030b0 f   ad_i486.obj
 0001:000020b0       ?in_RegMask@indirectOper@@EBEPBVRegMask@@H@Z 080030b0 f   ad_i486.obj
 0001:000020b0       ?in_RegMask@eRegIOper@@EBEPBVRegMask@@H@Z 080030b0 f   ad_i486.obj
 0001:000020b0       ?in_RegMask@indIndexScaleOper@@EBEPBVRegMask@@H@Z 080030b0 f   ad_i486.obj
 0001:000020b0       ?in_RegMask@indirect_win95_safeOper@@EBEPBVRegMask@@H@Z 080030b0 f   ad_i486.obj
 0001:000020b0       ?in_RegMask@indOffset32XOper@@EBEPBVRegMask@@H@Z 080030b0 f   ad_i486.obj
 0001:000020b0       ?in_RegMask@indIndexOffsetOper@@EBEPBVRegMask@@H@Z 080030b0 f   ad_i486.obj
 0001:000020b0       ?in_RegMask@indOffset8Oper@@EBEPBVRegMask@@H@Z 080030b0 f   ad_i486.obj
 0001:000020b0       ?in_RegMask@eRegPOper@@EBEPBVRegMask@@H@Z 080030b0 f   ad_i486.obj
 0001:000020b0       ?in_RegMask@indIndexScaleOffsetOper@@EBEPBVRegMask@@H@Z 080030b0 f   ad_i486.obj
 0001:000020b0       ?in_RegMask@indIndexOper@@EBEPBVRegMask@@H@Z 080030b0 f   ad_i486.obj
 0001:000020c0       ?in_RegMask@naxRegPOper@@EBEPBVRegMask@@H@Z 080030c0 f   ad_i486.obj
 0001:000020c0       ?in_RegMask@naxRegIOper@@EBEPBVRegMask@@H@Z 080030c0 f   ad_i486.obj
 0001:000020d0       ?in_RegMask@nabxRegPOper@@EBEPBVRegMask@@H@Z 080030d0 f   ad_i486.obj
 0001:000020e0       ?in_RegMask@pRegPOper@@EBEPBVRegMask@@H@Z 080030e0 f   ad_i486.obj
 0001:000020f0       ?in_RegMask@eAXRegPOper@@EBEPBVRegMask@@H@Z 080030f0 f   ad_i486.obj
 0001:000020f0       ?in_RegMask@eAXRegIOper@@EBEPBVRegMask@@H@Z 080030f0 f   ad_i486.obj
 0001:00002100       ?in_RegMask@eBXRegIOper@@EBEPBVRegMask@@H@Z 08003100 f   ad_i486.obj
 0001:00002100       ?in_RegMask@eBXRegPOper@@EBEPBVRegMask@@H@Z 08003100 f   ad_i486.obj
 0001:00002110       ?in_RegMask@eCXRegIOper@@EBEPBVRegMask@@H@Z 08003110 f   ad_i486.obj
 0001:00002110       ?in_RegMask@eCXRegPOper@@EBEPBVRegMask@@H@Z 08003110 f   ad_i486.obj
 0001:00002120       ?in_RegMask@eBPRegPOper@@EBEPBVRegMask@@H@Z 08003120 f   ad_i486.obj
 0001:00002130       ?in_RegMask@eRegLOper@@EBEPBVRegMask@@H@Z 08003130 f   ad_i486.obj
 0001:00002140       ?in_RegMask@eBCXRegLOper@@EBEPBVRegMask@@H@Z 08003140 f   ad_i486.obj
 0001:00002150       ?in_RegMask@eADXRegLOper@@EBEPBVRegMask@@H@Z 08003150 f   ad_i486.obj
 0001:00002150       ?in_RegMask@eADXRegL_low_onlyOper@@EBEPBVRegMask@@H@Z 08003150 f   ad_i486.obj
 0001:00002160       ?in_RegMask@eFlagsRegOper@@EBEPBVRegMask@@H@Z 08003160 f   ad_i486.obj
 0001:00002160       ?in_RegMask@eFlagsRegUOper@@EBEPBVRegMask@@H@Z 08003160 f   ad_i486.obj
 0001:00002160       ?in_RegMask@flagsReg_long_EQNEOper@@EBEPBVRegMask@@H@Z 08003160 f   ad_i486.obj
 0001:00002160       ?in_RegMask@flagsReg_long_LTGEOper@@EBEPBVRegMask@@H@Z 08003160 f   ad_i486.obj
 0001:00002160       ?in_RegMask@flagsReg_long_LEGTOper@@EBEPBVRegMask@@H@Z 08003160 f   ad_i486.obj
 0001:00002170       ?in_RegMask@regDOper@@EBEPBVRegMask@@H@Z 08003170 f   ad_i486.obj
 0001:00002180       ?in_RegMask@regDPR1Oper@@EBEPBVRegMask@@H@Z 08003180 f   ad_i486.obj
 0001:00002190       ?in_RegMask@regDPR2Oper@@EBEPBVRegMask@@H@Z 08003190 f   ad_i486.obj
 0001:000021a0       ?in_RegMask@regXDOper@@EBEPBVRegMask@@H@Z 080031a0 f   ad_i486.obj
 0001:000021b0       ?in_RegMask@regFOper@@EBEPBVRegMask@@H@Z 080031b0 f   ad_i486.obj
 0001:000021c0       ?in_RegMask@regFPR1Oper@@EBEPBVRegMask@@H@Z 080031c0 f   ad_i486.obj
 0001:000021d0       ?in_RegMask@regXOper@@EBEPBVRegMask@@H@Z 080031d0 f   ad_i486.obj
 0001:000021e0       ?in_RegMask@load_long_RegPOper@@EBEPBVRegMask@@H@Z 080031e0 f   ad_i486.obj
 0001:000021e0       ?in_RegMask@eSIRegIOper@@EBEPBVRegMask@@H@Z 080031e0 f   ad_i486.obj
 0001:000021e0       ?in_RegMask@load_long_indOffset32Oper@@EBEPBVRegMask@@H@Z 080031e0 f   ad_i486.obj
 0001:000021e0       ?in_RegMask@eSIRegPOper@@EBEPBVRegMask@@H@Z 080031e0 f   ad_i486.obj
 0001:000021e0       ?in_RegMask@load_long_indirectOper@@EBEPBVRegMask@@H@Z 080031e0 f   ad_i486.obj
 0001:000021f0       ?in_RegMask@eRegP_win95_safeOper@@EBEPBVRegMask@@H@Z 080031f0 f   ad_i486.obj
 0001:000021f0       ?in_RegMask@indOffset8_win95_safeOper@@EBEPBVRegMask@@H@Z 080031f0 f   ad_i486.obj
 0001:000021f0       ?in_RegMask@indOffset32_win95_safeOper@@EBEPBVRegMask@@H@Z 080031f0 f   ad_i486.obj
 0001:00002200       ?in_RegMask@indIndexOffset_win95_safeOper@@EBEPBVRegMask@@H@Z 08003200 f   ad_i486.obj
 0001:00002240       ?in_RegMask@indIndexScale_win95_safeOper@@EBEPBVRegMask@@H@Z 08003240 f   ad_i486.obj
 0001:00002280       ?in_RegMask@indIndexScaleOffset_win95_safeOper@@EBEPBVRegMask@@H@Z 08003280 f   ad_i486.obj
 0001:000022c0       ?use_cisc_RegMask@storeSSLNode@@EAEXXZ 080032c0 f   ad_i486.obj
 0001:000022d0       ?cisc_version@storeSSLNode@@EAEPAVMachNode@@H@Z 080032d0 f   ad_i486.obj
 0001:000023e0       ?ideal_Opcode@jmpLoopEnd_shortNode@@EBEHXZ 080033e0 f i ad_i486.obj
 0001:000023e0       ?ideal_Opcode@jmpLoopEndU_shortNode@@EBEHXZ 080033e0 f i ad_i486.obj
 0001:000023e0       ?opcode@indOffset32Oper@@UBEIXZ 080033e0 f i ad_i486.obj
 0001:000023e0       ?ideal_Opcode@jmpLoopEndNode@@EBEHXZ 080033e0 f i ad_i486.obj
 0001:000023e0       ?ideal_Opcode@jmpLoopEndUNode@@EBEHXZ 080033e0 f i ad_i486.obj
 0001:000023f0       ?rule@loadLLockedNode@@EBEIXZ 080033f0 f i ad_i486.obj
 0001:00002400       ?ideal_Opcode@loadLLockedNode@@EBEHXZ 08003400 f i ad_i486.obj
 0001:00002410       ?cisc_version@cmovI_regNode@@EAEPAVMachNode@@H@Z 08003410 f   ad_i486.obj
 0001:00002520       ?rule@cmovI_memNode@@EBEIXZ 08003520 f i ad_i486.obj
 0001:00002530       ?opcode@eBXRegIOper@@UBEIXZ 08003530 f i ad_i486.obj
 0001:00002530       ?ideal_Opcode@cmovI_memNode@@EBEHXZ 08003530 f i ad_i486.obj
 0001:00002530       ?ideal_Opcode@cmovI_regUNode@@EBEHXZ 08003530 f i ad_i486.obj
 0001:00002530       ?ideal_Opcode@cmovI_memuNode@@EBEHXZ 08003530 f i ad_i486.obj
 0001:00002530       ?ideal_Opcode@cmovII_reg_EQNENode@@EBEHXZ 08003530 f i ad_i486.obj
 0001:00002530       ?ideal_Opcode@cmovII_mem_LTGENode@@EBEHXZ 08003530 f i ad_i486.obj
 0001:00002530       ?ideal_Opcode@cmovI_regNode@@EBEHXZ 08003530 f i ad_i486.obj
 0001:00002530       ?ideal_Opcode@cmovII_mem_LEGTNode@@EBEHXZ 08003530 f i ad_i486.obj
 0001:00002530       ?ideal_Opcode@cmovII_mem_EQNENode@@EBEHXZ 08003530 f i ad_i486.obj
 0001:00002530       ?ideal_Opcode@cmovII_reg_LEGTNode@@EBEHXZ 08003530 f i ad_i486.obj
 0001:00002530       ?ideal_Opcode@cmovII_reg_LTGENode@@EBEHXZ 08003530 f i ad_i486.obj
 0001:00002540       ?cisc_version@cmovI_regUNode@@EAEPAVMachNode@@H@Z 08003540 f   ad_i486.obj
 0001:00002650       ?rule@cmovI_memuNode@@EBEIXZ 08003650 f i ad_i486.obj
 0001:00002660       ?cisc_version@addI_eRegNode@@EAEPAVMachNode@@H@Z 08003660 f   ad_i486.obj
 0001:00002770       ?rule@addI_eReg_memNode@@EBEIXZ 08003770 f i ad_i486.obj
 0001:00002780       ?add_opcode@MulINode@@UBEHXZ 08003780 f i ad_i486.obj
 0001:00002780       ?less_equal@cmpOpOper@@UBEHXZ 08003780 f i ad_i486.obj
 0001:00002780       ?ideal_Opcode@decI_eRegNode@@EBEHXZ 08003780 f i ad_i486.obj
 0001:00002780       ?ideal_Opcode@leaI_eReg_immINode@@EBEHXZ 08003780 f i ad_i486.obj
 0001:00002780       ?greater_equal@cmpOp_commuteOper@@UBEHXZ 08003780 f i ad_i486.obj
 0001:00002780       ?ideal_Opcode@addI_eReg_immNode@@EBEHXZ 08003780 f i ad_i486.obj
 0001:00002780       ?ideal_Opcode@cadd_cmpLTMask1Node@@EBEHXZ 08003780 f i ad_i486.obj
 0001:00002780       ?ideal_Opcode@addI_eReg_memNode@@EBEHXZ 08003780 f i ad_i486.obj
 0001:00002780       ?ideal_Opcode@addI_eRegNode@@EBEHXZ 08003780 f i ad_i486.obj
 0001:00002780       ?ideal_Opcode@cadd_cmpLTMask2Node@@EBEHXZ 08003780 f i ad_i486.obj
 0001:00002780       ?opcode@immI2Oper@@UBEIXZ  08003780 f i ad_i486.obj
 0001:00002780       ?ideal_Opcode@incI_eRegNode@@EBEHXZ 08003780 f i ad_i486.obj
 0001:00002790       ?two_adr@divX_regNode@@EBEIXZ 08003790 f i ad_i486.obj
 0001:00002790       ?two_adr@subL_eRegNode@@EBEIXZ 08003790 f i ad_i486.obj
 0001:00002790       ?two_adr@addL_eReg_memNode@@EBEIXZ 08003790 f i ad_i486.obj
 0001:00002790       ?two_adr@subXD_immNode@@EBEIXZ 08003790 f i ad_i486.obj
 0001:00002790       ?two_adr@xorl_eReg_memNode@@EBEIXZ 08003790 f i ad_i486.obj
 0001:00002790       ?two_adr@xorI_eReg_memNode@@EBEIXZ 08003790 f i ad_i486.obj
 0001:00002790       ?two_adr@subI_eRegNode@@EBEIXZ 08003790 f i ad_i486.obj
 0001:00002790       ?two_adr@mulXD_memNode@@EBEIXZ 08003790 f i ad_i486.obj
 0001:00002790       ?two_adr@negXD_regNode@@EBEIXZ 08003790 f i ad_i486.obj
 0001:00002790       ?two_adr@castPPNode@@EBEIXZ 08003790 f i ad_i486.obj
 0001:00002790       ?two_adr@addI_eRegNode@@EBEIXZ 08003790 f i ad_i486.obj
 0001:00002790       ?two_adr@cp2bNode@@EBEIXZ  08003790 f i ad_i486.obj
 0001:00002790       ?two_adr@sarL_eReg_1_31Node@@EBEIXZ 08003790 f i ad_i486.obj
 0001:00002790       ?two_adr@divI_eRegNode@@EBEIXZ 08003790 f i ad_i486.obj
 0001:00002790       ?two_adr@shrI_eReg_immNode@@EBEIXZ 08003790 f i ad_i486.obj
 0001:00002790       ?two_adr@subL_eReg_memNode@@EBEIXZ 08003790 f i ad_i486.obj
 0001:00002790       ?two_adr@xorl_eReg_immNode@@EBEIXZ 08003790 f i ad_i486.obj
 0001:00002790       ?two_adr@subI_eReg_immNode@@EBEIXZ 08003790 f i ad_i486.obj
 0001:00002790       ?two_adr@minI_eRegNode@@EBEIXZ 08003790 f i ad_i486.obj
 0001:00002790       ?two_adr@mulXD_immNode@@EBEIXZ 08003790 f i ad_i486.obj
 0001:00002790       ?two_adr@maxI_eRegNode@@EBEIXZ 08003790 f i ad_i486.obj
 0001:00002790       ?two_adr@addD_reg_immNode@@EBEIXZ 08003790 f i ad_i486.obj
 0001:00002790       ?two_adr@sarL_eReg_CLNode@@EBEIXZ 08003790 f i ad_i486.obj
 0001:00002790       ?two_adr@orl_eRegNode@@EBEIXZ 08003790 f i ad_i486.obj
 0001:00002790       ?two_adr@addL_eRegNode@@EBEIXZ 08003790 f i ad_i486.obj
 0001:00002790       ?two_adr@divXD_regNode@@EBEIXZ 08003790 f i ad_i486.obj
 0001:00002790       ?two_adr@addX_memNode@@EBEIXZ 08003790 f i ad_i486.obj
 0001:00002790       ?two_adr@mulI_eRegNode@@EBEIXZ 08003790 f i ad_i486.obj
 0001:00002790       ?two_adr@divXD_memNode@@EBEIXZ 08003790 f i ad_i486.obj
 0001:00002790       ?two_adr@mulX_memNode@@EBEIXZ 08003790 f i ad_i486.obj
 0001:00002790       ?two_adr@mulD_reg_immNode@@EBEIXZ 08003790 f i ad_i486.obj
 0001:00002790       ?two_adr@mulX_regNode@@EBEIXZ 08003790 f i ad_i486.obj
 0001:00002790       ?two_adr@ci2bNode@@EBEIXZ  08003790 f i ad_i486.obj
 0001:00002790       ?two_adr@addF_reg_memNode@@EBEIXZ 08003790 f i ad_i486.obj
 0001:00002790       ?two_adr@mulXD_regNode@@EBEIXZ 08003790 f i ad_i486.obj
 0001:00002790       ?two_adr@subXD_memNode@@EBEIXZ 08003790 f i ad_i486.obj
 0001:00002790       ?two_adr@andI_eReg_memNode@@EBEIXZ 08003790 f i ad_i486.obj
 0001:00002790       ?two_adr@sarL_eReg_32_63Node@@EBEIXZ 08003790 f i ad_i486.obj
 0001:00002790       ?two_adr@subX_immNode@@EBEIXZ 08003790 f i ad_i486.obj
 0001:00002790       ?two_adr@mulD_regNode@@EBEIXZ 08003790 f i ad_i486.obj
 0001:00002790       ?two_adr@shrL_eReg_32_63Node@@EBEIXZ 08003790 f i ad_i486.obj
 0001:00002790       ?two_adr@subL_eReg_immNode@@EBEIXZ 08003790 f i ad_i486.obj
 0001:00002790       ?two_adr@subX_regNode@@EBEIXZ 08003790 f i ad_i486.obj
 0001:00002790       ?two_adr@subF_regNode@@EBEIXZ 08003790 f i ad_i486.obj
 0001:00002790       ?two_adr@orI_eRegNode@@EBEIXZ 08003790 f i ad_i486.obj
 0001:00002790       ?two_adr@addD_reg_memNode@@EBEIXZ 08003790 f i ad_i486.obj
 0001:00002790       ?two_adr@andI_eReg_immNode@@EBEIXZ 08003790 f i ad_i486.obj
 0001:00002790       ?two_adr@andI_eRegNode@@EBEIXZ 08003790 f i ad_i486.obj
 0001:00002790       ?two_adr@orl_eReg_memNode@@EBEIXZ 08003790 f i ad_i486.obj
 0001:00002790       ?two_adr@addXD_immNode@@EBEIXZ 08003790 f i ad_i486.obj
 0001:00002790       ?two_adr@atanD_regNode@@EBEIXZ 08003790 f i ad_i486.obj
 0001:00002790       ?two_adr@orl_eReg_immNode@@EBEIXZ 08003790 f i ad_i486.obj
 0001:00002790       ?two_adr@cmpLTMask0Node@@EBEIXZ 08003790 f i ad_i486.obj
 0001:00002790       ?two_adr@incI_eRegNode@@EBEIXZ 08003790 f i ad_i486.obj
 0001:00002790       ?two_adr@sarI_eReg_CLNode@@EBEIXZ 08003790 f i ad_i486.obj
 0001:00002790       ?two_adr@sarI_eReg_1Node@@EBEIXZ 08003790 f i ad_i486.obj
 0001:00002790       ?two_adr@addXD_memNode@@EBEIXZ 08003790 f i ad_i486.obj
 0001:00002790       ?two_adr@orI_eReg_memNode@@EBEIXZ 08003790 f i ad_i486.obj
 0001:00002790       ?two_adr@absXD_regNode@@EBEIXZ 08003790 f i ad_i486.obj
 0001:00002790       ?two_adr@subD_regNode@@EBEIXZ 08003790 f i ad_i486.obj
 0001:00002790       ?two_adr@shlL_eReg_1_31Node@@EBEIXZ 08003790 f i ad_i486.obj
 0001:00002790       ?two_adr@strictfp_divD_regNode@@EBEIXZ 08003790 f i ad_i486.obj
 0001:00002790       ?two_adr@decI_eRegNode@@EBEIXZ 08003790 f i ad_i486.obj
 0001:00002790       ?two_adr@divF_regNode@@EBEIXZ 08003790 f i ad_i486.obj
 0001:00002790       ?two_adr@shrI_eReg_CLNode@@EBEIXZ 08003790 f i ad_i486.obj
 0001:00002790       ?two_adr@modD_regNode@@EBEIXZ 08003790 f i ad_i486.obj
 0001:00002790       ?two_adr@addL_eReg_immNode@@EBEIXZ 08003790 f i ad_i486.obj
 0001:00002790       ?two_adr@salL_eReg_CLNode@@EBEIXZ 08003790 f i ad_i486.obj
 0001:00002790       ?two_adr@divX_memNode@@EBEIXZ 08003790 f i ad_i486.obj
 0001:00002790       ?two_adr@addX_immNode@@EBEIXZ 08003790 f i ad_i486.obj
 0001:00002790       ?two_adr@shrI_eReg_1Node@@EBEIXZ 08003790 f i ad_i486.obj
 0001:00002790       ?two_adr@shrL_eReg_CLNode@@EBEIXZ 08003790 f i ad_i486.obj
 0001:00002790       ?two_adr@addD_regNode@@EBEIXZ 08003790 f i ad_i486.obj
 0001:00002790       ?two_adr@checkCastPPNode@@EBEIXZ 08003790 f i ad_i486.obj
 0001:00002790       ?two_adr@mulL_eRegNode@@EBEIXZ 08003790 f i ad_i486.obj
 0001:00002790       ?two_adr@strictfp_mulD_regNode@@EBEIXZ 08003790 f i ad_i486.obj
 0001:00002790       ?two_adr@subX_memNode@@EBEIXZ 08003790 f i ad_i486.obj
 0001:00002790       ?two_adr@divD_regNode@@EBEIXZ 08003790 f i ad_i486.obj
 0001:00002790       ?two_adr@addP_eReg_immNode@@EBEIXZ 08003790 f i ad_i486.obj
 0001:00002790       ?two_adr@andL_eReg_immNode@@EBEIXZ 08003790 f i ad_i486.obj
 0001:00002790       ?two_adr@mulL_eReg_conNode@@EBEIXZ 08003790 f i ad_i486.obj
 0001:00002790       ?two_adr@modF_regNode@@EBEIXZ 08003790 f i ad_i486.obj
 0001:00002790       ?two_adr@powD_regNode@@EBEIXZ 08003790 f i ad_i486.obj
 0001:00002790       ?two_adr@addD_reg_imm1Node@@EBEIXZ 08003790 f i ad_i486.obj
 0001:00002790       ?two_adr@mulX_immNode@@EBEIXZ 08003790 f i ad_i486.obj
 0001:00002790       ?two_adr@sarI_eReg_immNode@@EBEIXZ 08003790 f i ad_i486.obj
 0001:00002790       ?two_adr@addP_eRegNode@@EBEIXZ 08003790 f i ad_i486.obj
 0001:00002790       ?two_adr@xorl_eRegNode@@EBEIXZ 08003790 f i ad_i486.obj
 0001:00002790       ?two_adr@cadd_cmpLTMask1Node@@EBEIXZ 08003790 f i ad_i486.obj
 0001:00002790       ?two_adr@shrL_eReg_1_31Node@@EBEIXZ 08003790 f i ad_i486.obj
 0001:00002790       ?two_adr@cadd_cmpLTMask2Node@@EBEIXZ 08003790 f i ad_i486.obj
 0001:00002790       ?two_adr@salI_eReg_immNode@@EBEIXZ 08003790 f i ad_i486.obj
 0001:00002790       ?two_adr@shlL_eReg_32_63Node@@EBEIXZ 08003790 f i ad_i486.obj
 0001:00002790       ?two_adr@absX_regNode@@EBEIXZ 08003790 f i ad_i486.obj
 0001:00002790       ?two_adr@addXD_regNode@@EBEIXZ 08003790 f i ad_i486.obj
 0001:00002790       ?two_adr@subP_eRegNode@@EBEIXZ 08003790 f i ad_i486.obj
 0001:00002790       ?two_adr@addI_eReg_immNode@@EBEIXZ 08003790 f i ad_i486.obj
 0001:00002790       ?two_adr@addF_regNode@@EBEIXZ 08003790 f i ad_i486.obj
 0001:00002790       ?two_adr@divXD_immNode@@EBEIXZ 08003790 f i ad_i486.obj
 0001:00002790       ?two_adr@subXD_regNode@@EBEIXZ 08003790 f i ad_i486.obj
 0001:00002790       ?two_adr@andL_eRegNode@@EBEIXZ 08003790 f i ad_i486.obj
 0001:00002790       ?two_adr@orI_eReg_immNode@@EBEIXZ 08003790 f i ad_i486.obj
 0001:00002790       ?two_adr@divX_immNode@@EBEIXZ 08003790 f i ad_i486.obj
 0001:00002790       ?two_adr@andL_eReg_memNode@@EBEIXZ 08003790 f i ad_i486.obj
 0001:00002790       ?two_adr@xorI_eRegNode@@EBEIXZ 08003790 f i ad_i486.obj
 0001:00002790       ?two_adr@mulINode@@EBEIXZ  08003790 f i ad_i486.obj
 0001:00002790       ?two_adr@addX_regNode@@EBEIXZ 08003790 f i ad_i486.obj
 0001:00002790       ?two_adr@mulD_reg_memNode@@EBEIXZ 08003790 f i ad_i486.obj
 0001:00002790       ?two_adr@xorI_eReg_immNode@@EBEIXZ 08003790 f i ad_i486.obj
 0001:00002790       ?two_adr@subD_reg_memNode@@EBEIXZ 08003790 f i ad_i486.obj
 0001:00002790       ?two_adr@negX_regNode@@EBEIXZ 08003790 f i ad_i486.obj
 0001:00002790       ?two_adr@subI_eReg_memNode@@EBEIXZ 08003790 f i ad_i486.obj
 0001:00002790       ?two_adr@salI_eReg_CLNode@@EBEIXZ 08003790 f i ad_i486.obj
 0001:00002790       ?two_adr@shlI_eReg_1Node@@EBEIXZ 08003790 f i ad_i486.obj
 0001:00002790       ?two_adr@atanXD_regNode@@EBEIXZ 08003790 f i ad_i486.obj
 0001:00002790       ?two_adr@addI_eReg_memNode@@EBEIXZ 08003790 f i ad_i486.obj
 0001:000027a0       ?cisc_version@subI_eRegNode@@EAEPAVMachNode@@H@Z 080037a0 f   ad_i486.obj
 0001:000028b0       ?rule@subI_eReg_memNode@@EBEIXZ 080038b0 f i ad_i486.obj
 0001:000028c0       ?ideal_Opcode@subI_eReg_memNode@@EBEHXZ 080038c0 f i ad_i486.obj
 0001:000028c0       ?ideal_Opcode@subI_eRegNode@@EBEHXZ 080038c0 f i ad_i486.obj
 0001:000028c0       ?ideal_Opcode@negI_eRegNode@@EBEHXZ 080038c0 f i ad_i486.obj
 0001:000028c0       ?ideal_Opcode@subI_eReg_immNode@@EBEHXZ 080038c0 f i ad_i486.obj
 0001:000028d0       ?cisc_version@mulI_eRegNode@@EAEPAVMachNode@@H@Z 080038d0 f   ad_i486.obj
 0001:000029e0       ?rule@mulINode@@EBEIXZ     080039e0 f i ad_i486.obj
 0001:000029f0       ?ideal_Opcode@mulI_eRegNode@@EBEHXZ 080039f0 f i ad_i486.obj
 0001:000029f0       ?ideal_Opcode@mulINode@@EBEHXZ 080039f0 f i ad_i486.obj
 0001:000029f0       ?ideal_Opcode@mulI_mem_immNode@@EBEHXZ 080039f0 f i ad_i486.obj
 0001:000029f0       ?mul_opcode@MulINode@@UBEHXZ 080039f0 f i ad_i486.obj
 0001:000029f0       ?ideal_Opcode@mulI_eReg_immNode@@EBEHXZ 080039f0 f i ad_i486.obj
 0001:00002a00       ?use_cisc_RegMask@compU_eRegNode@@EAEXXZ 08003a00 f   ad_i486.obj
 0001:00002a00       ?use_cisc_RegMask@mulI_eReg_immNode@@EAEXXZ 08003a00 f   ad_i486.obj
 0001:00002a00       ?use_cisc_RegMask@compP_eRegNode@@EAEXXZ 08003a00 f   ad_i486.obj
 0001:00002a00       ?use_cisc_RegMask@orI_eRegNode@@EAEXXZ 08003a00 f   ad_i486.obj
 0001:00002a00       ?use_cisc_RegMask@andI_eRegNode@@EAEXXZ 08003a00 f   ad_i486.obj
 0001:00002a00       ?use_cisc_RegMask@subI_eRegNode@@EAEXXZ 08003a00 f   ad_i486.obj
 0001:00002a00       ?use_cisc_RegMask@xorI_eRegNode@@EAEXXZ 08003a00 f   ad_i486.obj
 0001:00002a00       ?use_cisc_RegMask@compI_eRegNode@@EAEXXZ 08003a00 f   ad_i486.obj
 0001:00002a00       ?use_cisc_RegMask@mulI_eRegNode@@EAEXXZ 08003a00 f   ad_i486.obj
 0001:00002a00       ?use_cisc_RegMask@addI_eRegNode@@EAEXXZ 08003a00 f   ad_i486.obj
 0001:00002a10       ?cisc_version@mulI_eReg_immNode@@EAEPAVMachNode@@H@Z 08003a10 f   ad_i486.obj
 0001:00002b20       ?rule@mulI_mem_immNode@@EBEIXZ 08003b20 f i ad_i486.obj
 0001:00002b30       ?cisc_version@andI_eRegNode@@EAEPAVMachNode@@H@Z 08003b30 f   ad_i486.obj
 0001:00002c40       ?rule@andI_eReg_memNode@@EBEIXZ 08003c40 f i ad_i486.obj
 0001:00002c50       ?ideal_Opcode@andI_eReg_immNode@@EBEHXZ 08003c50 f i ad_i486.obj
 0001:00002c50       ?mul_opcode@AndINode@@UBEHXZ 08003c50 f i ad_i486.obj
 0001:00002c50       ?opcode@immI_32Oper@@UBEIXZ 08003c50 f i ad_i486.obj
 0001:00002c50       ?ideal_Opcode@loadUBNode@@EBEHXZ 08003c50 f i ad_i486.obj
 0001:00002c50       ?ideal_Opcode@andI_eRegNode@@EBEHXZ 08003c50 f i ad_i486.obj
 0001:00002c50       ?ideal_Opcode@andI_eReg_memNode@@EBEHXZ 08003c50 f i ad_i486.obj
 0001:00002c60       ?cisc_version@orI_eRegNode@@EAEPAVMachNode@@H@Z 08003c60 f   ad_i486.obj
 0001:00002d70       ?rule@orI_eReg_memNode@@EBEIXZ 08003d70 f i ad_i486.obj
 0001:00002d80       ?ideal_Opcode@orI_eReg_immNode@@EBEHXZ 08003d80 f i ad_i486.obj
 0001:00002d80       ?add_opcode@AndINode@@UBEHXZ 08003d80 f i ad_i486.obj
 0001:00002d80       ?ideal_Opcode@orI_eReg_memNode@@EBEHXZ 08003d80 f i ad_i486.obj
 0001:00002d80       ?ideal_Opcode@orI_eRegNode@@EBEHXZ 08003d80 f i ad_i486.obj
 0001:00002d90       ?cisc_version@xorI_eRegNode@@EAEPAVMachNode@@H@Z 08003d90 f   ad_i486.obj
 0001:00002ea0       ?rule@xorI_eReg_memNode@@EBEIXZ 08003ea0 f i ad_i486.obj
 0001:00002eb0       ?ideal_Opcode@xorI_eRegNode@@EBEHXZ 08003eb0 f i ad_i486.obj
 0001:00002eb0       ?ideal_Opcode@xorI_eReg_memNode@@EBEHXZ 08003eb0 f i ad_i486.obj
 0001:00002eb0       ?ideal_Opcode@xorI_eReg_immNode@@EBEHXZ 08003eb0 f i ad_i486.obj
 0001:00002eb0       ?rule@leaP32Node@@EBEIXZ   08003eb0 f i ad_i486.obj
 0001:00002ec0       ?cisc_version@addL_eRegNode@@EAEPAVMachNode@@H@Z 08003ec0 f   ad_i486.obj
 0001:00002fd0       ?rule@addL_eReg_memNode@@EBEIXZ 08003fd0 f i ad_i486.obj
 0001:00002fe0       ?less@cmpOp_commuteOper@@UBEHXZ 08003fe0 f i ad_i486.obj
 0001:00002fe0       ?add_opcode@MulLNode@@UBEHXZ 08003fe0 f i ad_i486.obj
 0001:00002fe0       ?ideal_Opcode@addL_eReg_memNode@@EBEHXZ 08003fe0 f i ad_i486.obj
 0001:00002fe0       ?ideal_Opcode@addL_eReg_immNode@@EBEHXZ 08003fe0 f i ad_i486.obj
 0001:00002fe0       ?opcode@immI8Oper@@UBEIXZ  08003fe0 f i ad_i486.obj
 0001:00002fe0       ?ideal_Opcode@addL_eRegNode@@EBEHXZ 08003fe0 f i ad_i486.obj
 0001:00002fe0       ?greater@cmpOpOper@@UBEHXZ 08003fe0 f i ad_i486.obj
 0001:00002ff0       ?cisc_version@subL_eRegNode@@EAEPAVMachNode@@H@Z 08003ff0 f   ad_i486.obj
 0001:00003100       ?rule@subL_eReg_memNode@@EBEIXZ 08004100 f i ad_i486.obj
 0001:00003110       ?ideal_Opcode@negL_eRegNode@@EBEHXZ 08004110 f i ad_i486.obj
 0001:00003110       ?ideal_Opcode@subL_eReg_memNode@@EBEHXZ 08004110 f i ad_i486.obj
 0001:00003110       ?ideal_Opcode@subL_eReg_immNode@@EBEHXZ 08004110 f i ad_i486.obj
 0001:00003110       ?ideal_Opcode@subL_eRegNode@@EBEHXZ 08004110 f i ad_i486.obj
 0001:00003120       ?cisc_version@andL_eRegNode@@EAEPAVMachNode@@H@Z 08004120 f   ad_i486.obj
 0001:00003230       ?rule@andL_eReg_memNode@@EBEIXZ 08004230 f i ad_i486.obj
 0001:00003240       ?ideal_Opcode@andL_eReg_memNode@@EBEHXZ 08004240 f i ad_i486.obj
 0001:00003240       ?ideal_Opcode@andL_eReg_immNode@@EBEHXZ 08004240 f i ad_i486.obj
 0001:00003240       ?opcode@immI10Oper@@UBEIXZ 08004240 f i ad_i486.obj
 0001:00003240       ?ideal_Opcode@convI2L_reg_zexNode@@EBEHXZ 08004240 f i ad_i486.obj
 0001:00003240       ?ideal_Opcode@zerox_longNode@@EBEHXZ 08004240 f i ad_i486.obj
 0001:00003240       ?mul_opcode@AndLNode@@UBEHXZ 08004240 f i ad_i486.obj
 0001:00003240       ?ideal_Opcode@andL_eRegNode@@EBEHXZ 08004240 f i ad_i486.obj
 0001:00003250       ?use_cisc_RegMask@xorl_eRegNode@@EAEXXZ 08004250 f   ad_i486.obj
 0001:00003250       ?use_cisc_RegMask@orl_eRegNode@@EAEXXZ 08004250 f   ad_i486.obj
 0001:00003250       ?use_cisc_RegMask@andL_eRegNode@@EAEXXZ 08004250 f   ad_i486.obj
 0001:00003250       ?use_cisc_RegMask@addL_eRegNode@@EAEXXZ 08004250 f   ad_i486.obj
 0001:00003250       ?use_cisc_RegMask@subL_eRegNode@@EAEXXZ 08004250 f   ad_i486.obj
 0001:00003260       ?cisc_version@orl_eRegNode@@EAEPAVMachNode@@H@Z 08004260 f   ad_i486.obj
 0001:00003370       ?rule@orl_eReg_memNode@@EBEIXZ 08004370 f i ad_i486.obj
 0001:00003380       ?add_opcode@AndLNode@@UBEHXZ 08004380 f i ad_i486.obj
 0001:00003380       ?ideal_Opcode@orl_eRegNode@@EBEHXZ 08004380 f i ad_i486.obj
 0001:00003380       ?ideal_Opcode@orl_eReg_immNode@@EBEHXZ 08004380 f i ad_i486.obj
 0001:00003380       ?ideal_Opcode@orl_eReg_memNode@@EBEHXZ 08004380 f i ad_i486.obj
 0001:00003390       ?cisc_version@xorl_eRegNode@@EAEPAVMachNode@@H@Z 08004390 f   ad_i486.obj
 0001:000034a0       ?rule@xorl_eReg_memNode@@EBEIXZ 080044a0 f i ad_i486.obj
 0001:000034b0       ?ideal_Opcode@xorl_eRegNode@@EBEHXZ 080044b0 f i ad_i486.obj
 0001:000034b0       ?rule@leaPIdxOffNode@@EBEIXZ 080044b0 f i ad_i486.obj
 0001:000034b0       ?ideal_Opcode@xorl_eReg_memNode@@EBEHXZ 080044b0 f i ad_i486.obj
 0001:000034b0       ?ideal_Opcode@xorl_eReg_immNode@@EBEHXZ 080044b0 f i ad_i486.obj
 0001:000034c0       ?use_cisc_RegMask@addXD_regNode@@EAEXXZ 080044c0 f   ad_i486.obj
 0001:000034c0       ?use_cisc_RegMask@cmpXD_regNode@@EAEXXZ 080044c0 f   ad_i486.obj
 0001:000034c0       ?use_cisc_RegMask@cmpXD_ccNode@@EAEXXZ 080044c0 f   ad_i486.obj
 0001:000034c0       ?use_cisc_RegMask@divXD_regNode@@EAEXXZ 080044c0 f   ad_i486.obj
 0001:000034c0       ?use_cisc_RegMask@mulXD_regNode@@EAEXXZ 080044c0 f   ad_i486.obj
 0001:000034c0       ?use_cisc_RegMask@subXD_regNode@@EAEXXZ 080044c0 f   ad_i486.obj
 0001:000034d0       ?cisc_version@cmpXD_ccNode@@EAEPAVMachNode@@H@Z 080044d0 f   ad_i486.obj
 0001:000035e0       ?rule@cmpXD_ccmemNode@@EBEIXZ 080045e0 f i ad_i486.obj
 0001:000035f0       ?ideal_Opcode@cmpXD_ccNode@@EBEHXZ 080045f0 f i ad_i486.obj
 0001:000035f0       ?ideal_Opcode@cmpXD_ccmemNode@@EBEHXZ 080045f0 f i ad_i486.obj
 0001:000035f0       ?ideal_Opcode@cmpD_cc_P6Node@@EBEHXZ 080045f0 f i ad_i486.obj
 0001:000035f0       ?opcode@eDIRegIOper@@UBEIXZ 080045f0 f i ad_i486.obj
 0001:000035f0       ?ideal_Opcode@cmpD_ccNode@@EBEHXZ 080045f0 f i ad_i486.obj
 0001:00003600       ?cisc_version@cmpXD_regNode@@EAEPAVMachNode@@H@Z 08004600 f   ad_i486.obj
 0001:00003710       ?rule@cmpXD_regmemNode@@EBEIXZ 08004710 f i ad_i486.obj
 0001:00003720       ?opcode@naxRegIOper@@UBEIXZ 08004720 f i ad_i486.obj
 0001:00003720       ?ideal_Opcode@cmpD_regNode@@EBEHXZ 08004720 f i ad_i486.obj
 0001:00003720       ?ideal_Opcode@cmpXD_regmemNode@@EBEHXZ 08004720 f i ad_i486.obj
 0001:00003720       ?ideal_Opcode@cmpD_0Node@@EBEHXZ 08004720 f i ad_i486.obj
 0001:00003720       ?ideal_Opcode@cmpXD_regNode@@EBEHXZ 08004720 f i ad_i486.obj
 0001:00003730       ?use_cisc_RegMask@subD_regNode@@EAEXXZ 08004730 f   ad_i486.obj
 0001:00003730       ?use_cisc_RegMask@addD_regNode@@EAEXXZ 08004730 f   ad_i486.obj
 0001:00003740       ?cisc_version@subD_regNode@@EAEPAVMachNode@@H@Z 08004740 f   ad_i486.obj
 0001:00003850       ?rule@subD_reg_memNode@@EBEIXZ 08004850 f i ad_i486.obj
 0001:00003860       ?ideal_Opcode@subD_reg_memNode@@EBEHXZ 08004860 f i ad_i486.obj
 0001:00003860       ?ideal_Opcode@subXD_memNode@@EBEHXZ 08004860 f i ad_i486.obj
 0001:00003860       ?ideal_Opcode@subXD_immNode@@EBEHXZ 08004860 f i ad_i486.obj
 0001:00003860       ?ideal_Opcode@subXD_regNode@@EBEHXZ 08004860 f i ad_i486.obj
 0001:00003860       ?ideal_Opcode@subD_regNode@@EBEHXZ 08004860 f i ad_i486.obj
 0001:00003860       ?ideal_Opcode@subD_mulD_regNode@@EBEHXZ 08004860 f i ad_i486.obj
 0001:00003870       ?cisc_version@addD_regNode@@EAEPAVMachNode@@H@Z 08004870 f   ad_i486.obj
 0001:00003980       ?rule@addD_reg_memNode@@EBEIXZ 08004980 f i ad_i486.obj
 0001:00003990       ?greater@cmpOp_commuteOper@@UBEHXZ 08004990 f i ad_i486.obj
 0001:00003990       ?add_opcode@MulDNode@@UBEHXZ 08004990 f i ad_i486.obj
 0001:00003990       ?ideal_Opcode@addXD_regNode@@EBEHXZ 08004990 f i ad_i486.obj
 0001:00003990       ?ideal_Opcode@addD_reg_immNode@@EBEHXZ 08004990 f i ad_i486.obj
 0001:00003990       ?ideal_Opcode@addXD_immNode@@EBEHXZ 08004990 f i ad_i486.obj
 0001:00003990       ?ideal_Opcode@addD_reg_memNode@@EBEHXZ 08004990 f i ad_i486.obj
 0001:00003990       ?type@jsr_ret_Relocation@@EAE?AW4relocType@relocInfo@@XZ 08004990 f i ad_i486.obj
 0001:00003990       ?less@cmpOpOper@@UBEHXZ    08004990 f i ad_i486.obj
 0001:00003990       ?ideal_Opcode@addD_reg_imm1Node@@EBEHXZ 08004990 f i ad_i486.obj
 0001:00003990       ?opcode@immI1Oper@@UBEIXZ  08004990 f i ad_i486.obj
 0001:00003990       ?ideal_Opcode@addD_mulD_regNode@@EBEHXZ 08004990 f i ad_i486.obj
 0001:00003990       ?ideal_Opcode@addXD_memNode@@EBEHXZ 08004990 f i ad_i486.obj
 0001:00003990       ?ideal_Opcode@addD_regNode@@EBEHXZ 08004990 f i ad_i486.obj
 0001:000039a0       ?cisc_version@addXD_regNode@@EAEPAVMachNode@@H@Z 080049a0 f   ad_i486.obj
 0001:00003ab0       ?rule@addXD_memNode@@EBEIXZ 08004ab0 f i ad_i486.obj
 0001:00003ac0       ?cisc_version@subXD_regNode@@EAEPAVMachNode@@H@Z 08004ac0 f   ad_i486.obj
 0001:00003bd0       ?rule@subXD_memNode@@EBEIXZ 08004bd0 f i ad_i486.obj
 0001:00003be0       ?cisc_version@mulXD_regNode@@EAEPAVMachNode@@H@Z 08004be0 f   ad_i486.obj
 0001:00003cf0       ?rule@mulXD_memNode@@EBEIXZ 08004cf0 f i ad_i486.obj
 0001:00003d00       ?ideal_Opcode@mulXD_memNode@@EBEHXZ 08004d00 f i ad_i486.obj
 0001:00003d00       ?mul_opcode@MulDNode@@UBEHXZ 08004d00 f i ad_i486.obj
 0001:00003d00       ?ideal_Opcode@mulD_reg_immNode@@EBEHXZ 08004d00 f i ad_i486.obj
 0001:00003d00       ?ideal_Opcode@mulD_reg_mem_ciscNode@@EBEHXZ 08004d00 f i ad_i486.obj
 0001:00003d00       ?ideal_Opcode@mulD_regNode@@EBEHXZ 08004d00 f i ad_i486.obj
 0001:00003d00       ?ideal_Opcode@mulXD_immNode@@EBEHXZ 08004d00 f i ad_i486.obj
 0001:00003d00       ?ideal_Opcode@strictfp_mulD_regNode@@EBEHXZ 08004d00 f i ad_i486.obj
 0001:00003d00       ?ideal_Opcode@mulD_reg_memNode@@EBEHXZ 08004d00 f i ad_i486.obj
 0001:00003d00       ?ideal_Opcode@mulXD_regNode@@EBEHXZ 08004d00 f i ad_i486.obj
 0001:00003d10       ?cisc_version@divXD_regNode@@EAEPAVMachNode@@H@Z 08004d10 f   ad_i486.obj
 0001:00003e20       ?rule@divXD_memNode@@EBEIXZ 08004e20 f i ad_i486.obj
 0001:00003e30       ?opcode@indIndexOffsetOper@@UBEIXZ 08004e30 f i ad_i486.obj
 0001:00003e30       ?ideal_Opcode@divXD_memNode@@EBEHXZ 08004e30 f i ad_i486.obj
 0001:00003e30       ?ideal_Opcode@strictfp_divD_regNode@@EBEHXZ 08004e30 f i ad_i486.obj
 0001:00003e30       ?ideal_Opcode@divXD_immNode@@EBEHXZ 08004e30 f i ad_i486.obj
 0001:00003e30       ?ideal_Opcode@divXD_regNode@@EBEHXZ 08004e30 f i ad_i486.obj
 0001:00003e30       ?ideal_Opcode@divD_regNode@@EBEHXZ 08004e30 f i ad_i486.obj
 0001:00003e40       ?cisc_version@cmpX_ccNode@@EAEPAVMachNode@@H@Z 08004e40 f   ad_i486.obj
 0001:00003f50       ?rule@cmpX_ccmemNode@@EBEIXZ 08004f50 f i ad_i486.obj
 0001:00003f60       ?cisc_version@cmpX_regNode@@EAEPAVMachNode@@H@Z 08004f60 f   ad_i486.obj
 0001:00004070       ?rule@cmpX_regmemNode@@EBEIXZ 08005070 f i ad_i486.obj
 0001:00004080       ?opcode@ncxRegIOper@@UBEIXZ 08005080 f i ad_i486.obj
 0001:00004080       ?ideal_Opcode@cmpX_regNode@@EBEHXZ 08005080 f i ad_i486.obj
 0001:00004080       ?ideal_Opcode@cmpF_regNode@@EBEHXZ 08005080 f i ad_i486.obj

 0001:00004080       ?ideal_Opcode@cmpF_0Node@@EBEHXZ 08005080 f i ad_i486.obj
 0001:00004080       ?ideal_Opcode@cmpX_regmemNode@@EBEHXZ 08005080 f i ad_i486.obj
 0001:00004090       ?cisc_version@addF24_regNode@@EAEPAVMachNode@@H@Z 08005090 f   ad_i486.obj
 0001:000041b0       ?rule@addF24_reg_memNode@@EBEIXZ 080051b0 f i ad_i486.obj
 0001:000041c0       ?ideal_Opcode@addF24_reg_immNode@@EBEHXZ 080051c0 f i ad_i486.obj
 0001:000041c0       ?ideal_Opcode@addF24_mem_ciscNode@@EBEHXZ 080051c0 f i ad_i486.obj
 0001:000041c0       ?opcode@immI_M1Oper@@UBEIXZ 080051c0 f i ad_i486.obj
 0001:000041c0       ?ideal_Opcode@addF24_reg_memNode@@EBEHXZ 080051c0 f i ad_i486.obj
 0001:000041c0       ?ideal_Opcode@addF_regNode@@EBEHXZ 080051c0 f i ad_i486.obj
 0001:000041c0       ?ideal_Opcode@addF24_mem_regNode@@EBEHXZ 080051c0 f i ad_i486.obj
 0001:000041c0       ?type@breakpoint_Relocation@@EAE?AW4relocType@relocInfo@@XZ 080051c0 f i ad_i486.obj
 0001:000041c0       ?ideal_Opcode@addF24_regNode@@EBEHXZ 080051c0 f i ad_i486.obj
 0001:000041c0       ?add_opcode@MulFNode@@UBEHXZ 080051c0 f i ad_i486.obj
 0001:000041c0       ?ideal_Opcode@addX_memNode@@EBEHXZ 080051c0 f i ad_i486.obj
 0001:000041c0       ?ideal_Opcode@addF_reg_memNode@@EBEHXZ 080051c0 f i ad_i486.obj
 0001:000041c0       ?ideal_Opcode@addX_immNode@@EBEHXZ 080051c0 f i ad_i486.obj
 0001:000041c0       ?less_equal@cmpOp_commuteOper@@UBEHXZ 080051c0 f i ad_i486.obj
 0001:000041c0       ?ideal_Opcode@addF24_mem_memNode@@EBEHXZ 080051c0 f i ad_i486.obj
 0001:000041c0       ?ideal_Opcode@addF_reg_immNode@@EBEHXZ 080051c0 f i ad_i486.obj
 0001:000041c0       ?greater_equal@cmpOpOper@@UBEHXZ 080051c0 f i ad_i486.obj
 0001:000041c0       ?ideal_Opcode@addF_mulF_reg_load1Node@@EBEHXZ 080051c0 f i ad_i486.obj
 0001:000041c0       ?ideal_Opcode@addX_regNode@@EBEHXZ 080051c0 f i ad_i486.obj
 0001:000041c0       ?ideal_Opcode@addF_mulF_regNode@@EBEHXZ 080051c0 f i ad_i486.obj
 0001:000041d0       ?cisc_version@addF_regNode@@EAEPAVMachNode@@H@Z 080051d0 f   ad_i486.obj
 0001:000042e0       ?rule@addF_reg_memNode@@EBEIXZ 080052e0 f i ad_i486.obj
 0001:000042f0       ?cisc_version@addX_regNode@@EAEPAVMachNode@@H@Z 080052f0 f   ad_i486.obj
 0001:00004400       ?rule@addX_memNode@@EBEIXZ 08005400 f i ad_i486.obj
 0001:00004410       ?cisc_version@subX_regNode@@EAEPAVMachNode@@H@Z 08005410 f   ad_i486.obj
 0001:00004520       ?rule@subX_memNode@@EBEIXZ 08005520 f i ad_i486.obj
 0001:00004530       ?ideal_Opcode@subX_regNode@@EBEHXZ 08005530 f i ad_i486.obj
 0001:00004530       ?ideal_Opcode@subF_regNode@@EBEHXZ 08005530 f i ad_i486.obj
 0001:00004530       ?ideal_Opcode@subX_immNode@@EBEHXZ 08005530 f i ad_i486.obj
 0001:00004530       ?ideal_Opcode@subF24_regNode@@EBEHXZ 08005530 f i ad_i486.obj
 0001:00004530       ?ideal_Opcode@subX_memNode@@EBEHXZ 08005530 f i ad_i486.obj
 0001:00004540       ?use_cisc_RegMask@addX_regNode@@EAEXXZ 08005540 f   ad_i486.obj
 0001:00004540       ?use_cisc_RegMask@mulX_regNode@@EAEXXZ 08005540 f   ad_i486.obj
 0001:00004540       ?use_cisc_RegMask@cmpX_ccNode@@EAEXXZ 08005540 f   ad_i486.obj
 0001:00004540       ?use_cisc_RegMask@divX_regNode@@EAEXXZ 08005540 f   ad_i486.obj
 0001:00004540       ?use_cisc_RegMask@subX_regNode@@EAEXXZ 08005540 f   ad_i486.obj
 0001:00004540       ?use_cisc_RegMask@cmpX_regNode@@EAEXXZ 08005540 f   ad_i486.obj
 0001:00004550       ?cisc_version@mulX_regNode@@EAEPAVMachNode@@H@Z 08005550 f   ad_i486.obj
 0001:00004660       ?rule@mulX_memNode@@EBEIXZ 08005660 f i ad_i486.obj
 0001:00004670       ?ideal_Opcode@mulF_reg_load1Node@@EBEHXZ 08005670 f i ad_i486.obj
 0001:00004670       ?ideal_Opcode@mulF24_reg_memNode@@EBEHXZ 08005670 f i ad_i486.obj
 0001:00004670       ?ideal_Opcode@mulF_reg_memNode@@EBEHXZ 08005670 f i ad_i486.obj
 0001:00004670       ?ideal_Opcode@mulF24_reg_immNode@@EBEHXZ 08005670 f i ad_i486.obj
 0001:00004670       ?ideal_Opcode@mulF24_regNode@@EBEHXZ 08005670 f i ad_i486.obj
 0001:00004670       ?ideal_Opcode@mulF_reg_immNode@@EBEHXZ 08005670 f i ad_i486.obj
 0001:00004670       ?mul_opcode@MulFNode@@UBEHXZ 08005670 f i ad_i486.obj
 0001:00004670       ?ideal_Opcode@mulX_immNode@@EBEHXZ 08005670 f i ad_i486.obj
 0001:00004670       ?ideal_Opcode@mulX_memNode@@EBEHXZ 08005670 f i ad_i486.obj
 0001:00004670       ?ideal_Opcode@mulF_regNode@@EBEHXZ 08005670 f i ad_i486.obj
 0001:00004670       ?ideal_Opcode@mulX_regNode@@EBEHXZ 08005670 f i ad_i486.obj
 0001:00004670       ?ideal_Opcode@mulF24_mem_memNode@@EBEHXZ 08005670 f i ad_i486.obj
 0001:00004680       ?cisc_version@divX_regNode@@EAEPAVMachNode@@H@Z 08005680 f   ad_i486.obj
 0001:00004790       ?rule@divX_memNode@@EBEIXZ 08005790 f i ad_i486.obj
 0001:000047a0       ?ideal_Opcode@divX_memNode@@EBEHXZ 080057a0 f i ad_i486.obj
 0001:000047a0       ?opcode@indIndexOper@@UBEIXZ 080057a0 f i ad_i486.obj
 0001:000047a0       ?ideal_Opcode@subF_divF_regNode@@EBEHXZ 080057a0 f i ad_i486.obj
 0001:000047a0       ?ideal_Opcode@divF24_regNode@@EBEHXZ 080057a0 f i ad_i486.obj
 0001:000047a0       ?ideal_Opcode@divF_regNode@@EBEHXZ 080057a0 f i ad_i486.obj
 0001:000047a0       ?ideal_Opcode@divX_immNode@@EBEHXZ 080057a0 f i ad_i486.obj
 0001:000047a0       ?ideal_Opcode@divX_regNode@@EBEHXZ 080057a0 f i ad_i486.obj
 0001:000047b0       ?use_cisc_RegMask@sqrtXD_regNode@@EAEXXZ 080057b0 f   ad_i486.obj
 0001:000047c0       ?cisc_version@sqrtXD_regNode@@EAEPAVMachNode@@H@Z 080057c0 f   ad_i486.obj
 0001:000048d0       ?rule@sqrtXD_memNode@@EBEIXZ 080058d0 f i ad_i486.obj
 0001:000048e0       ?ideal_Opcode@sqrtXD_memNode@@EBEHXZ 080058e0 f i ad_i486.obj
 0001:000048e0       ?ideal_Opcode@sqrtD_regNode@@EBEHXZ 080058e0 f i ad_i486.obj
 0001:000048e0       ?ideal_Opcode@sqrtXD_regNode@@EBEHXZ 080058e0 f i ad_i486.obj
 0001:000048f0       ?rule@addF24_mem_ciscNode@@EBEIXZ 080058f0 f i ad_i486.obj
 0001:00004900       ?cisc_version@addF24_mem_regNode@@EAEPAVMachNode@@H@Z 08005900 f   ad_i486.obj
 0001:00004900       ?cisc_version@addF24_reg_memNode@@EAEPAVMachNode@@H@Z 08005900 f   ad_i486.obj
 0001:00004a10       ?cisc_version@mulF24_regNode@@EAEPAVMachNode@@H@Z 08005a10 f   ad_i486.obj
 0001:00004b20       ?rule@mulF24_reg_memNode@@EBEIXZ 08005b20 f i ad_i486.obj
 0001:00004b30       ?use_cisc_RegMask@addF24_mem_regNode@@EAEXXZ 08005b30 f   ad_i486.obj
 0001:00004b30       ?use_cisc_RegMask@addF24_regNode@@EAEXXZ 08005b30 f   ad_i486.obj
 0001:00004b30       ?use_cisc_RegMask@mulF_regNode@@EAEXXZ 08005b30 f   ad_i486.obj
 0001:00004b30       ?use_cisc_RegMask@addF24_reg_memNode@@EAEXXZ 08005b30 f   ad_i486.obj
 0001:00004b30       ?use_cisc_RegMask@addF_regNode@@EAEXXZ 08005b30 f   ad_i486.obj
 0001:00004b30       ?use_cisc_RegMask@mulF24_regNode@@EAEXXZ 08005b30 f   ad_i486.obj
 0001:00004b40       ?cisc_version@mulF_regNode@@EAEPAVMachNode@@H@Z 08005b40 f   ad_i486.obj
 0001:00004c50       ?rule@mulF_reg_memNode@@EBEIXZ 08005c50 f i ad_i486.obj
 0001:00004c60       ?use_cisc_RegMask@addF_mulF_regNode@@EAEXXZ 08005c60 f   ad_i486.obj
 0001:00004c70       ?in_oper_RegMask@addF_mulF_regNode@@EBEPBVRegMask@@III@Z 08005c70 f   ad_i486.obj
 0001:00004cb0       ?cisc_version@addF_mulF_regNode@@EAEPAVMachNode@@H@Z 08005cb0 f   ad_i486.obj
 0001:00004dc0       ?rule@addF_mulF_reg_load1Node@@EBEIXZ 08005dc0 f i ad_i486.obj
 0001:00004dd0       ?use_cisc_RegMask@convI2XD_regNode@@EAEXXZ 08005dd0 f   ad_i486.obj
 0001:00004de0       ?in_oper_RegMask@convI2XD_regNode@@EBEPBVRegMask@@III@Z 08005de0 f   ad_i486.obj
 0001:00004de0       ?in_oper_RegMask@sqrtXD_regNode@@EBEPBVRegMask@@III@Z 08005de0 f   ad_i486.obj
 0001:00004de0       ?in_oper_RegMask@storeSSLNode@@EBEPBVRegMask@@III@Z 08005de0 f   ad_i486.obj
 0001:00004e20       ?cisc_version@convI2XD_regNode@@EAEPAVMachNode@@H@Z 08005e20 f   ad_i486.obj
 0001:00004f30       ?rule@convI2XD_memNode@@EBEIXZ 08005f30 f i ad_i486.obj
 0001:00004f40       ?ideal_Opcode@convI2D_memNode@@EBEHXZ 08005f40 f i ad_i486.obj
 0001:00004f40       ?ideal_Opcode@convI2XD_memNode@@EBEHXZ 08005f40 f i ad_i486.obj
 0001:00004f40       ?ideal_Opcode@convI2D_regNode@@EBEHXZ 08005f40 f i ad_i486.obj
 0001:00004f40       ?opcode@flagsReg_long_LTGEOper@@UBEIXZ 08005f40 f i ad_i486.obj
 0001:00004f40       ?ideal_Opcode@convI2XD_regNode@@EBEHXZ 08005f40 f i ad_i486.obj
 0001:00004f50       ?cisc_version@compI_eRegNode@@EAEPAVMachNode@@H@Z 08005f50 f   ad_i486.obj
 0001:00005060       ?rule@compI_eReg_memNode@@EBEIXZ 08006060 f i ad_i486.obj
 0001:00005070       ?ideal_Opcode@testI_reg_immNode@@EBEHXZ 08006070 f i ad_i486.obj
 0001:00005070       ?ideal_Opcode@testI_regNode@@EBEHXZ 08006070 f i ad_i486.obj
 0001:00005070       ?opcode@eSIRegIOper@@UBEIXZ 08006070 f i ad_i486.obj
 0001:00005070       ?ideal_Opcode@compI_eRegNode@@EBEHXZ 08006070 f i ad_i486.obj
 0001:00005070       ?ideal_Opcode@compI_eReg_memNode@@EBEHXZ 08006070 f i ad_i486.obj
 0001:00005070       ?ideal_Opcode@compI_eReg_immNode@@EBEHXZ 08006070 f i ad_i486.obj
 0001:00005070       ?ideal_Opcode@testI_reg_memNode@@EBEHXZ 08006070 f i ad_i486.obj
 0001:00005070       ?ideal_Opcode@storeLConditional_flagsNode@@EBEHXZ 08006070 f i ad_i486.obj
 0001:00005080       ?cisc_version@compU_eRegNode@@EAEPAVMachNode@@H@Z 08006080 f   ad_i486.obj
 0001:00005190       ?rule@compU_eReg_memNode@@EBEIXZ 08006190 f i ad_i486.obj
 0001:000051a0       ?ideal_Opcode@compU_eReg_immNode@@EBEHXZ 080061a0 f i ad_i486.obj
 0001:000051a0       ?ideal_Opcode@compU_eRegNode@@EBEHXZ 080061a0 f i ad_i486.obj
 0001:000051a0       ?ideal_Opcode@testU_regNode@@EBEHXZ 080061a0 f i ad_i486.obj
 0001:000051a0       ?ideal_Opcode@compU_eReg_memNode@@EBEHXZ 080061a0 f i ad_i486.obj
 0001:000051a0       ?opcode@nabxRegPOper@@UBEIXZ 080061a0 f i ad_i486.obj
 0001:000051b0       ?in_oper_RegMask@addF24_reg_memNode@@EBEPBVRegMask@@III@Z 080061b0 f   ad_i486.obj
 0001:000051b0       ?in_oper_RegMask@addX_regNode@@EBEPBVRegMask@@III@Z 080061b0 f   ad_i486.obj
 0001:000051b0       ?in_oper_RegMask@cmpX_ccNode@@EBEPBVRegMask@@III@Z 080061b0 f   ad_i486.obj
 0001:000051b0       ?in_oper_RegMask@subX_regNode@@EBEPBVRegMask@@III@Z 080061b0 f   ad_i486.obj
 0001:000051b0       ?in_oper_RegMask@cmpXD_regNode@@EBEPBVRegMask@@III@Z 080061b0 f   ad_i486.obj
 0001:000051b0       ?in_oper_RegMask@addD_regNode@@EBEPBVRegMask@@III@Z 080061b0 f   ad_i486.obj
 0001:000051b0       ?in_oper_RegMask@divX_regNode@@EBEPBVRegMask@@III@Z 080061b0 f   ad_i486.obj
 0001:000051b0       ?in_oper_RegMask@compU_eRegNode@@EBEPBVRegMask@@III@Z 080061b0 f   ad_i486.obj
 0001:000051b0       ?in_oper_RegMask@subI_eRegNode@@EBEPBVRegMask@@III@Z 080061b0 f   ad_i486.obj
 0001:000051b0       ?in_oper_RegMask@cmpX_regNode@@EBEPBVRegMask@@III@Z 080061b0 f   ad_i486.obj
 0001:000051b0       ?in_oper_RegMask@cmpXD_ccNode@@EBEPBVRegMask@@III@Z 080061b0 f   ad_i486.obj
 0001:000051b0       ?in_oper_RegMask@mulX_regNode@@EBEPBVRegMask@@III@Z 080061b0 f   ad_i486.obj
 0001:000051b0       ?in_oper_RegMask@divXD_regNode@@EBEPBVRegMask@@III@Z 080061b0 f   ad_i486.obj
 0001:000051b0       ?in_oper_RegMask@mulXD_regNode@@EBEPBVRegMask@@III@Z 080061b0 f   ad_i486.obj
 0001:000051b0       ?in_oper_RegMask@mulF24_regNode@@EBEPBVRegMask@@III@Z 080061b0 f   ad_i486.obj
 0001:000051b0       ?in_oper_RegMask@mulI_eRegNode@@EBEPBVRegMask@@III@Z 080061b0 f   ad_i486.obj
 0001:000051b0       ?in_oper_RegMask@subL_eRegNode@@EBEPBVRegMask@@III@Z 080061b0 f   ad_i486.obj
 0001:000051b0       ?in_oper_RegMask@addF24_mem_regNode@@EBEPBVRegMask@@III@Z 080061b0 f   ad_i486.obj
 0001:000051b0       ?in_oper_RegMask@orI_eRegNode@@EBEPBVRegMask@@III@Z 080061b0 f   ad_i486.obj
 0001:000051b0       ?in_oper_RegMask@xorl_eRegNode@@EBEPBVRegMask@@III@Z 080061b0 f   ad_i486.obj
 0001:000051b0       ?in_oper_RegMask@subD_regNode@@EBEPBVRegMask@@III@Z 080061b0 f   ad_i486.obj
 0001:000051b0       ?in_oper_RegMask@orl_eRegNode@@EBEPBVRegMask@@III@Z 080061b0 f   ad_i486.obj
 0001:000051b0       ?in_oper_RegMask@addI_eRegNode@@EBEPBVRegMask@@III@Z 080061b0 f   ad_i486.obj
 0001:000051b0       ?in_oper_RegMask@subXD_regNode@@EBEPBVRegMask@@III@Z 080061b0 f   ad_i486.obj
 0001:000051b0       ?in_oper_RegMask@addF24_regNode@@EBEPBVRegMask@@III@Z 080061b0 f   ad_i486.obj
 0001:000051b0       ?in_oper_RegMask@mulI_eReg_immNode@@EBEPBVRegMask@@III@Z 080061b0 f   ad_i486.obj
 0001:000051b0       ?in_oper_RegMask@addL_eRegNode@@EBEPBVRegMask@@III@Z 080061b0 f   ad_i486.obj
 0001:000051b0       ?in_oper_RegMask@mulF_regNode@@EBEPBVRegMask@@III@Z 080061b0 f   ad_i486.obj
 0001:000051b0       ?in_oper_RegMask@addF_regNode@@EBEPBVRegMask@@III@Z 080061b0 f   ad_i486.obj
 0001:000051b0       ?in_oper_RegMask@addXD_regNode@@EBEPBVRegMask@@III@Z 080061b0 f   ad_i486.obj
 0001:000051b0       ?in_oper_RegMask@compI_eRegNode@@EBEPBVRegMask@@III@Z 080061b0 f   ad_i486.obj
 0001:000051b0       ?in_oper_RegMask@andL_eRegNode@@EBEPBVRegMask@@III@Z 080061b0 f   ad_i486.obj
 0001:000051b0       ?in_oper_RegMask@compP_eRegNode@@EBEPBVRegMask@@III@Z 080061b0 f   ad_i486.obj
 0001:000051b0       ?in_oper_RegMask@xorI_eRegNode@@EBEPBVRegMask@@III@Z 080061b0 f   ad_i486.obj
 0001:000051b0       ?in_oper_RegMask@andI_eRegNode@@EBEPBVRegMask@@III@Z 080061b0 f   ad_i486.obj
 0001:000051f0       ?cisc_version@compP_eRegNode@@EAEPAVMachNode@@H@Z 080061f0 f   ad_i486.obj
 0001:00005300       ?rule@compP_eReg_memNode@@EBEIXZ 08006300 f i ad_i486.obj
 0001:00005310       ?ideal_Opcode@compP_eReg_memNode@@EBEHXZ 08006310 f i ad_i486.obj
 0001:00005310       ?ideal_Opcode@testP_Reg_memNode@@EBEHXZ 08006310 f i ad_i486.obj
 0001:00005310       ?opcode@naxRegPOper@@UBEIXZ 08006310 f i ad_i486.obj
 0001:00005310       ?ideal_Opcode@compP_mem_eRegNode@@EBEHXZ 08006310 f i ad_i486.obj
 0001:00005310       ?ideal_Opcode@compP_eReg_immNode@@EBEHXZ 08006310 f i ad_i486.obj
 0001:00005310       ?ideal_Opcode@testP_regNode@@EBEHXZ 08006310 f i ad_i486.obj
 0001:00005310       ?ideal_Opcode@compP_eRegNode@@EBEHXZ 08006310 f i ad_i486.obj
 0001:00005320       ?short_branch_version@jmpDirNode@@UAEPAVMachNode@@XZ 08006320 f   ad_i486.obj
 0001:000053c0       ?rule@jmpDir_shortNode@@EBEIXZ 080063c0 f i ad_i486.obj
 0001:000053d0       ?ideal_Opcode@jmpDir_shortNode@@EBEHXZ 080063d0 f i ad_i486.obj
 0001:000053d0       ?ideal_Opcode@jmpDirNode@@EBEHXZ 080063d0 f i ad_i486.obj
 0001:000053d0       ?opcode@load_long_indOffset32Oper@@UBEIXZ 080063d0 f i ad_i486.obj
 0001:000053e0       ?short_branch_version@jmpConNode@@UAEPAVMachNode@@XZ 080063e0 f   ad_i486.obj
 0001:00005490       ?rule@jmpCon_shortNode@@EBEIXZ 08006490 f i ad_i486.obj
 0001:000054a0       ?ideal_Opcode@jmpConNode@@EBEHXZ 080064a0 f i ad_i486.obj
 0001:000054a0       ?ideal_Opcode@jmpCon_shortNode@@EBEHXZ 080064a0 f i ad_i486.obj
 0001:000054a0       ?size_of@CallStaticJavaDirectNode@@UBEIXZ 080064a0 f i ad_i486.obj
 0001:000054a0       ?ideal_Opcode@jmpConUNode@@EBEHXZ 080064a0 f i ad_i486.obj
 0001:000054a0       ?opcode@stackSlotIOper@@UBEIXZ 080064a0 f i ad_i486.obj
 0001:000054a0       ?ideal_Opcode@jmpConU_shortNode@@EBEHXZ 080064a0 f i ad_i486.obj
 0001:000054a0       ?ideal_Opcode@cmpL_EQNENode@@EBEHXZ 080064a0 f i ad_i486.obj
 0001:000054a0       ?ideal_Opcode@cmpL_LEGTNode@@EBEHXZ 080064a0 f i ad_i486.obj
 0001:000054a0       ?ideal_Opcode@cmpL_LTGENode@@EBEHXZ 080064a0 f i ad_i486.obj
 0001:000054b0       ?size_of@cmovII_reg_LTGENode@@UBEIXZ 080064b0 f i ad_i486.obj
 0001:000054b0       ?size_of@cmovI_regNode@@UBEIXZ 080064b0 f i ad_i486.obj
 0001:000054b0       ?size_of@cmovLL_reg_LTGENode@@UBEIXZ 080064b0 f i ad_i486.obj
 0001:000054b0       ?ideal_Opcode@loadConL0Node@@EBEHXZ 080064b0 f i ad_i486.obj
 0001:000054b0       ?size_of@jmpLoopEndU_shortNode@@UBEIXZ 080064b0 f i ad_i486.obj
 0001:000054b0       ?size_of@cmovII_reg_LEGTNode@@UBEIXZ 080064b0 f i ad_i486.obj
 0001:000054b0       ?size_of@cmpL_LTGENode@@UBEIXZ 080064b0 f i ad_i486.obj
 0001:000054b0       ?size_of@jmpConNode@@UBEIXZ 080064b0 f i ad_i486.obj
 0001:000054b0       ?ideal_Opcode@loadConL_low_onlyNode@@EBEHXZ 080064b0 f i ad_i486.obj
 0001:000054b0       ?size_of@cmovLL_reg_LEGTNode@@UBEIXZ 080064b0 f i ad_i486.obj
 0001:000054b0       ?size_of@safePointNode@@UBEIXZ 080064b0 f i ad_i486.obj
 0001:000054b0       ?ideal_Opcode@loadConLNode@@EBEHXZ 080064b0 f i ad_i486.obj
 0001:000054b0       ?opcode@eSIRegPOper@@UBEIXZ 080064b0 f i ad_i486.obj
 0001:000054b0       ?size_of@jmpCon_shortNode@@UBEIXZ 080064b0 f i ad_i486.obj
 0001:000054b0       ?size_of@jmpConU_shortNode@@UBEIXZ 080064b0 f i ad_i486.obj
 0001:000054b0       ?size_of@jmpConUNode@@UBEIXZ 080064b0 f i ad_i486.obj
 0001:000054b0       ?size_of@jmpLoopEndUNode@@UBEIXZ 080064b0 f i ad_i486.obj
 0001:000054b0       ?size_of@cmovI_regUNode@@UBEIXZ 080064b0 f i ad_i486.obj
 0001:000054b0       ?size_of@cmpL_EQNENode@@UBEIXZ 080064b0 f i ad_i486.obj
 0001:000054b0       ?size_of@jmpLoopEnd_shortNode@@UBEIXZ 080064b0 f i ad_i486.obj
 0001:000054b0       ?size_of@cmovII_reg_EQNENode@@UBEIXZ 080064b0 f i ad_i486.obj
 0001:000054b0       ?size_of@cmpL_LEGTNode@@UBEIXZ 080064b0 f i ad_i486.obj
 0001:000054b0       ?size_of@cmovLL_reg_EQNENode@@UBEIXZ 080064b0 f i ad_i486.obj
 0001:000054b0       ?size_of@jmpLoopEndNode@@UBEIXZ 080064b0 f i ad_i486.obj
 0001:000054c0       ?short_branch_version@jmpLoopEndNode@@UAEPAVMachNode@@XZ 080064c0 f   ad_i486.obj
 0001:00005570       ?rule@jmpLoopEnd_shortNode@@EBEIXZ 08006570 f i ad_i486.obj
 0001:00005580       ?bottom_type@cmpL_EQNENode@@UBEPBVType@@XZ 08006580 f i ad_i486.obj
 0001:00005580       ?bottom_type@jmpConU_shortNode@@UBEPBVType@@XZ 08006580 f i ad_i486.obj
 0001:00005580       ?bottom_type@jmpConNode@@UBEPBVType@@XZ 08006580 f i ad_i486.obj
 0001:00005580       ?bottom_type@jmpConUNode@@UBEPBVType@@XZ 08006580 f i ad_i486.obj
 0001:00005580       ?bottom_type@jmpCon_shortNode@@UBEPBVType@@XZ 08006580 f i ad_i486.obj
 0001:00005580       ?bottom_type@NeverBranchNode@@UBEPBVType@@XZ 08006580 f i ad_i486.obj
 0001:00005580       ?bottom_type@cmpL_LTGENode@@UBEPBVType@@XZ 08006580 f i ad_i486.obj
 0001:00005580       ?bottom_type@jmpLoopEnd_shortNode@@UBEPBVType@@XZ 08006580 f i ad_i486.obj
 0001:00005580       ?bottom_type@cmpL_LEGTNode@@UBEPBVType@@XZ 08006580 f i ad_i486.obj
 0001:00005580       ?bottom_type@jmpLoopEndNode@@UBEPBVType@@XZ 08006580 f i ad_i486.obj
 0001:00005580       ?bottom_type@jmpLoopEndUNode@@UBEPBVType@@XZ 08006580 f i ad_i486.obj
 0001:00005580       ?bottom_type@MachNullCheckNode@@UBEPBVType@@XZ 08006580 f i ad_i486.obj
 0001:00005580       ?bottom_type@jmpLoopEndU_shortNode@@UBEPBVType@@XZ 08006580 f i ad_i486.obj
 0001:00005580       ?bottom_type@IfNode@@UBEPBVType@@XZ 08006580 f i ad_i486.obj
 0001:00005590       ?short_branch_version@jmpLoopEndUNode@@UAEPAVMachNode@@XZ 08006590 f   ad_i486.obj
 0001:00005640       ?rule@jmpLoopEndU_shortNode@@EBEIXZ 08006640 f i ad_i486.obj
 0001:00005650       ?short_branch_version@jmpConUNode@@UAEPAVMachNode@@XZ 08006650 f   ad_i486.obj
 0001:00005700       ?rule@jmpConU_shortNode@@EBEIXZ 08006700 f i ad_i486.obj
 0001:00005710       ?cisc_version@cmovLL_reg_LTGENode@@EAEPAVMachNode@@H@Z 08006710 f   ad_i486.obj
 0001:00005820       ?rule@cmovLL_mem_LTGENode@@EBEIXZ 08006820 f i ad_i486.obj
 0001:00005830       ?cisc_version@cmovII_reg_LTGENode@@EAEPAVMachNode@@H@Z 08006830 f   ad_i486.obj
 0001:00005940       ?rule@cmovII_mem_LTGENode@@EBEIXZ 08006940 f i ad_i486.obj
 0001:00005950       ?use_cisc_RegMask@cmovLL_reg_EQNENode@@EAEXXZ 08006950 f   ad_i486.obj
 0001:00005950       ?use_cisc_RegMask@cmovLL_reg_LTGENode@@EAEXXZ 08006950 f   ad_i486.obj
 0001:00005950       ?use_cisc_RegMask@cmovLL_reg_LEGTNode@@EAEXXZ 08006950 f   ad_i486.obj
 0001:00005960       ?cisc_version@cmovLL_reg_EQNENode@@EAEPAVMachNode@@H@Z 08006960 f   ad_i486.obj
 0001:00005a70       ?rule@cmovLL_mem_EQNENode@@EBEIXZ 08006a70 f i ad_i486.obj
 0001:00005a80       ?use_cisc_RegMask@cmovII_reg_EQNENode@@EAEXXZ 08006a80 f   ad_i486.obj
 0001:00005a80       ?use_cisc_RegMask@cmovII_reg_LTGENode@@EAEXXZ 08006a80 f   ad_i486.obj
 0001:00005a80       ?use_cisc_RegMask@cmovII_reg_LEGTNode@@EAEXXZ 08006a80 f   ad_i486.obj
 0001:00005a80       ?use_cisc_RegMask@cmovI_regNode@@EAEXXZ 08006a80 f   ad_i486.obj
 0001:00005a80       ?use_cisc_RegMask@cmovI_regUNode@@EAEXXZ 08006a80 f   ad_i486.obj
 0001:00005a90       ?cisc_version@cmovII_reg_EQNENode@@EAEPAVMachNode@@H@Z 08006a90 f   ad_i486.obj
 0001:00005ba0       ?rule@cmovII_mem_EQNENode@@EBEIXZ 08006ba0 f i ad_i486.obj
 0001:00005bb0       ?in_oper_RegMask@cmovI_regUNode@@EBEPBVRegMask@@III@Z 08006bb0 f   ad_i486.obj
 0001:00005bb0       ?in_oper_RegMask@cmovI_regNode@@EBEPBVRegMask@@III@Z 08006bb0 f   ad_i486.obj
 0001:00005bb0       ?in_oper_RegMask@cmovLL_reg_EQNENode@@EBEPBVRegMask@@III@Z 08006bb0 f   ad_i486.obj
 0001:00005bb0       ?in_oper_RegMask@cmovII_reg_EQNENode@@EBEPBVRegMask@@III@Z 08006bb0 f   ad_i486.obj
 0001:00005bb0       ?in_oper_RegMask@cmovLL_reg_LEGTNode@@EBEPBVRegMask@@III@Z 08006bb0 f   ad_i486.obj
 0001:00005bb0       ?in_oper_RegMask@cmovII_reg_LTGENode@@EBEPBVRegMask@@III@Z 08006bb0 f   ad_i486.obj
 0001:00005bb0       ?in_oper_RegMask@cmovLL_reg_LTGENode@@EBEPBVRegMask@@III@Z 08006bb0 f   ad_i486.obj
 0001:00005bb0       ?in_oper_RegMask@cmovII_reg_LEGTNode@@EBEPBVRegMask@@III@Z 08006bb0 f   ad_i486.obj
 0001:00005bf0       ?cisc_version@cmovLL_reg_LEGTNode@@EAEPAVMachNode@@H@Z 08006bf0 f   ad_i486.obj
 0001:00005d00       ?rule@cmovLL_mem_LEGTNode@@EBEIXZ 08006d00 f i ad_i486.obj
 0001:00005d10       ?cisc_version@cmovII_reg_LEGTNode@@EAEPAVMachNode@@H@Z 08006d10 f   ad_i486.obj
 0001:00005e20       ?rule@cmovII_mem_LEGTNode@@EBEIXZ 08006e20 f i ad_i486.obj
 0001:00005e30       ?label_set@jmpDir_shortNode@@EAEXAAVLabel@@I@Z 08006e30 f   ad_i486.obj
 0001:00005e30       ?label_set@jmpDirNode@@EAEXAAVLabel@@I@Z 08006e30 f   ad_i486.obj
 0001:00005e50       ?label_set@jmpLoopEndU_shortNode@@EAEXAAVLabel@@I@Z 08006e50 f   ad_i486.obj
 0001:00005e50       ?label_set@jmpLoopEndUNode@@EAEXAAVLabel@@I@Z 08006e50 f   ad_i486.obj
 0001:00005e50       ?label_set@jmpCon_shortNode@@EAEXAAVLabel@@I@Z 08006e50 f   ad_i486.obj
 0001:00005e50       ?label_set@jmpLoopEndNode@@EAEXAAVLabel@@I@Z 08006e50 f   ad_i486.obj
 0001:00005e50       ?label_set@jmpConUNode@@EAEXAAVLabel@@I@Z 08006e50 f   ad_i486.obj
 0001:00005e50       ?label_set@jmpConU_shortNode@@EAEXAAVLabel@@I@Z 08006e50 f   ad_i486.obj
 0001:00005e50       ?label_set@cmpL_LEGTNode@@EAEXAAVLabel@@I@Z 08006e50 f   ad_i486.obj
 0001:00005e50       ?label_set@jmpConNode@@EAEXAAVLabel@@I@Z 08006e50 f   ad_i486.obj
 0001:00005e50       ?label_set@cmpL_EQNENode@@EAEXAAVLabel@@I@Z 08006e50 f   ad_i486.obj
 0001:00005e50       ?label_set@cmpL_LTGENode@@EAEXAAVLabel@@I@Z 08006e50 f   ad_i486.obj
 0001:00005e50       ?label_set@jmpLoopEnd_shortNode@@EAEXAAVLabel@@I@Z 08006e50 f   ad_i486.obj
 0001:00005e70       ?method_set@loadConPcNode@@EAEXH@Z 08006e70 f   ad_i486.obj
 0001:00005e80       ?method_set@CallStaticJavaDirectNode@@EAEXH@Z 08006e80 f   ad_i486.obj
 0001:00005e90       ?method_set@CallDynamicJavaDirectNode@@EAEXH@Z 08006e90 f   ad_i486.obj
 0001:00005ea0       ?method_set@CallCompiledJavaDirectNode@@EAEXH@Z 08006ea0 f   ad_i486.obj
 0001:00005ea0       ?method_set@CallInterpreterDirectNode@@EAEXH@Z 08006ea0 f   ad_i486.obj
 0001:00005eb0       ?method_set@CallRuntimeDirectNode@@EAEXH@Z 08006eb0 f   ad_i486.obj
 0001:00005eb0       ?method_set@CallLeafDirectNode@@EAEXH@Z 08006eb0 f   ad_i486.obj
 0001:00005eb0       ?method_set@CallNativeDirectNode@@EAEXH@Z 08006eb0 f   ad_i486.obj
 0001:00005ec0       ?reloc@storeCNode@@EBEHXZ  08006ec0 f   ad_i486.obj
 0001:00005ec0       ?reloc@storeF_DroundedNode@@EBEHXZ 08006ec0 f   ad_i486.obj
 0001:00005ec0       ?reloc@storeImmCMNode@@EBEHXZ 08006ec0 f   ad_i486.obj
 0001:00005ec0       ?reloc@loadConXDNode@@EBEHXZ 08006ec0 f   ad_i486.obj
 0001:00005ec0       ?reloc@mulF24_mem_memNode@@EBEHXZ 08006ec0 f   ad_i486.obj
 0001:00005ec0       ?reloc@addF24_mem_ciscNode@@EBEHXZ 08006ec0 f   ad_i486.obj
 0001:00005ec0       ?reloc@loadConFNode@@EBEHXZ 08006ec0 f   ad_i486.obj
 0001:00005ec0       ?reloc@storeImmBNode@@EBEHXZ 08006ec0 f   ad_i486.obj
 0001:00005ec0       ?reloc@storeDNode@@EBEHXZ  08006ec0 f   ad_i486.obj
 0001:00005ec0       ?reloc@storeBNode@@EBEHXZ  08006ec0 f   ad_i486.obj
 0001:00005ec0       ?reloc@storeImmINode@@EBEHXZ 08006ec0 f   ad_i486.obj
 0001:00005ec0       ?reloc@loadConXD0Node@@EBEHXZ 08006ec0 f   ad_i486.obj
 0001:00005ec0       ?interpreter_frame_pointer_reg@Matcher@@SA?AW4Name@OptoReg@@XZ 08006ec0 f   ad_i486.obj
 0001:00005ec0       ?reloc@storeXNode@@EBEHXZ  08006ec0 f   ad_i486.obj
 0001:00005ec0       ?reloc@storeINode@@EBEHXZ  08006ec0 f   ad_i486.obj
 0001:00005ec0       ?reloc@storeLNode@@EBEHXZ  08006ec0 f   ad_i486.obj
 0001:00005ec0       ?reloc@loadConDNode@@EBEHXZ 08006ec0 f   ad_i486.obj
 0001:00005ec0       ?reloc@loadConX0Node@@EBEHXZ 08006ec0 f   ad_i486.obj
 0001:00005ec0       ?reloc@storeL_volatileNode@@EBEHXZ 08006ec0 f   ad_i486.obj
 0001:00005ec0       ?reloc@storeFNode@@EBEHXZ  08006ec0 f   ad_i486.obj
 0001:00005ec0       ?reloc@addF24_mem_memNode@@EBEHXZ 08006ec0 f   ad_i486.obj
 0001:00005ec0       ?reloc@storeF_roundedNode@@EBEHXZ 08006ec0 f   ad_i486.obj
 0001:00005ec0       ?reloc@storeImmI16Node@@EBEHXZ 08006ec0 f   ad_i486.obj
 0001:00005ec0       ?reloc@storeD_roundedNode@@EBEHXZ 08006ec0 f   ad_i486.obj
 0001:00005ec0       ?reloc@storeXDNode@@EBEHXZ 08006ec0 f   ad_i486.obj
 0001:00005ec0       ?reloc@loadConXNode@@EBEHXZ 08006ec0 f   ad_i486.obj
 0001:00005ec0       ?reloc@storePNode@@EBEHXZ  08006ec0 f   ad_i486.obj
 0001:00005ed0       ?emit@box_handleNode@@EBEXAAVCodeBuffer@@PAVPhaseRegAlloc@@@Z 08006ed0 f   ad_i486.obj
 0001:00005f70       ?emit@loadBNode@@EBEXAAVCodeBuffer@@PAVPhaseRegAlloc@@@Z 08006f70 f   ad_i486.obj
 0001:00006010       ?emit@loadUBNode@@EBEXAAVCodeBuffer@@PAVPhaseRegAlloc@@@Z 08007010 f   ad_i486.obj
 0001:000060c0       ?emit@loadCNode@@EBEXAAVCodeBuffer@@PAVPhaseRegAlloc@@@Z 080070c0 f   ad_i486.obj
 0001:00006160       ?emit@loadLNode@@EBEXAAVCodeBuffer@@PAVPhaseRegAlloc@@@Z 08007160 f   ad_i486.obj
 0001:00006270       ?emit@loadINode@@EBEXAAVCodeBuffer@@PAVPhaseRegAlloc@@@Z 08007270 f   ad_i486.obj
 0001:00006270       ?emit@loadRangeNode@@EBEXAAVCodeBuffer@@PAVPhaseRegAlloc@@@Z 08007270 f   ad_i486.obj
 0001:00006310       ?emit@loadPLockedNode@@EBEXAAVCodeBuffer@@PAVPhaseRegAlloc@@@Z 08007310 f   ad_i486.obj
 0001:00006310       ?emit@loadKlassNode@@EBEXAAVCodeBuffer@@PAVPhaseRegAlloc@@@Z 08007310 f   ad_i486.obj
 0001:00006310       ?emit@loadPNode@@EBEXAAVCodeBuffer@@PAVPhaseRegAlloc@@@Z 08007310 f   ad_i486.obj
 0001:000063b0       ?emit@loadSNode@@EBEXAAVCodeBuffer@@PAVPhaseRegAlloc@@@Z 080073b0 f   ad_i486.obj
 0001:00006450       ?emit@loadDNode@@EBEXAAVCodeBuffer@@PAVPhaseRegAlloc@@@Z 08007450 f   ad_i486.obj
 0001:00006500       ?emit@loadXDNode@@EBEXAAVCodeBuffer@@PAVPhaseRegAlloc@@@Z 08007500 f   ad_i486.obj
 0001:000065b0       ?emit@loadXNode@@EBEXAAVCodeBuffer@@PAVPhaseRegAlloc@@@Z 080075b0 f   ad_i486.obj
 0001:00006660       ?emit@loadFNode@@EBEXAAVCodeBuffer@@PAVPhaseRegAlloc@@@Z 08007660 f   ad_i486.obj
 0001:00006710       ?emit@leaPIdxScaleNode@@EBEXAAVCodeBuffer@@PAVPhaseRegAlloc@@@Z 08007710 f   ad_i486.obj
 0001:00006710       ?emit@leaPIdxOffNode@@EBEXAAVCodeBuffer@@PAVPhaseRegAlloc@@@Z 08007710 f   ad_i486.obj
 0001:00006710       ?emit@leaP8Node@@EBEXAAVCodeBuffer@@PAVPhaseRegAlloc@@@Z 08007710 f   ad_i486.obj
 0001:00006710       ?emit@leaPIdxScaleOffNode@@EBEXAAVCodeBuffer@@PAVPhaseRegAlloc@@@Z 08007710 f   ad_i486.obj
 0001:00006710       ?emit@leaP32Node@@EBEXAAVCodeBuffer@@PAVPhaseRegAlloc@@@Z 08007710 f   ad_i486.obj
 0001:000067b0       ?emit@loadConINode@@EBEXAAVCodeBuffer@@PAVPhaseRegAlloc@@@Z 080077b0 f   ad_i486.obj
 0001:00006800       ?emit@loadConI0Node@@EBEXAAVCodeBuffer@@PAVPhaseRegAlloc@@@Z 08007800 f   ad_i486.obj
 0001:00006850       ?emit@loadConPNode@@EBEXAAVCodeBuffer@@PAVPhaseRegAlloc@@@Z 08007850 f   ad_i486.obj
 0001:000068c0       ?emit@loadConLNode@@EBEXAAVCodeBuffer@@PAVPhaseRegAlloc@@@Z 080078c0 f   ad_i486.obj
 0001:00006980       ?emit@loadConL0Node@@EBEXAAVCodeBuffer@@PAVPhaseRegAlloc@@@Z 08007980 f   ad_i486.obj
 0001:00006a00       ?emit@loadConPcNode@@EBEXAAVCodeBuffer@@PAVPhaseRegAlloc@@@Z 08007a00 f   ad_i486.obj
 0001:00006a60       ?size@jmpDirNode@@EBEIPAVPhaseRegAlloc@@@Z 08007a60 f   ad_i486.obj
 0001:00006a60       ?size@loadConPcNode@@EBEIPAVPhaseRegAlloc@@@Z 08007a60 f   ad_i486.obj
 0001:00006a70       ?emit@loadConFNode@@EBEXAAVCodeBuffer@@PAVPhaseRegAlloc@@@Z 08007a70 f   ad_i486.obj
 0001:00006b50       ?emit@loadConXNode@@EBEXAAVCodeBuffer@@PAVPhaseRegAlloc@@@Z 08007b50 f   ad_i486.obj
 0001:00006bc0       ?emit@loadConX0Node@@EBEXAAVCodeBuffer@@PAVPhaseRegAlloc@@@Z 08007bc0 f   ad_i486.obj
 0001:00006c10       ?emit@loadConDNode@@EBEXAAVCodeBuffer@@PAVPhaseRegAlloc@@@Z 08007c10 f   ad_i486.obj
 0001:00006cf0       ?emit@loadConXDNode@@EBEXAAVCodeBuffer@@PAVPhaseRegAlloc@@@Z 08007cf0 f   ad_i486.obj
 0001:00006d60       ?emit@loadConXD0Node@@EBEXAAVCodeBuffer@@PAVPhaseRegAlloc@@@Z 08007d60 f   ad_i486.obj
 0001:00006dc0       ?emit@loadSSPNode@@EBEXAAVCodeBuffer@@PAVPhaseRegAlloc@@@Z 08007dc0 f   ad_i486.obj
 0001:00006dc0       ?emit@loadSSINode@@EBEXAAVCodeBuffer@@PAVPhaseRegAlloc@@@Z 08007dc0 f   ad_i486.obj
 0001:00006e60       ?emit@loadSSFNode@@EBEXAAVCodeBuffer@@PAVPhaseRegAlloc@@@Z 08007e60 f   ad_i486.obj
 0001:00006f00       ?emit@loadSSDNode@@EBEXAAVCodeBuffer@@PAVPhaseRegAlloc@@@Z 08007f00 f   ad_i486.obj
 0001:00006fa0       ?emit@prefetch1Node@@EBEXAAVCodeBuffer@@PAVPhaseRegAlloc@@@Z 08007fa0 f   ad_i486.obj
 0001:00007030       ?emit@prefetch0Node@@EBEXAAVCodeBuffer@@PAVPhaseRegAlloc@@@Z 08008030 f   ad_i486.obj
 0001:000070b0       ?emit@storeBNode@@EBEXAAVCodeBuffer@@PAVPhaseRegAlloc@@@Z 080080b0 f   ad_i486.obj
 0001:00007160       ?emit@storeCNode@@EBEXAAVCodeBuffer@@PAVPhaseRegAlloc@@@Z 08008160 f   ad_i486.obj
 0001:00007210       ?emit@storeLNode@@EBEXAAVCodeBuffer@@PAVPhaseRegAlloc@@@Z 08008210 f   ad_i486.obj
 0001:00007340       ?emit@storeL_volatileNode@@EBEXAAVCodeBuffer@@PAVPhaseRegAlloc@@@Z 08008340 f   ad_i486.obj
 0001:00007470       ?emit@storePNode@@EBEXAAVCodeBuffer@@PAVPhaseRegAlloc@@@Z 08008470 f   ad_i486.obj
 0001:00007470       ?emit@storeINode@@EBEXAAVCodeBuffer@@PAVPhaseRegAlloc@@@Z 08008470 f   ad_i486.obj
 0001:00007520       ?emit@storeImmINode@@EBEXAAVCodeBuffer@@PAVPhaseRegAlloc@@@Z 08008520 f   ad_i486.obj
 0001:000075c0       ?emit@storeImmI16Node@@EBEXAAVCodeBuffer@@PAVPhaseRegAlloc@@@Z 080085c0 f   ad_i486.obj
 0001:00007670       ?emit@storeImmPNode@@EBEXAAVCodeBuffer@@PAVPhaseRegAlloc@@@Z 08008670 f   ad_i486.obj
 0001:00007740       ?emit@storeImmBNode@@EBEXAAVCodeBuffer@@PAVPhaseRegAlloc@@@Z 08008740 f   ad_i486.obj
 0001:00007740       ?emit@storeImmCMNode@@EBEXAAVCodeBuffer@@PAVPhaseRegAlloc@@@Z 08008740 f   ad_i486.obj
 0001:00007810       ?emit@storeD_roundedNode@@EBEXAAVCodeBuffer@@PAVPhaseRegAlloc@@@Z 08008810 f   ad_i486.obj
 0001:00007810       ?emit@storeDNode@@EBEXAAVCodeBuffer@@PAVPhaseRegAlloc@@@Z 08008810 f   ad_i486.obj
 0001:00007910       ?emit@storeXDNode@@EBEXAAVCodeBuffer@@PAVPhaseRegAlloc@@@Z 08008910 f   ad_i486.obj
 0001:000079d0       ?emit@storeXNode@@EBEXAAVCodeBuffer@@PAVPhaseRegAlloc@@@Z 080089d0 f   ad_i486.obj
 0001:00007a90       ?emit@storeF_roundedNode@@EBEXAAVCodeBuffer@@PAVPhaseRegAlloc@@@Z 08008a90 f   ad_i486.obj
 0001:00007a90       ?emit@storeF_DroundedNode@@EBEXAAVCodeBuffer@@PAVPhaseRegAlloc@@@Z 08008a90 f   ad_i486.obj
 0001:00007a90       ?emit@storeFNode@@EBEXAAVCodeBuffer@@PAVPhaseRegAlloc@@@Z 08008a90 f   ad_i486.obj
 0001:00007b90       ?emit@storeF_immNode@@EBEXAAVCodeBuffer@@PAVPhaseRegAlloc@@@Z 08008b90 f   ad_i486.obj
 0001:00007c40       ?emit@storeSSINode@@EBEXAAVCodeBuffer@@PAVPhaseRegAlloc@@@Z 08008c40 f   ad_i486.obj
 0001:00007c40       ?emit@storeSSPNode@@EBEXAAVCodeBuffer@@PAVPhaseRegAlloc@@@Z 08008c40 f   ad_i486.obj
 0001:00007c90       ?emit@storeSSLNode@@EBEXAAVCodeBuffer@@PAVPhaseRegAlloc@@@Z 08008c90 f   ad_i486.obj
 0001:00007db0       ?emit@CreateExceptionNode@@EBEXAAVCodeBuffer@@PAVPhaseRegAlloc@@@Z 08008db0 f   ad_i486.obj
 0001:00007db0       ?emit@checkCastPPNode@@EBEXAAVCodeBuffer@@PAVPhaseRegAlloc@@@Z 08008db0 f   ad_i486.obj
 0001:00007db0       ?emit@membar_release_lockNode@@EBEXAAVCodeBuffer@@PAVPhaseRegAlloc@@@Z 08008db0 f   ad_i486.obj
 0001:00007db0       ?emit@castL2PNode@@EBEXAAVCodeBuffer@@PAVPhaseRegAlloc@@@Z 08008db0 f   ad_i486.obj
 0001:00007db0       ?emit@membar_acquire_lockNode@@EBEXAAVCodeBuffer@@PAVPhaseRegAlloc@@@Z 08008db0 f   ad_i486.obj
 0001:00007db0       ?emit@membar_acquireNode@@EBEXAAVCodeBuffer@@PAVPhaseRegAlloc@@@Z 08008db0 f   ad_i486.obj
 0001:00007db0       ?emit@membar_cpu_orderNode@@EBEXAAVCodeBuffer@@PAVPhaseRegAlloc@@@Z 08008db0 f   ad_i486.obj
 0001:00007db0       ?emit@castPPNode@@EBEXAAVCodeBuffer@@PAVPhaseRegAlloc@@@Z 08008db0 f   ad_i486.obj
 0001:00007db0       ?emit@membar_releaseNode@@EBEXAAVCodeBuffer@@PAVPhaseRegAlloc@@@Z 08008db0 f   ad_i486.obj
 0001:00007dc0       ?size@membar_acquireNode@@EBEIPAVPhaseRegAlloc@@@Z 08008dc0 f   ad_i486.obj
 0001:00007dc0       ?match_edge@ReturnNode@@UBEII@Z 08008dc0 f   ad_i486.obj
 0001:00007dc0       ?match_edge@SafePointNode@@UBEII@Z 08008dc0 f   ad_i486.obj
 0001:00007dc0       ?size@Node@@UBEIPAVPhaseRegAlloc@@@Z 08008dc0 f   ad_i486.obj
 0001:00007dc0       ?policy_align@IdealLoopTree@@QBEHPAVPhaseIdealLoop@@@Z 08008dc0 f   ad_i486.obj
 0001:00007dc0       ?size@membar_releaseNode@@EBEIPAVPhaseRegAlloc@@@Z 08008dc0 f   ad_i486.obj
 0001:00007dc0       ?size@membar_acquire_lockNode@@EBEIPAVPhaseRegAlloc@@@Z 08008dc0 f   ad_i486.obj
 0001:00007dc0       ?compute_modifier_flags@Klass@@UBEHPAVThread@@@Z 08008dc0 f   ad_i486.obj
 0001:00007dc0       ?size@CreateExceptionNode@@EBEIPAVPhaseRegAlloc@@@Z 08008dc0 f   ad_i486.obj
 0001:00007dc0       ?match_edge@CallNode@@UBEII@Z 08008dc0 f   ad_i486.obj
 0001:00007dc0       ?Ideal_DU_postCCP@Node@@UAEPAV1@PAVPhaseCCP@@@Z 08008dc0 f   ad_i486.obj
 0001:00007dc0       ?match_edge@RethrowNode@@UBEII@Z 08008dc0 f   ad_i486.obj
 0001:00007dc0       ?possible_gc_point@OopMapForCacheEntry@@EAEHPAVBytecodeStream@@@Z 08008dc0 f   ad_i486.obj
 0001:00007dc0       ?size@membar_release_lockNode@@EBEIPAVPhaseRegAlloc@@@Z 08008dc0 f   ad_i486.obj
 0001:00007dc0       ?get_int@Node@@UBEHPAH@Z   08008dc0 f   ad_i486.obj
 0001:00007dc0       ?size@checkCastPPNode@@EBEIPAVPhaseRegAlloc@@@Z 08008dc0 f   ad_i486.obj
 0001:00007dd0       ?emit@membar_volatileNode@@EBEXAAVCodeBuffer@@PAVPhaseRegAlloc@@@Z 08008dd0 f   ad_i486.obj
 0001:00007e00       ?emit@movINode@@EBEXAAVCodeBuffer@@PAVPhaseRegAlloc@@@Z 08008e00 f   ad_i486.obj
 0001:00007e00       ?emit@movPNode@@EBEXAAVCodeBuffer@@PAVPhaseRegAlloc@@@Z 08008e00 f   ad_i486.obj
 0001:00007e00       ?emit@castP2INode@@EBEXAAVCodeBuffer@@PAVPhaseRegAlloc@@@Z 08008e00 f   ad_i486.obj
 0001:00007e00       ?emit@movP_nocopyNode@@EBEXAAVCodeBuffer@@PAVPhaseRegAlloc@@@Z 08008e00 f   ad_i486.obj
 0001:00007e00       ?emit@movI_nocopyNode@@EBEXAAVCodeBuffer@@PAVPhaseRegAlloc@@@Z 08008e00 f   ad_i486.obj
 0001:00007e00       ?emit@convL2I_regNode@@EBEXAAVCodeBuffer@@PAVPhaseRegAlloc@@@Z 08008e00 f   ad_i486.obj
 0001:00007e40       ?size@shlI_eReg_1Node@@EBEIPAVPhaseRegAlloc@@@Z 08008e40 f   ad_i486.obj
 0001:00007e40       ?size@salI_eReg_CLNode@@EBEIPAVPhaseRegAlloc@@@Z 08008e40 f   ad_i486.obj
 0001:00007e40       ?size@shrI_eReg_1Node@@EBEIPAVPhaseRegAlloc@@@Z 08008e40 f   ad_i486.obj
 0001:00007e40       ?size@addP_eRegNode@@EBEIPAVPhaseRegAlloc@@@Z 08008e40 f   ad_i486.obj
 0001:00007e40       ?size@subP_eRegNode@@EBEIPAVPhaseRegAlloc@@@Z 08008e40 f   ad_i486.obj
 0001:00007e40       ?size@jmpCon_shortNode@@EBEIPAVPhaseRegAlloc@@@Z 08008e40 f   ad_i486.obj
 0001:00007e40       ?size@andI_eRegNode@@EBEIPAVPhaseRegAlloc@@@Z 08008e40 f   ad_i486.obj
 0001:00007e40       ?size@movINode@@EBEIPAVPhaseRegAlloc@@@Z 08008e40 f   ad_i486.obj
 0001:00007e40       ?size@jmpDir_shortNode@@EBEIPAVPhaseRegAlloc@@@Z 08008e40 f   ad_i486.obj
 0001:00007e40       ?size@orI_eRegNode@@EBEIPAVPhaseRegAlloc@@@Z 08008e40 f   ad_i486.obj
 0001:00007e40       ?size@shrI_eReg_CLNode@@EBEIPAVPhaseRegAlloc@@@Z 08008e40 f   ad_i486.obj
 0001:00007e40       ?size@jmpConU_shortNode@@EBEIPAVPhaseRegAlloc@@@Z 08008e40 f   ad_i486.obj
 0001:00007e40       ?size@addI_eRegNode@@EBEIPAVPhaseRegAlloc@@@Z 08008e40 f   ad_i486.obj
 0001:00007e40       ?size@sarI_eReg_CLNode@@EBEIPAVPhaseRegAlloc@@@Z 08008e40 f   ad_i486.obj
 0001:00007e40       ?size@jmpLoopEnd_shortNode@@EBEIPAVPhaseRegAlloc@@@Z 08008e40 f   ad_i486.obj
 0001:00007e40       ?size@movPNode@@EBEIPAVPhaseRegAlloc@@@Z 08008e40 f   ad_i486.obj
 0001:00007e40       ?size@xorI_eRegNode@@EBEIPAVPhaseRegAlloc@@@Z 08008e40 f   ad_i486.obj
 0001:00007e40       ?size@negI_eRegNode@@EBEIPAVPhaseRegAlloc@@@Z 08008e40 f   ad_i486.obj
 0001:00007e40       ?size@subI_eRegNode@@EBEIPAVPhaseRegAlloc@@@Z 08008e40 f   ad_i486.obj
 0001:00007e40       ?size@sarI_eReg_1Node@@EBEIPAVPhaseRegAlloc@@@Z 08008e40 f   ad_i486.obj
 0001:00007e40       ?size@jmpLoopEndU_shortNode@@EBEIPAVPhaseRegAlloc@@@Z 08008e40 f   ad_i486.obj
 0001:00007e50       ?emit@movLNode@@EBEXAAVCodeBuffer@@PAVPhaseRegAlloc@@@Z 08008e50 f   ad_i486.obj
 0001:00007ee0       ?emit@movFNode@@EBEXAAVCodeBuffer@@PAVPhaseRegAlloc@@@Z 08008ee0 f   ad_i486.obj
 0001:00007ee0       ?emit@movDNode@@EBEXAAVCodeBuffer@@PAVPhaseRegAlloc@@@Z 08008ee0 f   ad_i486.obj
 0001:00007f50       ?emit@movXNode@@EBEXAAVCodeBuffer@@PAVPhaseRegAlloc@@@Z 08008f50 f   ad_i486.obj
 0001:00007fb0       ?emit@castP2LNode@@EBEXAAVCodeBuffer@@PAVPhaseRegAlloc@@@Z 08008fb0 f   ad_i486.obj
 0001:00007fe0       ?emit@cmovI_memuNode@@EBEXAAVCodeBuffer@@PAVPhaseRegAlloc@@@Z 08008fe0 f   ad_i486.obj
 0001:00007fe0       ?emit@cmovI_memNode@@EBEXAAVCodeBuffer@@PAVPhaseRegAlloc@@@Z 08008fe0 f   ad_i486.obj
 0001:00007fe0       ?emit@cmovII_mem_LEGTNode@@EBEXAAVCodeBuffer@@PAVPhaseRegAlloc@@@Z 08008fe0 f   ad_i486.obj
 0001:00007fe0       ?emit@cmovII_mem_EQNENode@@EBEXAAVCodeBuffer@@PAVPhaseRegAlloc@@@Z 08008fe0 f   ad_i486.obj
 0001:00007fe0       ?emit@cmovII_mem_LTGENode@@EBEXAAVCodeBuffer@@PAVPhaseRegAlloc@@@Z 08008fe0 f   ad_i486.obj
 0001:000080c0       ?emit@cmovP_reg_nonP6Node@@EBEXAAVCodeBuffer@@PAVPhaseRegAlloc@@@Z 080090c0 f   ad_i486.obj
 0001:00008160       ?emit@fcmovD_regUNode@@EBEXAAVCodeBuffer@@PAVPhaseRegAlloc@@@Z 08009160 f   ad_i486.obj
 0001:00008160       ?emit@fcmovF_regUNode@@EBEXAAVCodeBuffer@@PAVPhaseRegAlloc@@@Z 08009160 f   ad_i486.obj
 0001:000081e0       ?emit@fcmovF_regSNode@@EBEXAAVCodeBuffer@@PAVPhaseRegAlloc@@@Z 080091e0 f   ad_i486.obj
 0001:000081e0       ?emit@fcmovD_regSNode@@EBEXAAVCodeBuffer@@PAVPhaseRegAlloc@@@Z 080091e0 f   ad_i486.obj
 0001:00008290       ?emit@fcmovXD_regSNode@@EBEXAAVCodeBuffer@@PAVPhaseRegAlloc@@@Z 08009290 f   ad_i486.obj
 0001:00008290       ?emit@fcmovXD_regUNode@@EBEXAAVCodeBuffer@@PAVPhaseRegAlloc@@@Z 08009290 f   ad_i486.obj
 0001:00008340       ?emit@fcmovX_regUNode@@EBEXAAVCodeBuffer@@PAVPhaseRegAlloc@@@Z 08009340 f   ad_i486.obj
 0001:00008340       ?emit@fcmovX_regSNode@@EBEXAAVCodeBuffer@@PAVPhaseRegAlloc@@@Z 08009340 f   ad_i486.obj
 0001:000083f0       ?emit@cmovLL_reg_LEGTNode@@EBEXAAVCodeBuffer@@PAVPhaseRegAlloc@@@Z 080093f0 f   ad_i486.obj
 0001:000083f0       ?emit@cmovL_regUNode@@EBEXAAVCodeBuffer@@PAVPhaseRegAlloc@@@Z 080093f0 f   ad_i486.obj
 0001:000083f0       ?emit@cmovL_regNode@@EBEXAAVCodeBuffer@@PAVPhaseRegAlloc@@@Z 080093f0 f   ad_i486.obj
 0001:000083f0       ?emit@cmovLL_reg_EQNENode@@EBEXAAVCodeBuffer@@PAVPhaseRegAlloc@@@Z 080093f0 f   ad_i486.obj
 0001:000083f0       ?emit@cmovLL_reg_LTGENode@@EBEXAAVCodeBuffer@@PAVPhaseRegAlloc@@@Z 080093f0 f   ad_i486.obj
 0001:000084d0       ?emit@addI_eRegNode@@EBEXAAVCodeBuffer@@PAVPhaseRegAlloc@@@Z 080094d0 f   ad_i486.obj
 0001:00008530       ?emit@addI_eReg_immNode@@EBEXAAVCodeBuffer@@PAVPhaseRegAlloc@@@Z 08009530 f   ad_i486.obj
 0001:000085e0       ?emit@incI_eRegNode@@EBEXAAVCodeBuffer@@PAVPhaseRegAlloc@@@Z 080095e0 f   ad_i486.obj
 0001:00008620       ?emit@leaI_eReg_immINode@@EBEXAAVCodeBuffer@@PAVPhaseRegAlloc@@@Z 08009620 f   ad_i486.obj
 0001:00008690       ?emit@leaP_eReg_immINode@@EBEXAAVCodeBuffer@@PAVPhaseRegAlloc@@@Z 08009690 f   ad_i486.obj
 0001:00008700       ?emit@decI_eRegNode@@EBEXAAVCodeBuffer@@PAVPhaseRegAlloc@@@Z 08009700 f   ad_i486.obj
 0001:00008740       ?emit@addP_eRegNode@@EBEXAAVCodeBuffer@@PAVPhaseRegAlloc@@@Z 08009740 f   ad_i486.obj
 0001:000087a0       ?emit@addP_eReg_immNode@@EBEXAAVCodeBuffer@@PAVPhaseRegAlloc@@@Z 080097a0 f   ad_i486.obj
 0001:00008850       ?emit@addI_eReg_memNode@@EBEXAAVCodeBuffer@@PAVPhaseRegAlloc@@@Z 08009850 f   ad_i486.obj
 0001:00008900       ?emit@addI_mem_eRegNode@@EBEXAAVCodeBuffer@@PAVPhaseRegAlloc@@@Z 08009900 f   ad_i486.obj
 0001:000089b0       ?emit@addI_mem_immNode@@EBEXAAVCodeBuffer@@PAVPhaseRegAlloc@@@Z 080099b0 f   ad_i486.obj
 0001:00008ab0       ?emit@incI_memNode@@EBEXAAVCodeBuffer@@PAVPhaseRegAlloc@@@Z 08009ab0 f   ad_i486.obj
 0001:00008b50       ?emit@decI_memNode@@EBEXAAVCodeBuffer@@PAVPhaseRegAlloc@@@Z 08009b50 f   ad_i486.obj
 0001:00008bf0       ?emit@loadLLockedNode@@EBEXAAVCodeBuffer@@PAVPhaseRegAlloc@@@Z 08009bf0 f   ad_i486.obj
 0001:00008bf0       ?emit@loadL_volatileNode@@EBEXAAVCodeBuffer@@PAVPhaseRegAlloc@@@Z 08009bf0 f   ad_i486.obj
 0001:00008ca0       ?emit@storePConditionalNode@@EBEXAAVCodeBuffer@@PAVPhaseRegAlloc@@@Z 08009ca0 f   ad_i486.obj
 0001:00008d70       ?emit@storeLConditionalNode@@EBEXAAVCodeBuffer@@PAVPhaseRegAlloc@@@Z 08009d70 f   ad_i486.obj
 0001:00008e50       ?emit@storeLConditional_flagsNode@@EBEXAAVCodeBuffer@@PAVPhaseRegAlloc@@@Z 08009e50 f   ad_i486.obj
 0001:00008f00       ?emit@subI_eRegNode@@EBEXAAVCodeBuffer@@PAVPhaseRegAlloc@@@Z 08009f00 f   ad_i486.obj
 0001:00008f60       ?emit@subI_eReg_immNode@@EBEXAAVCodeBuffer@@PAVPhaseRegAlloc@@@Z 08009f60 f   ad_i486.obj
 0001:00009010       ?emit@subI_eReg_memNode@@EBEXAAVCodeBuffer@@PAVPhaseRegAlloc@@@Z 0800a010 f   ad_i486.obj
 0001:000090c0       ?emit@subI_mem_eRegNode@@EBEXAAVCodeBuffer@@PAVPhaseRegAlloc@@@Z 0800a0c0 f   ad_i486.obj
 0001:00009170       ?emit@subP_eRegNode@@EBEXAAVCodeBuffer@@PAVPhaseRegAlloc@@@Z 0800a170 f   ad_i486.obj
 0001:000091e0       ?emit@negI_eRegNode@@EBEXAAVCodeBuffer@@PAVPhaseRegAlloc@@@Z 0800a1e0 f   ad_i486.obj
 0001:00009230       ?emit@mulI_eRegNode@@EBEXAAVCodeBuffer@@PAVPhaseRegAlloc@@@Z 0800a230 f   ad_i486.obj
 0001:000092a0       ?size@sarI_eReg_immNode@@EBEIPAVPhaseRegAlloc@@@Z 0800a2a0 f   ad_i486.obj
 0001:000092a0       ?size@i2bNode@@EBEIPAVPhaseRegAlloc@@@Z 0800a2a0 f   ad_i486.obj
 0001:000092a0       ?size@mulI_eRegNode@@EBEIPAVPhaseRegAlloc@@@Z 0800a2a0 f   ad_i486.obj
 0001:000092a0       ?size@i2sNode@@EBEIPAVPhaseRegAlloc@@@Z 0800a2a0 f   ad_i486.obj
 0001:000092a0       ?size@shrI_eReg_immNode@@EBEIPAVPhaseRegAlloc@@@Z 0800a2a0 f   ad_i486.obj
 0001:000092a0       ?size@salI_eReg_immNode@@EBEIPAVPhaseRegAlloc@@@Z 0800a2a0 f   ad_i486.obj
 0001:000092b0       ?emit@mulI_eReg_immNode@@EBEXAAVCodeBuffer@@PAVPhaseRegAlloc@@@Z 0800a2b0 f   ad_i486.obj
 0001:00009370       ?emit@loadConL_low_onlyNode@@EBEXAAVCodeBuffer@@PAVPhaseRegAlloc@@@Z 0800a370 f   ad_i486.obj
 0001:000093e0       ?emit@mulI_imm_RShift_highNode@@EBEXAAVCodeBuffer@@PAVPhaseRegAlloc@@@Z 0800a3e0 f   ad_i486.obj
 0001:000093e0       ?emit@mulI_imm_highNode@@EBEXAAVCodeBuffer@@PAVPhaseRegAlloc@@@Z 0800a3e0 f   ad_i486.obj
 0001:00009480       ?emit@mulI_mem_immNode@@EBEXAAVCodeBuffer@@PAVPhaseRegAlloc@@@Z 0800a480 f   ad_i486.obj
 0001:00009580       ?emit@mulINode@@EBEXAAVCodeBuffer@@PAVPhaseRegAlloc@@@Z 0800a580 f   ad_i486.obj
 0001:00009640       ?emit@mulL_eRegNode@@EBEXAAVCodeBuffer@@PAVPhaseRegAlloc@@@Z 0800a640 f   ad_i486.obj
 0001:00009790       ?emit@mulL_eReg_conNode@@EBEXAAVCodeBuffer@@PAVPhaseRegAlloc@@@Z 0800a790 f   ad_i486.obj
 0001:00009840       ?size@modI_eRegNode@@EBEIPAVPhaseRegAlloc@@@Z 0800a840 f   ad_i486.obj
 0001:00009840       ?size@divI_eRegNode@@EBEIPAVPhaseRegAlloc@@@Z 0800a840 f   ad_i486.obj
 0001:00009850       ?emit@divL_eRegNode@@EBEXAAVCodeBuffer@@PAVPhaseRegAlloc@@@Z 0800a850 f   ad_i486.obj
 0001:00009980       ?emit@modI_eRegNode@@EBEXAAVCodeBuffer@@PAVPhaseRegAlloc@@@Z 0800a980 f   ad_i486.obj
 0001:00009980       ?emit@divI_eRegNode@@EBEXAAVCodeBuffer@@PAVPhaseRegAlloc@@@Z 0800a980 f   ad_i486.obj
 0001:00009ac0       ?emit@modL_eRegNode@@EBEXAAVCodeBuffer@@PAVPhaseRegAlloc@@@Z 0800aac0 f   ad_i486.obj
 0001:00009bf0       ?emit@shlI_eReg_1Node@@EBEXAAVCodeBuffer@@PAVPhaseRegAlloc@@@Z 0800abf0 f   ad_i486.obj
 0001:00009c40       ?emit@salI_eReg_immNode@@EBEXAAVCodeBuffer@@PAVPhaseRegAlloc@@@Z 0800ac40 f   ad_i486.obj
 0001:00009ca0       ?emit@salI_eReg_CLNode@@EBEXAAVCodeBuffer@@PAVPhaseRegAlloc@@@Z 0800aca0 f   ad_i486.obj
 0001:00009cf0       ?emit@sarI_eReg_1Node@@EBEXAAVCodeBuffer@@PAVPhaseRegAlloc@@@Z 0800acf0 f   ad_i486.obj
 0001:00009d40       ?emit@sarI_mem_1Node@@EBEXAAVCodeBuffer@@PAVPhaseRegAlloc@@@Z 0800ad40 f   ad_i486.obj
 0001:00009de0       ?emit@sarI_eReg_immNode@@EBEXAAVCodeBuffer@@PAVPhaseRegAlloc@@@Z 0800ade0 f   ad_i486.obj
 0001:00009e40       ?emit@sarI_mem_immNode@@EBEXAAVCodeBuffer@@PAVPhaseRegAlloc@@@Z 0800ae40 f   ad_i486.obj
 0001:00009f20       ?emit@sarI_eReg_CLNode@@EBEXAAVCodeBuffer@@PAVPhaseRegAlloc@@@Z 0800af20 f   ad_i486.obj
 0001:00009f70       ?emit@shrI_eReg_1Node@@EBEXAAVCodeBuffer@@PAVPhaseRegAlloc@@@Z 0800af70 f   ad_i486.obj
 0001:00009fc0       ?emit@shrI_eReg_immNode@@EBEXAAVCodeBuffer@@PAVPhaseRegAlloc@@@Z 0800afc0 f   ad_i486.obj
 0001:0000a020       ?emit@i2bNode@@EBEXAAVCodeBuffer@@PAVPhaseRegAlloc@@@Z 0800b020 f   ad_i486.obj
 0001:0000a090       ?emit@i2sNode@@EBEXAAVCodeBuffer@@PAVPhaseRegAlloc@@@Z 0800b090 f   ad_i486.obj
 0001:0000a100       ?emit@shrI_eReg_CLNode@@EBEXAAVCodeBuffer@@PAVPhaseRegAlloc@@@Z 0800b100 f   ad_i486.obj
 0001:0000a150       ?emit@andI_eRegNode@@EBEXAAVCodeBuffer@@PAVPhaseRegAlloc@@@Z 0800b150 f   ad_i486.obj
 0001:0000a1b0       ?emit@andI_eReg_immNode@@EBEXAAVCodeBuffer@@PAVPhaseRegAlloc@@@Z 0800b1b0 f   ad_i486.obj
 0001:0000a260       ?emit@andI_eReg_memNode@@EBEXAAVCodeBuffer@@PAVPhaseRegAlloc@@@Z 0800b260 f   ad_i486.obj
 0001:0000a310       ?emit@andI_mem_eRegNode@@EBEXAAVCodeBuffer@@PAVPhaseRegAlloc@@@Z 0800b310 f   ad_i486.obj
 0001:0000a3c0       ?emit@andI_mem_immNode@@EBEXAAVCodeBuffer@@PAVPhaseRegAlloc@@@Z 0800b3c0 f   ad_i486.obj
 0001:0000a4c0       ?emit@orI_eRegNode@@EBEXAAVCodeBuffer@@PAVPhaseRegAlloc@@@Z 0800b4c0 f   ad_i486.obj
 0001:0000a520       ?emit@orI_eReg_immNode@@EBEXAAVCodeBuffer@@PAVPhaseRegAlloc@@@Z 0800b520 f   ad_i486.obj
 0001:0000a5d0       ?emit@orI_eReg_memNode@@EBEXAAVCodeBuffer@@PAVPhaseRegAlloc@@@Z 0800b5d0 f   ad_i486.obj
 0001:0000a680       ?emit@orI_mem_eRegNode@@EBEXAAVCodeBuffer@@PAVPhaseRegAlloc@@@Z 0800b680 f   ad_i486.obj
 0001:0000a730       ?emit@orI_mem_immNode@@EBEXAAVCodeBuffer@@PAVPhaseRegAlloc@@@Z 0800b730 f   ad_i486.obj
 0001:0000a830       ?emit@xorI_eRegNode@@EBEXAAVCodeBuffer@@PAVPhaseRegAlloc@@@Z 0800b830 f   ad_i486.obj
 0001:0000a890       ?emit@xorI_eReg_immNode@@EBEXAAVCodeBuffer@@PAVPhaseRegAlloc@@@Z 0800b890 f   ad_i486.obj
 0001:0000a940       ?emit@xorI_eReg_memNode@@EBEXAAVCodeBuffer@@PAVPhaseRegAlloc@@@Z 0800b940 f   ad_i486.obj
 0001:0000a9f0       ?emit@xorI_mem_eRegNode@@EBEXAAVCodeBuffer@@PAVPhaseRegAlloc@@@Z 0800b9f0 f   ad_i486.obj
 0001:0000aaa0       ?emit@xorI_mem_immNode@@EBEXAAVCodeBuffer@@PAVPhaseRegAlloc@@@Z 0800baa0 f   ad_i486.obj
 0001:0000aba0       ?emit@cp2bNode@@EBEXAAVCodeBuffer@@PAVPhaseRegAlloc@@@Z 0800bba0 f   ad_i486.obj
 0001:0000aba0       ?emit@ci2bNode@@EBEXAAVCodeBuffer@@PAVPhaseRegAlloc@@@Z 0800bba0 f   ad_i486.obj
 0001:0000ac30       ?emit@cmpLTMaskNode@@EBEXAAVCodeBuffer@@PAVPhaseRegAlloc@@@Z 0800bc30 f   ad_i486.obj
 0001:0000ad10       ?emit@cmpLTMask0Node@@EBEXAAVCodeBuffer@@PAVPhaseRegAlloc@@@Z 0800bd10 f   ad_i486.obj
 0001:0000ad60       ?emit@cadd_cmpLTMask1Node@@EBEXAAVCodeBuffer@@PAVPhaseRegAlloc@@@Z 0800bd60 f   ad_i486.obj
 0001:0000ae40       ?emit@cadd_cmpLTMask2Node@@EBEXAAVCodeBuffer@@PAVPhaseRegAlloc@@@Z 0800be40 f   ad_i486.obj
 0001:0000af30       ?emit@addL_eRegNode@@EBEXAAVCodeBuffer@@PAVPhaseRegAlloc@@@Z 0800bf30 f   ad_i486.obj
 0001:0000afd0       ?emit@addL_eReg_immNode@@EBEXAAVCodeBuffer@@PAVPhaseRegAlloc@@@Z 0800bfd0 f   ad_i486.obj
 0001:0000b0c0       ?emit@addL_eReg_memNode@@EBEXAAVCodeBuffer@@PAVPhaseRegAlloc@@@Z 0800c0c0 f   ad_i486.obj
 0001:0000b1e0       ?emit@subL_eRegNode@@EBEXAAVCodeBuffer@@PAVPhaseRegAlloc@@@Z 0800c1e0 f   ad_i486.obj
 0001:0000b280       ?emit@subL_eReg_immNode@@EBEXAAVCodeBuffer@@PAVPhaseRegAlloc@@@Z 0800c280 f   ad_i486.obj
 0001:0000b370       ?emit@subL_eReg_memNode@@EBEXAAVCodeBuffer@@PAVPhaseRegAlloc@@@Z 0800c370 f   ad_i486.obj
 0001:0000b490       ?emit@negL_eRegNode@@EBEXAAVCodeBuffer@@PAVPhaseRegAlloc@@@Z 0800c490 f   ad_i486.obj
 0001:0000b540       ?emit@andL_eRegNode@@EBEXAAVCodeBuffer@@PAVPhaseRegAlloc@@@Z 0800c540 f   ad_i486.obj
 0001:0000b5e0       ?emit@andL_eReg_immNode@@EBEXAAVCodeBuffer@@PAVPhaseRegAlloc@@@Z 0800c5e0 f   ad_i486.obj
 0001:0000b6d0       ?emit@andL_eReg_memNode@@EBEXAAVCodeBuffer@@PAVPhaseRegAlloc@@@Z 0800c6d0 f   ad_i486.obj
 0001:0000b7f0       ?emit@orl_eRegNode@@EBEXAAVCodeBuffer@@PAVPhaseRegAlloc@@@Z 0800c7f0 f   ad_i486.obj
 0001:0000b890       ?emit@orl_eReg_immNode@@EBEXAAVCodeBuffer@@PAVPhaseRegAlloc@@@Z 0800c890 f   ad_i486.obj
 0001:0000b980       ?emit@orl_eReg_memNode@@EBEXAAVCodeBuffer@@PAVPhaseRegAlloc@@@Z 0800c980 f   ad_i486.obj
 0001:0000baa0       ?emit@xorl_eRegNode@@EBEXAAVCodeBuffer@@PAVPhaseRegAlloc@@@Z 0800caa0 f   ad_i486.obj
 0001:0000bb40       ?emit@xorl_eReg_immNode@@EBEXAAVCodeBuffer@@PAVPhaseRegAlloc@@@Z 0800cb40 f   ad_i486.obj
 0001:0000bc30       ?emit@xorl_eReg_memNode@@EBEXAAVCodeBuffer@@PAVPhaseRegAlloc@@@Z 0800cc30 f   ad_i486.obj
 0001:0000bd50       ?emit@shlL_eReg_1_31Node@@EBEXAAVCodeBuffer@@PAVPhaseRegAlloc@@@Z 0800cd50 f   ad_i486.obj
 0001:0000bdf0       ?emit@shlL_eReg_32_63Node@@EBEXAAVCodeBuffer@@PAVPhaseRegAlloc@@@Z 0800cdf0 f   ad_i486.obj
 0001:0000bea0       ?emit@salL_eReg_CLNode@@EBEXAAVCodeBuffer@@PAVPhaseRegAlloc@@@Z 0800cea0 f   ad_i486.obj
 0001:0000bfc0       ?size@shrL_eReg_CLNode@@EBEIPAVPhaseRegAlloc@@@Z 0800cfc0 f   ad_i486.obj
 0001:0000bfc0       ?size@salL_eReg_CLNode@@EBEIPAVPhaseRegAlloc@@@Z 0800cfc0 f   ad_i486.obj
 0001:0000bfd0       ?emit@shrL_eReg_1_31Node@@EBEXAAVCodeBuffer@@PAVPhaseRegAlloc@@@Z 0800cfd0 f   ad_i486.obj
 0001:0000c070       ?emit@shrL_eReg_32_63Node@@EBEXAAVCodeBuffer@@PAVPhaseRegAlloc@@@Z 0800d070 f   ad_i486.obj
 0001:0000c120       ?emit@shrL_eReg_CLNode@@EBEXAAVCodeBuffer@@PAVPhaseRegAlloc@@@Z 0800d120 f   ad_i486.obj
 0001:0000c250       ?emit@sarL_eReg_1_31Node@@EBEXAAVCodeBuffer@@PAVPhaseRegAlloc@@@Z 0800d250 f   ad_i486.obj
 0001:0000c2f0       ?emit@sarL_eReg_32_63Node@@EBEXAAVCodeBuffer@@PAVPhaseRegAlloc@@@Z 0800d2f0 f   ad_i486.obj
 0001:0000c3c0       ?emit@sarL_eReg_CLNode@@EBEXAAVCodeBuffer@@PAVPhaseRegAlloc@@@Z 0800d3c0 f   ad_i486.obj
 0001:0000c4f0       ?size@sarL_eReg_CLNode@@EBEIPAVPhaseRegAlloc@@@Z 0800d4f0 f   ad_i486.obj
 0001:0000c500       ?emit@cmpD_ccNode@@EBEXAAVCodeBuffer@@PAVPhaseRegAlloc@@@Z 0800d500 f   ad_i486.obj
 0001:0000c500       ?emit@cmpF_ccNode@@EBEXAAVCodeBuffer@@PAVPhaseRegAlloc@@@Z 0800d500 f   ad_i486.obj
 0001:0000c5e0       ?emit@cmpD_0Node@@EBEXAAVCodeBuffer@@PAVPhaseRegAlloc@@@Z 0800d5e0 f   ad_i486.obj
 0001:0000c5e0       ?emit@cmpF_0Node@@EBEXAAVCodeBuffer@@PAVPhaseRegAlloc@@@Z 0800d5e0 f   ad_i486.obj
 0001:0000c730       ?emit@cmpXD_ccNode@@EBEXAAVCodeBuffer@@PAVPhaseRegAlloc@@@Z 0800d730 f   ad_i486.obj
 0001:0000c7e0       ?emit@cmpXD_ccmemNode@@EBEXAAVCodeBuffer@@PAVPhaseRegAlloc@@@Z 0800d7e0 f   ad_i486.obj
 0001:0000c8e0       ?emit@cmpXD_regNode@@EBEXAAVCodeBuffer@@PAVPhaseRegAlloc@@@Z 0800d8e0 f   ad_i486.obj
 0001:0000c9f0       ?emit@cmpXD_regmemNode@@EBEXAAVCodeBuffer@@PAVPhaseRegAlloc@@@Z 0800d9f0 f   ad_i486.obj
 0001:0000cb40       ?emit@subF_regNode@@EBEXAAVCodeBuffer@@PAVPhaseRegAlloc@@@Z 0800db40 f   ad_i486.obj
 0001:0000cb40       ?emit@subD_regNode@@EBEXAAVCodeBuffer@@PAVPhaseRegAlloc@@@Z 0800db40 f   ad_i486.obj
 0001:0000cbc0       ?emit@subD_reg_roundNode@@EBEXAAVCodeBuffer@@PAVPhaseRegAlloc@@@Z 0800dbc0 f   ad_i486.obj
 0001:0000cc50       ?emit@subD_reg_memNode@@EBEXAAVCodeBuffer@@PAVPhaseRegAlloc@@@Z 0800dc50 f   ad_i486.obj
 0001:0000cd10       ?emit@absD_regNode@@EBEXAAVCodeBuffer@@PAVPhaseRegAlloc@@@Z 0800dd10 f   ad_i486.obj
 0001:0000cd10       ?emit@absF_regNode@@EBEXAAVCodeBuffer@@PAVPhaseRegAlloc@@@Z 0800dd10 f   ad_i486.obj
 0001:0000cd40       ?emit@absXD_regNode@@EBEXAAVCodeBuffer@@PAVPhaseRegAlloc@@@Z 0800dd40 f   ad_i486.obj
 0001:0000cda0       ?emit@negF_regNode@@EBEXAAVCodeBuffer@@PAVPhaseRegAlloc@@@Z 0800dda0 f   ad_i486.obj
 0001:0000cda0       ?emit@negD_regNode@@EBEXAAVCodeBuffer@@PAVPhaseRegAlloc@@@Z 0800dda0 f   ad_i486.obj
 0001:0000cdd0       ?emit@negXD_regNode@@EBEXAAVCodeBuffer@@PAVPhaseRegAlloc@@@Z 0800ddd0 f   ad_i486.obj
 0001:0000ce30       ?emit@addF_regNode@@EBEXAAVCodeBuffer@@PAVPhaseRegAlloc@@@Z 0800de30 f   ad_i486.obj
 0001:0000ce30       ?emit@addD_regNode@@EBEXAAVCodeBuffer@@PAVPhaseRegAlloc@@@Z 0800de30 f   ad_i486.obj
 0001:0000ceb0       ?emit@addD_reg_roundNode@@EBEXAAVCodeBuffer@@PAVPhaseRegAlloc@@@Z 0800deb0 f   ad_i486.obj
 0001:0000cf40       ?emit@addD_reg_memNode@@EBEXAAVCodeBuffer@@PAVPhaseRegAlloc@@@Z 0800df40 f   ad_i486.obj
 0001:0000d000       ?emit@addD_mem_regNode@@EBEXAAVCodeBuffer@@PAVPhaseRegAlloc@@@Z 0800e000 f   ad_i486.obj
 0001:0000d140       ?emit@addD_reg_imm1Node@@EBEXAAVCodeBuffer@@PAVPhaseRegAlloc@@@Z 0800e140 f   ad_i486.obj
 0001:0000d140       ?emit@addD_reg_immNode@@EBEXAAVCodeBuffer@@PAVPhaseRegAlloc@@@Z 0800e140 f   ad_i486.obj
 0001:0000d230       ?emit@addD_reg_imm_roundNode@@EBEXAAVCodeBuffer@@PAVPhaseRegAlloc@@@Z 0800e230 f   ad_i486.obj
 0001:0000d340       ?emit@addXD_regNode@@EBEXAAVCodeBuffer@@PAVPhaseRegAlloc@@@Z 0800e340 f   ad_i486.obj
 0001:0000d3b0       ?emit@addXD_immNode@@EBEXAAVCodeBuffer@@PAVPhaseRegAlloc@@@Z 0800e3b0 f   ad_i486.obj
 0001:0000d430       ?emit@addXD_memNode@@EBEXAAVCodeBuffer@@PAVPhaseRegAlloc@@@Z 0800e430 f   ad_i486.obj
 0001:0000d4f0       ?emit@subXD_regNode@@EBEXAAVCodeBuffer@@PAVPhaseRegAlloc@@@Z 0800e4f0 f   ad_i486.obj
 0001:0000d560       ?emit@subXD_immNode@@EBEXAAVCodeBuffer@@PAVPhaseRegAlloc@@@Z 0800e560 f   ad_i486.obj
 0001:0000d5e0       ?emit@subXD_memNode@@EBEXAAVCodeBuffer@@PAVPhaseRegAlloc@@@Z 0800e5e0 f   ad_i486.obj
 0001:0000d6a0       ?emit@mulXD_regNode@@EBEXAAVCodeBuffer@@PAVPhaseRegAlloc@@@Z 0800e6a0 f   ad_i486.obj
 0001:0000d710       ?emit@mulXD_immNode@@EBEXAAVCodeBuffer@@PAVPhaseRegAlloc@@@Z 0800e710 f   ad_i486.obj
 0001:0000d790       ?emit@mulXD_memNode@@EBEXAAVCodeBuffer@@PAVPhaseRegAlloc@@@Z 0800e790 f   ad_i486.obj
 0001:0000d850       ?emit@divXD_regNode@@EBEXAAVCodeBuffer@@PAVPhaseRegAlloc@@@Z 0800e850 f   ad_i486.obj
 0001:0000d8c0       ?emit@divXD_immNode@@EBEXAAVCodeBuffer@@PAVPhaseRegAlloc@@@Z 0800e8c0 f   ad_i486.obj
 0001:0000d940       ?emit@divXD_memNode@@EBEXAAVCodeBuffer@@PAVPhaseRegAlloc@@@Z 0800e940 f   ad_i486.obj
 0001:0000da00       ?emit@mulD_regNode@@EBEXAAVCodeBuffer@@PAVPhaseRegAlloc@@@Z 0800ea00 f   ad_i486.obj
 0001:0000da80       ?emit@strictfp_mulD_regNode@@EBEXAAVCodeBuffer@@PAVPhaseRegAlloc@@@Z 0800ea80 f   ad_i486.obj
 0001:0000db80       ?emit@mulD_reg_immNode@@EBEXAAVCodeBuffer@@PAVPhaseRegAlloc@@@Z 0800eb80 f   ad_i486.obj
 0001:0000dc70       ?emit@mulD_reg_memNode@@EBEXAAVCodeBuffer@@PAVPhaseRegAlloc@@@Z 0800ec70 f   ad_i486.obj
 0001:0000dd30       ?emit@addF_mulF_regNode@@EBEXAAVCodeBuffer@@PAVPhaseRegAlloc@@@Z 0800ed30 f   ad_i486.obj
 0001:0000dd30       ?emit@addD_mulD_regNode@@EBEXAAVCodeBuffer@@PAVPhaseRegAlloc@@@Z 0800ed30 f   ad_i486.obj
 0001:0000dde0       ?emit@subD_mulD_regNode@@EBEXAAVCodeBuffer@@PAVPhaseRegAlloc@@@Z 0800ede0 f   ad_i486.obj
 0001:0000de90       ?emit@strictfp_divD_regNode@@EBEXAAVCodeBuffer@@PAVPhaseRegAlloc@@@Z 0800ee90 f   ad_i486.obj
 0001:0000df90       ?emit@divD_reg_roundNode@@EBEXAAVCodeBuffer@@PAVPhaseRegAlloc@@@Z 0800ef90 f   ad_i486.obj
 0001:0000e020       ?emit@modF_regNode@@EBEXAAVCodeBuffer@@PAVPhaseRegAlloc@@@Z 0800f020 f   ad_i486.obj
 0001:0000e020       ?emit@modD_regNode@@EBEXAAVCodeBuffer@@PAVPhaseRegAlloc@@@Z 0800f020 f   ad_i486.obj
 0001:0000e1f0       ?emit@modXD_regNode@@EBEXAAVCodeBuffer@@PAVPhaseRegAlloc@@@Z 0800f1f0 f   ad_i486.obj
 0001:0000e3f0       ?emit@sinD_regNode@@EBEXAAVCodeBuffer@@PAVPhaseRegAlloc@@@Z 0800f3f0 f   ad_i486.obj
 0001:0000e420       ?emit@sinXD_regNode@@EBEXAAVCodeBuffer@@PAVPhaseRegAlloc@@@Z 0800f420 f   ad_i486.obj
 0001:0000e550       ?emit@cosD_regNode@@EBEXAAVCodeBuffer@@PAVPhaseRegAlloc@@@Z 0800f550 f   ad_i486.obj
 0001:0000e580       ?emit@cosXD_regNode@@EBEXAAVCodeBuffer@@PAVPhaseRegAlloc@@@Z 0800f580 f   ad_i486.obj
 0001:0000e6b0       ?emit@tanD_regNode@@EBEXAAVCodeBuffer@@PAVPhaseRegAlloc@@@Z 0800f6b0 f   ad_i486.obj
 0001:0000e730       ?emit@tanXD_regNode@@EBEXAAVCodeBuffer@@PAVPhaseRegAlloc@@@Z 0800f730 f   ad_i486.obj
 0001:0000e860       ?emit@atanD_regNode@@EBEXAAVCodeBuffer@@PAVPhaseRegAlloc@@@Z 0800f860 f   ad_i486.obj
 0001:0000e8e0       ?emit@atanXD_regNode@@EBEXAAVCodeBuffer@@PAVPhaseRegAlloc@@@Z 0800f8e0 f   ad_i486.obj
 0001:0000ea20       ?emit@sqrtD_regNode@@EBEXAAVCodeBuffer@@PAVPhaseRegAlloc@@@Z 0800fa20 f   ad_i486.obj
 0001:0000eaa0       ?emit@powD_regNode@@EBEXAAVCodeBuffer@@PAVPhaseRegAlloc@@@Z 0800faa0 f   ad_i486.obj
 0001:0000eb90       ?emit@cmpF_cc_P6Node@@EBEXAAVCodeBuffer@@PAVPhaseRegAlloc@@@Z 0800fb90 f   ad_i486.obj
 0001:0000eb90       ?emit@cmpD_cc_P6Node@@EBEXAAVCodeBuffer@@PAVPhaseRegAlloc@@@Z 0800fb90 f   ad_i486.obj
 0001:0000ec40       ?emit@cmpD_regNode@@EBEXAAVCodeBuffer@@PAVPhaseRegAlloc@@@Z 0800fc40 f   ad_i486.obj
 0001:0000ec40       ?emit@cmpF_regNode@@EBEXAAVCodeBuffer@@PAVPhaseRegAlloc@@@Z 0800fc40 f   ad_i486.obj
 0001:0000ed90       ?emit@cmpX_ccNode@@EBEXAAVCodeBuffer@@PAVPhaseRegAlloc@@@Z 0800fd90 f   ad_i486.obj
 0001:0000ee30       ?emit@cmpX_ccmemNode@@EBEXAAVCodeBuffer@@PAVPhaseRegAlloc@@@Z 0800fe30 f   ad_i486.obj
 0001:0000ef20       ?emit@cmpX_regNode@@EBEXAAVCodeBuffer@@PAVPhaseRegAlloc@@@Z 0800ff20 f   ad_i486.obj
 0001:0000f030       ?emit@cmpX_regmemNode@@EBEXAAVCodeBuffer@@PAVPhaseRegAlloc@@@Z 08010030 f   ad_i486.obj
 0001:0000f180       ?emit@subF24_regNode@@EBEXAAVCodeBuffer@@PAVPhaseRegAlloc@@@Z 08010180 f   ad_i486.obj
 0001:0000f210       ?emit@addF24_regNode@@EBEXAAVCodeBuffer@@PAVPhaseRegAlloc@@@Z 08010210 f   ad_i486.obj
 0001:0000f2a0       ?emit@addX_regNode@@EBEXAAVCodeBuffer@@PAVPhaseRegAlloc@@@Z 080102a0 f   ad_i486.obj
 0001:0000f310       ?emit@addX_immNode@@EBEXAAVCodeBuffer@@PAVPhaseRegAlloc@@@Z 08010310 f   ad_i486.obj
 0001:0000f390       ?emit@addX_memNode@@EBEXAAVCodeBuffer@@PAVPhaseRegAlloc@@@Z 08010390 f   ad_i486.obj
 0001:0000f450       ?emit@subX_regNode@@EBEXAAVCodeBuffer@@PAVPhaseRegAlloc@@@Z 08010450 f   ad_i486.obj
 0001:0000f4c0       ?emit@subX_immNode@@EBEXAAVCodeBuffer@@PAVPhaseRegAlloc@@@Z 080104c0 f   ad_i486.obj
 0001:0000f540       ?emit@subX_memNode@@EBEXAAVCodeBuffer@@PAVPhaseRegAlloc@@@Z 08010540 f   ad_i486.obj
 0001:0000f600       ?emit@mulX_regNode@@EBEXAAVCodeBuffer@@PAVPhaseRegAlloc@@@Z 08010600 f   ad_i486.obj
 0001:0000f670       ?emit@mulX_immNode@@EBEXAAVCodeBuffer@@PAVPhaseRegAlloc@@@Z 08010670 f   ad_i486.obj
 0001:0000f6f0       ?emit@mulX_memNode@@EBEXAAVCodeBuffer@@PAVPhaseRegAlloc@@@Z 080106f0 f   ad_i486.obj
 0001:0000f7b0       ?emit@divX_regNode@@EBEXAAVCodeBuffer@@PAVPhaseRegAlloc@@@Z 080107b0 f   ad_i486.obj
 0001:0000f820       ?emit@divX_immNode@@EBEXAAVCodeBuffer@@PAVPhaseRegAlloc@@@Z 08010820 f   ad_i486.obj
 0001:0000f8a0       ?emit@divX_memNode@@EBEXAAVCodeBuffer@@PAVPhaseRegAlloc@@@Z 080108a0 f   ad_i486.obj
 0001:0000f960       ?emit@sqrtXD_regNode@@EBEXAAVCodeBuffer@@PAVPhaseRegAlloc@@@Z 08010960 f   ad_i486.obj
 0001:0000f9c0       ?emit@sqrtXD_memNode@@EBEXAAVCodeBuffer@@PAVPhaseRegAlloc@@@Z 080109c0 f   ad_i486.obj
 0001:0000fa70       ?emit@absX_regNode@@EBEXAAVCodeBuffer@@PAVPhaseRegAlloc@@@Z 08010a70 f   ad_i486.obj
 0001:0000fad0       ?emit@negX_regNode@@EBEXAAVCodeBuffer@@PAVPhaseRegAlloc@@@Z 08010ad0 f   ad_i486.obj
 0001:0000fb30       ?emit@addF24_reg_memNode@@EBEXAAVCodeBuffer@@PAVPhaseRegAlloc@@@Z 08010b30 f   ad_i486.obj
 0001:0000fc10       ?emit@addF_reg_memNode@@EBEXAAVCodeBuffer@@PAVPhaseRegAlloc@@@Z 08010c10 f   ad_i486.obj
 0001:0000fcd0       ?emit@addF24_mem_regNode@@EBEXAAVCodeBuffer@@PAVPhaseRegAlloc@@@Z 08010cd0 f   ad_i486.obj
 0001:0000fdb0       ?emit@addF24_mem_ciscNode@@EBEXAAVCodeBuffer@@PAVPhaseRegAlloc@@@Z 08010db0 f   ad_i486.obj
 0001:0000fed0       ?emit@addF24_mem_memNode@@EBEXAAVCodeBuffer@@PAVPhaseRegAlloc@@@Z 08010ed0 f   ad_i486.obj
 0001:0000fff0       ?emit@addF24_reg_immNode@@EBEXAAVCodeBuffer@@PAVPhaseRegAlloc@@@Z 08010ff0 f   ad_i486.obj
 0001:000100a0       ?emit@addF_reg_immNode@@EBEXAAVCodeBuffer@@PAVPhaseRegAlloc@@@Z 080110a0 f   ad_i486.obj
 0001:00010150       ?emit@mulF24_regNode@@EBEXAAVCodeBuffer@@PAVPhaseRegAlloc@@@Z 08011150 f   ad_i486.obj
 0001:000101e0       ?emit@mulF_regNode@@EBEXAAVCodeBuffer@@PAVPhaseRegAlloc@@@Z 080111e0 f   ad_i486.obj
 0001:00010280       ?set_con@MachOper@@UAEXH@Z 08011280 f i ad_i486.obj
 0001:000102a0       ?cisc_operand@MachNode@@UBEHXZ 080112a0 f i ad_i486.obj
 0001:000102a0       ?is_Call@MachCallNode@@UAEPAVCallNode@@XZ 080112a0 f i ad_i486.obj
 0001:000102a0       ?cisc_operand@Node@@UBEHXZ 080112a0 f i ad_i486.obj
 0001:000102b0       ?emit@mulF24_reg_memNode@@EBEXAAVCodeBuffer@@PAVPhaseRegAlloc@@@Z 080112b0 f   ad_i486.obj
 0001:00010390       ?Expand@MachNode@@UAEPAV1@PAVState@@AAVNode_List@@@Z 08011390 f i ad_i486.obj
 0001:000103a0       ?bottom_type@MachNode@@UBEPBVType@@XZ 080113a0 f i ad_i486.obj
 0001:000103b0       ?ideal_reg@MachNode@@UBEIXZ 080113b0 f i ad_i486.obj
 0001:000103e0       ?emit@mulF_reg_memNode@@EBEXAAVCodeBuffer@@PAVPhaseRegAlloc@@@Z 080113e0 f   ad_i486.obj
 0001:000103e0       ?emit@mulD_reg_mem_ciscNode@@EBEXAAVCodeBuffer@@PAVPhaseRegAlloc@@@Z 080113e0 f   ad_i486.obj
 0001:000104c0       ?emit@mulF24_mem_memNode@@EBEXAAVCodeBuffer@@PAVPhaseRegAlloc@@@Z 080114c0 f   ad_i486.obj
 0001:000105e0       ?emit@mulF24_reg_immNode@@EBEXAAVCodeBuffer@@PAVPhaseRegAlloc@@@Z 080115e0 f   ad_i486.obj
 0001:00010690       ?emit@mulF_reg_immNode@@EBEXAAVCodeBuffer@@PAVPhaseRegAlloc@@@Z 08011690 f   ad_i486.obj
 0001:00010740       ?emit@mulF_reg_load1Node@@EBEXAAVCodeBuffer@@PAVPhaseRegAlloc@@@Z 08011740 f   ad_i486.obj
 0001:00010830       ?emit@addF_mulF_reg_load1Node@@EBEXAAVCodeBuffer@@PAVPhaseRegAlloc@@@Z 08011830 f   ad_i486.obj
 0001:00010950       ?emit@subF_divF_regNode@@EBEXAAVCodeBuffer@@PAVPhaseRegAlloc@@@Z 08011950 f   ad_i486.obj
 0001:00010a20       ?emit@divF24_regNode@@EBEXAAVCodeBuffer@@PAVPhaseRegAlloc@@@Z 08011a20 f   ad_i486.obj
 0001:00010ab0       ?emit@divD_regNode@@EBEXAAVCodeBuffer@@PAVPhaseRegAlloc@@@Z 08011ab0 f   ad_i486.obj
 0001:00010ab0       ?emit@divF_regNode@@EBEXAAVCodeBuffer@@PAVPhaseRegAlloc@@@Z 08011ab0 f   ad_i486.obj
 0001:00010b30       ?emit@modF24_regNode@@EBEXAAVCodeBuffer@@PAVPhaseRegAlloc@@@Z 08011b30 f   ad_i486.obj
 0001:00010cf0       ?emit@modX_regNode@@EBEXAAVCodeBuffer@@PAVPhaseRegAlloc@@@Z 08011cf0 f   ad_i486.obj
 0001:00010ef0       ?emit@roundFloat_mem_regNode@@EBEXAAVCodeBuffer@@PAVPhaseRegAlloc@@@Z 08011ef0 f   ad_i486.obj
 0001:00010f50       ?emit@roundDouble_mem_regNode@@EBEXAAVCodeBuffer@@PAVPhaseRegAlloc@@@Z 08011f50 f   ad_i486.obj
 0001:00010fb0       ?emit@convD2X_regNode@@EBEXAAVCodeBuffer@@PAVPhaseRegAlloc@@@Z 08011fb0 f   ad_i486.obj
 0001:00011080       ?emit@convXD2X_regNode@@EBEXAAVCodeBuffer@@PAVPhaseRegAlloc@@@Z 08012080 f   ad_i486.obj
 0001:000110e0       ?emit@convX2D_regNode@@EBEXAAVCodeBuffer@@PAVPhaseRegAlloc@@@Z 080120e0 f   ad_i486.obj
 0001:000111c0       ?emit@convX2XD_regNode@@EBEXAAVCodeBuffer@@PAVPhaseRegAlloc@@@Z 080121c0 f   ad_i486.obj
 0001:00011220       ?emit@convF2I_reg_regNode@@EBEXAAVCodeBuffer@@PAVPhaseRegAlloc@@@Z 08012220 f   ad_i486.obj
 0001:00011220       ?emit@convD2I_reg_regNode@@EBEXAAVCodeBuffer@@PAVPhaseRegAlloc@@@Z 08012220 f   ad_i486.obj
 0001:000113e0       ?emit@convXD2I_reg_regNode@@EBEXAAVCodeBuffer@@PAVPhaseRegAlloc@@@Z 080123e0 f   ad_i486.obj
 0001:000115a0       ?emit@convXD2L_reg_regNode@@EBEXAAVCodeBuffer@@PAVPhaseRegAlloc@@@Z 080125a0 f   ad_i486.obj
 0001:00011840       ?emit@convF2D_regNode@@EBEXAAVCodeBuffer@@PAVPhaseRegAlloc@@@Z 08012840 f   ad_i486.obj
 0001:000118b0       ?emit@convD2L_reg_regNode@@EBEXAAVCodeBuffer@@PAVPhaseRegAlloc@@@Z 080128b0 f   ad_i486.obj
 0001:000118b0       ?emit@convF2L_reg_regNode@@EBEXAAVCodeBuffer@@PAVPhaseRegAlloc@@@Z 080128b0 f   ad_i486.obj
 0001:00011ab0       ?emit@convX2L_reg_regNode@@EBEXAAVCodeBuffer@@PAVPhaseRegAlloc@@@Z 08012ab0 f   ad_i486.obj
 0001:00011d50       ?emit@convI2XD_regNode@@EBEXAAVCodeBuffer@@PAVPhaseRegAlloc@@@Z 08012d50 f   ad_i486.obj
 0001:00011db0       ?emit@convI2XD_memNode@@EBEXAAVCodeBuffer@@PAVPhaseRegAlloc@@@Z 08012db0 f   ad_i486.obj
 0001:00011e60       ?emit@convI2D_memNode@@EBEXAAVCodeBuffer@@PAVPhaseRegAlloc@@@Z 08012e60 f   ad_i486.obj
 0001:00011e60       ?emit@convI2F_memNode@@EBEXAAVCodeBuffer@@PAVPhaseRegAlloc@@@Z 08012e60 f   ad_i486.obj
 0001:00011f10       ?emit@convI2F_SSFNode@@EBEXAAVCodeBuffer@@PAVPhaseRegAlloc@@@Z 08012f10 f   ad_i486.obj
 0001:00011f70       ?emit@convI2F_SSF_memNode@@EBEXAAVCodeBuffer@@PAVPhaseRegAlloc@@@Z 08012f70 f   ad_i486.obj
 0001:00012020       ?emit@convI2D_regNode@@EBEXAAVCodeBuffer@@PAVPhaseRegAlloc@@@Z 08013020 f   ad_i486.obj
 0001:00012020       ?emit@conv24I2F_regNode@@EBEXAAVCodeBuffer@@PAVPhaseRegAlloc@@@Z 08013020 f   ad_i486.obj
 0001:00012020       ?emit@convI2F_regNode@@EBEXAAVCodeBuffer@@PAVPhaseRegAlloc@@@Z 08013020 f   ad_i486.obj
 0001:00012080       ?emit@convI2X_regNode@@EBEXAAVCodeBuffer@@PAVPhaseRegAlloc@@@Z 08013080 f   ad_i486.obj
 0001:000120e0       ?emit@convX2I_regNode@@EBEXAAVCodeBuffer@@PAVPhaseRegAlloc@@@Z 080130e0 f   ad_i486.obj
 0001:000122a0       ?emit@convI2L_regNode@@EBEXAAVCodeBuffer@@PAVPhaseRegAlloc@@@Z 080132a0 f   ad_i486.obj
 0001:00012310       ?emit@convI2L_reg_zexNode@@EBEXAAVCodeBuffer@@PAVPhaseRegAlloc@@@Z 08013310 f   ad_i486.obj
 0001:00012310       ?emit@zerox_longNode@@EBEXAAVCodeBuffer@@PAVPhaseRegAlloc@@@Z 08013310 f   ad_i486.obj
 0001:00012390       ?emit@convL2D_regNode@@EBEXAAVCodeBuffer@@PAVPhaseRegAlloc@@@Z 08013390 f   ad_i486.obj
 0001:00012440       ?emit@convL2XD_regNode@@EBEXAAVCodeBuffer@@PAVPhaseRegAlloc@@@Z 08013440 f   ad_i486.obj
 0001:00012520       ?emit@convL2X_regNode@@EBEXAAVCodeBuffer@@PAVPhaseRegAlloc@@@Z 08013520 f   ad_i486.obj
 0001:00012600       ?emit@convL2F_regNode@@EBEXAAVCodeBuffer@@PAVPhaseRegAlloc@@@Z 08013600 f   ad_i486.obj
 0001:000126b0       ?emit@rep_stosNode@@EBEXAAVCodeBuffer@@PAVPhaseRegAlloc@@@Z 080136b0 f   ad_i486.obj
 0001:00012710       ?emit@string_compareNode@@EBEXAAVCodeBuffer@@PAVPhaseRegAlloc@@@Z 08013710 f   ad_i486.obj
 0001:00012ec0       ?emit@compI_eRegNode@@EBEXAAVCodeBuffer@@PAVPhaseRegAlloc@@@Z 08013ec0 f   ad_i486.obj
 0001:00012ec0       ?emit@compP_eRegNode@@EBEXAAVCodeBuffer@@PAVPhaseRegAlloc@@@Z 08013ec0 f   ad_i486.obj
 0001:00012ec0       ?emit@compU_eRegNode@@EBEXAAVCodeBuffer@@PAVPhaseRegAlloc@@@Z 08013ec0 f   ad_i486.obj
 0001:00012f20       ?emit@compP_eReg_memNode@@EBEXAAVCodeBuffer@@PAVPhaseRegAlloc@@@Z 08013f20 f   ad_i486.obj
 0001:00012f20       ?emit@compP_mem_eRegNode@@EBEXAAVCodeBuffer@@PAVPhaseRegAlloc@@@Z 08013f20 f   ad_i486.obj
 0001:00012f20       ?emit@compU_eReg_memNode@@EBEXAAVCodeBuffer@@PAVPhaseRegAlloc@@@Z 08013f20 f   ad_i486.obj
 0001:00012f20       ?emit@compI_eReg_memNode@@EBEXAAVCodeBuffer@@PAVPhaseRegAlloc@@@Z 08013f20 f   ad_i486.obj
 0001:00012fd0       ?emit@testP_regNode@@EBEXAAVCodeBuffer@@PAVPhaseRegAlloc@@@Z 08013fd0 f   ad_i486.obj
 0001:00012fd0       ?emit@testU_regNode@@EBEXAAVCodeBuffer@@PAVPhaseRegAlloc@@@Z 08013fd0 f   ad_i486.obj
 0001:00012fd0       ?emit@testI_regNode@@EBEXAAVCodeBuffer@@PAVPhaseRegAlloc@@@Z 08013fd0 f   ad_i486.obj
 0001:00013030       ?emit@testI_reg_immNode@@EBEXAAVCodeBuffer@@PAVPhaseRegAlloc@@@Z 08014030 f   ad_i486.obj
 0001:000130a0       ?emit@testI_reg_memNode@@EBEXAAVCodeBuffer@@PAVPhaseRegAlloc@@@Z 080140a0 f   ad_i486.obj
 0001:00013150       ?emit@compI_eReg_immNode@@EBEXAAVCodeBuffer@@PAVPhaseRegAlloc@@@Z 08014150 f   ad_i486.obj
 0001:00013150       ?emit@compU_eReg_immNode@@EBEXAAVCodeBuffer@@PAVPhaseRegAlloc@@@Z 08014150 f   ad_i486.obj
 0001:00013200       ?emit@compP_eReg_immNode@@EBEXAAVCodeBuffer@@PAVPhaseRegAlloc@@@Z 08014200 f   ad_i486.obj
 0001:000132d0       ?emit@testP_Reg_memNode@@EBEXAAVCodeBuffer@@PAVPhaseRegAlloc@@@Z 080142d0 f   ad_i486.obj
 0001:00013370       ?emit@minI_eRegNode@@EBEXAAVCodeBuffer@@PAVPhaseRegAlloc@@@Z 08014370 f   ad_i486.obj
 0001:00013420       ?emit@maxI_eRegNode@@EBEXAAVCodeBuffer@@PAVPhaseRegAlloc@@@Z 08014420 f   ad_i486.obj
 0001:000134d0       ?emit@jmpDirNode@@EBEXAAVCodeBuffer@@PAVPhaseRegAlloc@@@Z 080144d0 f   ad_i486.obj
 0001:00013530       ?size@jmpLoopEndUNode@@EBEIPAVPhaseRegAlloc@@@Z 08014530 f   ad_i486.obj
 0001:00013530       ?size@jmpLoopEndNode@@EBEIPAVPhaseRegAlloc@@@Z 08014530 f   ad_i486.obj
 0001:00013530       ?size@jmpConNode@@EBEIPAVPhaseRegAlloc@@@Z 08014530 f   ad_i486.obj
 0001:00013530       ?size@jmpConUNode@@EBEIPAVPhaseRegAlloc@@@Z 08014530 f   ad_i486.obj
 0001:00013540       ?emit@jmpConUNode@@EBEXAAVCodeBuffer@@PAVPhaseRegAlloc@@@Z 08014540 f   ad_i486.obj
 0001:00013540       ?emit@jmpConNode@@EBEXAAVCodeBuffer@@PAVPhaseRegAlloc@@@Z 08014540 f   ad_i486.obj
 0001:00013540       ?emit@jmpLoopEndNode@@EBEXAAVCodeBuffer@@PAVPhaseRegAlloc@@@Z 08014540 f   ad_i486.obj
 0001:00013540       ?emit@jmpLoopEndUNode@@EBEXAAVCodeBuffer@@PAVPhaseRegAlloc@@@Z 08014540 f   ad_i486.obj
 0001:000135c0       ?emit@partialSubtypeCheckNode@@EBEXAAVCodeBuffer@@PAVPhaseRegAlloc@@@Z 080145c0 f   ad_i486.obj
 0001:00013720       ?emit@partialSubtypeCheck_vs_ZeroNode@@EBEXAAVCodeBuffer@@PAVPhaseRegAlloc@@@Z 08014720 f   ad_i486.obj
 0001:00013880       ?emit@jmpDir_shortNode@@EBEXAAVCodeBuffer@@PAVPhaseRegAlloc@@@Z 08014880 f   ad_i486.obj
 0001:000138e0       ?emit@jmpLoopEndU_shortNode@@EBEXAAVCodeBuffer@@PAVPhaseRegAlloc@@@Z 080148e0 f   ad_i486.obj
 0001:000138e0       ?emit@jmpCon_shortNode@@EBEXAAVCodeBuffer@@PAVPhaseRegAlloc@@@Z 080148e0 f   ad_i486.obj
 0001:000138e0       ?emit@jmpLoopEnd_shortNode@@EBEXAAVCodeBuffer@@PAVPhaseRegAlloc@@@Z 080148e0 f   ad_i486.obj
 0001:000138e0       ?emit@jmpConU_shortNode@@EBEXAAVCodeBuffer@@PAVPhaseRegAlloc@@@Z 080148e0 f   ad_i486.obj
 0001:00013960       ?emit@cmpL3_reg_regNode@@EBEXAAVCodeBuffer@@PAVPhaseRegAlloc@@@Z 08014960 f   ad_i486.obj
 0001:00013ab0       ?emit@cmpL_zero_flags_LTGENode@@EBEXAAVCodeBuffer@@PAVPhaseRegAlloc@@@Z 08014ab0 f   ad_i486.obj
 0001:00013b10       ?emit@cmpL_reg_flags_LTGENode@@EBEXAAVCodeBuffer@@PAVPhaseRegAlloc@@@Z 08014b10 f   ad_i486.obj
 0001:00013bc0       ?emit@cmpL_zero_flags_EQNENode@@EBEXAAVCodeBuffer@@PAVPhaseRegAlloc@@@Z 08014bc0 f   ad_i486.obj
 0001:00013c30       ?emit@cmpL_reg_flags_EQNENode@@EBEXAAVCodeBuffer@@PAVPhaseRegAlloc@@@Z 08014c30 f   ad_i486.obj
 0001:00013ce0       ?emit@cmpL_zero_flags_LEGTNode@@EBEXAAVCodeBuffer@@PAVPhaseRegAlloc@@@Z 08014ce0 f   ad_i486.obj
 0001:00013d60       ?emit@cmpL_reg_flags_LEGTNode@@EBEXAAVCodeBuffer@@PAVPhaseRegAlloc@@@Z 08014d60 f   ad_i486.obj
 0001:00013e10       ?emit@cmovLL_mem_LEGTNode@@EBEXAAVCodeBuffer@@PAVPhaseRegAlloc@@@Z 08014e10 f   ad_i486.obj
 0001:00013e10       ?emit@cmovLL_mem_EQNENode@@EBEXAAVCodeBuffer@@PAVPhaseRegAlloc@@@Z 08014e10 f   ad_i486.obj
 0001:00013e10       ?emit@cmovLL_mem_LTGENode@@EBEXAAVCodeBuffer@@PAVPhaseRegAlloc@@@Z 08014e10 f   ad_i486.obj
 0001:00013f80       ?emit@cmovP_regUNode@@EBEXAAVCodeBuffer@@PAVPhaseRegAlloc@@@Z 08014f80 f   ad_i486.obj
 0001:00013f80       ?emit@cmovI_regUNode@@EBEXAAVCodeBuffer@@PAVPhaseRegAlloc@@@Z 08014f80 f   ad_i486.obj
 0001:00013f80       ?emit@cmovPP_reg_LEGTNode@@EBEXAAVCodeBuffer@@PAVPhaseRegAlloc@@@Z 08014f80 f   ad_i486.obj
 0001:00013f80       ?emit@cmovII_reg_LEGTNode@@EBEXAAVCodeBuffer@@PAVPhaseRegAlloc@@@Z 08014f80 f   ad_i486.obj
 0001:00013f80       ?emit@cmovII_reg_LTGENode@@EBEXAAVCodeBuffer@@PAVPhaseRegAlloc@@@Z 08014f80 f   ad_i486.obj
 0001:00013f80       ?emit@cmovPP_reg_EQNENode@@EBEXAAVCodeBuffer@@PAVPhaseRegAlloc@@@Z 08014f80 f   ad_i486.obj
 0001:00013f80       ?emit@cmovII_reg_EQNENode@@EBEXAAVCodeBuffer@@PAVPhaseRegAlloc@@@Z 08014f80 f   ad_i486.obj
 0001:00013f80       ?emit@cmovPP_reg_LTGENode@@EBEXAAVCodeBuffer@@PAVPhaseRegAlloc@@@Z 08014f80 f   ad_i486.obj
 0001:00013f80       ?emit@cmovI_regNode@@EBEXAAVCodeBuffer@@PAVPhaseRegAlloc@@@Z 08014f80 f   ad_i486.obj
 0001:00013f80       ?emit@cmovP_regNode@@EBEXAAVCodeBuffer@@PAVPhaseRegAlloc@@@Z 08014f80 f   ad_i486.obj
 0001:00014010       ?emit@cmpFastLockNode@@EBEXAAVCodeBuffer@@PAVPhaseRegAlloc@@@Z 08015010 f   ad_i486.obj
 0001:000141f0       ?emit@cmpFastUnlockNode@@EBEXAAVCodeBuffer@@PAVPhaseRegAlloc@@@Z 080151f0 f   ad_i486.obj
 0001:00014320       ?emit@safePointNode@@EBEXAAVCodeBuffer@@PAVPhaseRegAlloc@@@Z 08015320 f   ad_i486.obj
 0001:00014370       ?emit@CallStaticJavaDirectNode@@EBEXAAVCodeBuffer@@PAVPhaseRegAlloc@@@Z 08015370 f   ad_i486.obj
 0001:00014590       ?emit@CallDynamicJavaDirectNode@@EBEXAAVCodeBuffer@@PAVPhaseRegAlloc@@@Z 08015590 f   ad_i486.obj
 0001:00014760       ?emit@CallCompiledJavaDirectNode@@EBEXAAVCodeBuffer@@PAVPhaseRegAlloc@@@Z 08015760 f   ad_i486.obj
 0001:00014860       ?emit@CallInterpreterDirectNode@@EBEXAAVCodeBuffer@@PAVPhaseRegAlloc@@@Z 08015860 f   ad_i486.obj
 0001:000149d0       ?emit@CallRuntimeDirectNode@@EBEXAAVCodeBuffer@@PAVPhaseRegAlloc@@@Z 080159d0 f   ad_i486.obj
 0001:000149d0       ?emit@CallLeafDirectNode@@EBEXAAVCodeBuffer@@PAVPhaseRegAlloc@@@Z 080159d0 f   ad_i486.obj
 0001:00014be0       ?emit@RetNode@@EBEXAAVCodeBuffer@@PAVPhaseRegAlloc@@@Z 08015be0 f   ad_i486.obj
 0001:00014c20       ?emit@TailCalljmpIndNode@@EBEXAAVCodeBuffer@@PAVPhaseRegAlloc@@@Z 08015c20 f   ad_i486.obj
 0001:00014c70       ?emit@tailjmpIndNode@@EBEXAAVCodeBuffer@@PAVPhaseRegAlloc@@@Z 08015c70 f   ad_i486.obj
 0001:00014cc0       ?emit@RethrowExceptionNode@@EBEXAAVCodeBuffer@@PAVPhaseRegAlloc@@@Z 08015cc0 f   ad_i486.obj
 0001:00014d60       ?emit@tlsLoadP_prefixLoadPNode@@EBEXAAVCodeBuffer@@PAVPhaseRegAlloc@@@Z 08015d60 f   ad_i486.obj
 0001:00014db0       ?emit@tlsLoadPNode@@EBEXAAVCodeBuffer@@PAVPhaseRegAlloc@@@Z 08015db0 f   ad_i486.obj
 0001:00014e10       ?emit@CallNativeDirectNode@@EBEXAAVCodeBuffer@@PAVPhaseRegAlloc@@@Z 08015e10 f   ad_i486.obj
 0001:00015070       ?emit@ShouldNotReachHereNode@@EBEXAAVCodeBuffer@@PAVPhaseRegAlloc@@@Z 08016070 f   ad_i486.obj
 0001:00015090       ?memory_operand@loadPNode@@UBEPBVMachOper@@XZ 08016090 f   ad_i486.obj
 0001:00015090       ?memory_operand@convI2D_memNode@@UBEPBVMachOper@@XZ 08016090 f   ad_i486.obj
 0001:00015090       ?memory_operand@prefetch0Node@@UBEPBVMachOper@@XZ 08016090 f   ad_i486.obj
 0001:00015090       ?memory_operand@storeD_roundedNode@@UBEPBVMachOper@@XZ 08016090 f   ad_i486.obj
 0001:00015090       ?memory_operand@sarI_mem_immNode@@UBEPBVMachOper@@XZ 08016090 f   ad_i486.obj
 0001:00015090       ?memory_operand@convI2F_SSF_memNode@@UBEPBVMachOper@@XZ 08016090 f   ad_i486.obj
 0001:00015090       ?memory_operand@storeF_DroundedNode@@UBEPBVMachOper@@XZ 08016090 f   ad_i486.obj
 0001:00015090       ?memory_operand@storePConditionalNode@@UBEPBVMachOper@@XZ 08016090 f   ad_i486.obj
 0001:00015090       ?memory_operand@mulF_reg_load1Node@@UBEPBVMachOper@@XZ 08016090 f   ad_i486.obj
 0001:00015090       ?memory_operand@loadKlassNode@@UBEPBVMachOper@@XZ 08016090 f   ad_i486.obj
 0001:00015090       ?memory_operand@addF_mulF_reg_load1Node@@UBEPBVMachOper@@XZ 08016090 f   ad_i486.obj
 0001:00015090       ?memory_operand@loadDNode@@UBEPBVMachOper@@XZ 08016090 f   ad_i486.obj
 0001:00015090       ?memory_operand@orI_mem_immNode@@UBEPBVMachOper@@XZ 08016090 f   ad_i486.obj
 0001:00015090       ?memory_operand@orI_mem_eRegNode@@UBEPBVMachOper@@XZ 08016090 f   ad_i486.obj
 0001:00015090       ?memory_operand@storeImmINode@@UBEPBVMachOper@@XZ 08016090 f   ad_i486.obj
 0001:00015090       ?memory_operand@storeF_immNode@@UBEPBVMachOper@@XZ 08016090 f   ad_i486.obj
 0001:00015090       ?memory_operand@loadXDNode@@UBEPBVMachOper@@XZ 08016090 f   ad_i486.obj
 0001:00015090       ?memory_operand@loadL_volatileNode@@UBEPBVMachOper@@XZ 08016090 f   ad_i486.obj
 0001:00015090       ?memory_operand@addI_mem_immNode@@UBEPBVMachOper@@XZ 08016090 f   ad_i486.obj
 0001:00015090       ?memory_operand@loadINode@@UBEPBVMachOper@@XZ 08016090 f   ad_i486.obj
 0001:00015090       ?memory_operand@loadLLockedNode@@UBEPBVMachOper@@XZ 08016090 f   ad_i486.obj
 0001:00015090       ?memory_operand@loadFNode@@UBEPBVMachOper@@XZ 08016090 f   ad_i486.obj
 0001:00015090       ?memory_operand@testP_Reg_memNode@@UBEPBVMachOper@@XZ 08016090 f   ad_i486.obj
 0001:00015090       ?memory_operand@xorI_mem_immNode@@UBEPBVMachOper@@XZ 08016090 f   ad_i486.obj
 0001:00015090       ?memory_operand@storeImmBNode@@UBEPBVMachOper@@XZ 08016090 f   ad_i486.obj
 0001:00015090       ?memory_operand@loadPLockedNode@@UBEPBVMachOper@@XZ 08016090 f   ad_i486.obj
 0001:00015090       ?memory_operand@addI_mem_eRegNode@@UBEPBVMachOper@@XZ 08016090 f   ad_i486.obj
 0001:00015090       ?memory_operand@incI_memNode@@UBEPBVMachOper@@XZ 08016090 f   ad_i486.obj
 0001:00015090       ?memory_operand@sqrtXD_memNode@@UBEPBVMachOper@@XZ 08016090 f   ad_i486.obj
 0001:00015090       ?memory_operand@loadCNode@@UBEPBVMachOper@@XZ 08016090 f   ad_i486.obj
 0001:00015090       ?memory_operand@loadRangeNode@@UBEPBVMachOper@@XZ 08016090 f   ad_i486.obj
 0001:00015090       ?memory_operand@xorI_mem_eRegNode@@UBEPBVMachOper@@XZ 08016090 f   ad_i486.obj
 0001:00015090       ?memory_operand@loadXNode@@UBEPBVMachOper@@XZ 08016090 f   ad_i486.obj
 0001:00015090       ?memory_operand@storeXDNode@@UBEPBVMachOper@@XZ 08016090 f   ad_i486.obj
 0001:00015090       ?memory_operand@andI_mem_immNode@@UBEPBVMachOper@@XZ 08016090 f   ad_i486.obj
 0001:00015090       ?memory_operand@sarI_mem_1Node@@UBEPBVMachOper@@XZ 08016090 f   ad_i486.obj
 0001:00015090       ?memory_operand@storeXNode@@UBEPBVMachOper@@XZ 08016090 f   ad_i486.obj
 0001:00015090       ?memory_operand@storeImmI16Node@@UBEPBVMachOper@@XZ 08016090 f   ad_i486.obj
 0001:00015090       ?memory_operand@loadLNode@@UBEPBVMachOper@@XZ 08016090 f   ad_i486.obj
 0001:00015090       ?memory_operand@prefetch1Node@@UBEPBVMachOper@@XZ 08016090 f   ad_i486.obj
 0001:00015090       ?memory_operand@addD_mem_regNode@@UBEPBVMachOper@@XZ 08016090 f   ad_i486.obj
 0001:00015090       ?memory_operand@addF24_mem_regNode@@UBEPBVMachOper@@XZ 08016090 f   ad_i486.obj
 0001:00015090       ?memory_operand@storePNode@@UBEPBVMachOper@@XZ 08016090 f   ad_i486.obj
 0001:00015090       ?memory_operand@storeBNode@@UBEPBVMachOper@@XZ 08016090 f   ad_i486.obj
 0001:00015090       ?memory_operand@storeDNode@@UBEPBVMachOper@@XZ 08016090 f   ad_i486.obj
 0001:00015090       ?memory_operand@storeF_roundedNode@@UBEPBVMachOper@@XZ 08016090 f   ad_i486.obj
 0001:00015090       ?memory_operand@convI2XD_memNode@@UBEPBVMachOper@@XZ 08016090 f   ad_i486.obj
 0001:00015090       ?memory_operand@loadBNode@@UBEPBVMachOper@@XZ 08016090 f   ad_i486.obj
 0001:00015090       ?memory_operand@storeLNode@@UBEPBVMachOper@@XZ 08016090 f   ad_i486.obj
 0001:00015090       ?memory_operand@mulI_mem_immNode@@UBEPBVMachOper@@XZ 08016090 f   ad_i486.obj
 0001:00015090       ?memory_operand@storeCNode@@UBEPBVMachOper@@XZ 08016090 f   ad_i486.obj
 0001:00015090       ?memory_operand@convI2F_memNode@@UBEPBVMachOper@@XZ 08016090 f   ad_i486.obj
 0001:00015090       ?memory_operand@storeImmCMNode@@UBEPBVMachOper@@XZ 08016090 f   ad_i486.obj
 0001:00015090       ?memory_operand@loadSNode@@UBEPBVMachOper@@XZ 08016090 f   ad_i486.obj
 0001:00015090       ?memory_operand@andI_mem_eRegNode@@UBEPBVMachOper@@XZ 08016090 f   ad_i486.obj
 0001:00015090       ?memory_operand@storeFNode@@UBEPBVMachOper@@XZ 08016090 f   ad_i486.obj
 0001:00015090       ?memory_operand@decI_memNode@@UBEPBVMachOper@@XZ 08016090 f   ad_i486.obj
 0001:00015090       ?memory_operand@storeINode@@UBEPBVMachOper@@XZ 08016090 f   ad_i486.obj
 0001:00015090       ?memory_operand@storeImmPNode@@UBEPBVMachOper@@XZ 08016090 f   ad_i486.obj
 0001:00015090       ?memory_operand@subI_mem_eRegNode@@UBEPBVMachOper@@XZ 08016090 f   ad_i486.obj
 0001:00015090       ?memory_operand@loadUBNode@@UBEPBVMachOper@@XZ 08016090 f   ad_i486.obj
 0001:00015090       ?memory_operand@storeL_volatileNode@@UBEPBVMachOper@@XZ 08016090 f   ad_i486.obj
 0001:000150a0       ?memory_operand@cmovII_mem_EQNENode@@UBEPBVMachOper@@XZ 080160a0 f   ad_i486.obj
 0001:000150a0       ?memory_operand@cmovI_memuNode@@UBEPBVMachOper@@XZ 080160a0 f   ad_i486.obj
 0001:000150a0       ?memory_operand@cmovLL_mem_LTGENode@@UBEPBVMachOper@@XZ 080160a0 f   ad_i486.obj
 0001:000150a0       ?memory_operand@cmovI_memNode@@UBEPBVMachOper@@XZ 080160a0 f   ad_i486.obj
 0001:000150a0       ?memory_operand@cmovLL_mem_EQNENode@@UBEPBVMachOper@@XZ 080160a0 f   ad_i486.obj
 0001:000150a0       ?memory_operand@cmovLL_mem_LEGTNode@@UBEPBVMachOper@@XZ 080160a0 f   ad_i486.obj
 0001:000150a0       ?memory_operand@cmovII_mem_LEGTNode@@UBEPBVMachOper@@XZ 080160a0 f   ad_i486.obj
 0001:000150a0       ?memory_operand@cmovII_mem_LTGENode@@UBEPBVMachOper@@XZ 080160a0 f   ad_i486.obj
 0001:000150b0       ?memory_operand@compU_eReg_memNode@@UBEPBVMachOper@@XZ 080160b0 f   ad_i486.obj
 0001:000150b0       ?memory_operand@mulX_memNode@@UBEPBVMachOper@@XZ 080160b0 f   ad_i486.obj
 0001:000150b0       ?memory_operand@subXD_memNode@@UBEPBVMachOper@@XZ 080160b0 f   ad_i486.obj
 0001:000150b0       ?memory_operand@subX_memNode@@UBEPBVMachOper@@XZ 080160b0 f   ad_i486.obj
 0001:000150b0       ?memory_operand@addF24_reg_memNode@@UBEPBVMachOper@@XZ 080160b0 f   ad_i486.obj
 0001:000150b0       ?memory_operand@compI_eReg_memNode@@UBEPBVMachOper@@XZ 080160b0 f   ad_i486.obj
 0001:000150b0       ?memory_operand@mulF_reg_memNode@@UBEPBVMachOper@@XZ 080160b0 f   ad_i486.obj
 0001:000150b0       ?memory_operand@testI_reg_memNode@@UBEPBVMachOper@@XZ 080160b0 f   ad_i486.obj
 0001:000150b0       ?memory_operand@cmpX_regmemNode@@UBEPBVMachOper@@XZ 080160b0 f   ad_i486.obj
 0001:000150b0       ?memory_operand@xorI_eReg_memNode@@UBEPBVMachOper@@XZ 080160b0 f   ad_i486.obj
 0001:000150b0       ?memory_operand@subI_eReg_memNode@@UBEPBVMachOper@@XZ 080160b0 f   ad_i486.obj
 0001:000150b0       ?memory_operand@orI_eReg_memNode@@UBEPBVMachOper@@XZ 080160b0 f   ad_i486.obj
 0001:000150b0       ?memory_operand@cmpXD_regmemNode@@UBEPBVMachOper@@XZ 080160b0 f   ad_i486.obj
 0001:000150b0       ?memory_operand@addF_reg_memNode@@UBEPBVMachOper@@XZ 080160b0 f   ad_i486.obj
 0001:000150b0       ?memory_operand@andL_eReg_memNode@@UBEPBVMachOper@@XZ 080160b0 f   ad_i486.obj
 0001:000150b0       ?memory_operand@addXD_memNode@@UBEPBVMachOper@@XZ 080160b0 f   ad_i486.obj
 0001:000150b0       ?memory_operand@addD_reg_memNode@@UBEPBVMachOper@@XZ 080160b0 f   ad_i486.obj
 0001:000150b0       ?memory_operand@subD_reg_memNode@@UBEPBVMachOper@@XZ 080160b0 f   ad_i486.obj
 0001:000150b0       ?memory_operand@addI_eReg_memNode@@UBEPBVMachOper@@XZ 080160b0 f   ad_i486.obj
 0001:000150b0       ?memory_operand@andI_eReg_memNode@@UBEPBVMachOper@@XZ 080160b0 f   ad_i486.obj
 0001:000150b0       ?memory_operand@orl_eReg_memNode@@UBEPBVMachOper@@XZ 080160b0 f   ad_i486.obj
 0001:000150b0       ?memory_operand@addL_eReg_memNode@@UBEPBVMachOper@@XZ 080160b0 f   ad_i486.obj
 0001:000150b0       ?memory_operand@mulINode@@UBEPBVMachOper@@XZ 080160b0 f   ad_i486.obj
 0001:000150b0       ?memory_operand@mulF24_reg_memNode@@UBEPBVMachOper@@XZ 080160b0 f   ad_i486.obj
 0001:000150b0       ?memory_operand@mulD_reg_memNode@@UBEPBVMachOper@@XZ 080160b0 f   ad_i486.obj
 0001:000150b0       ?memory_operand@cmpXD_ccmemNode@@UBEPBVMachOper@@XZ 080160b0 f   ad_i486.obj
 0001:000150b0       ?memory_operand@compP_eReg_memNode@@UBEPBVMachOper@@XZ 080160b0 f   ad_i486.obj
 0001:000150b0       ?memory_operand@cmpX_ccmemNode@@UBEPBVMachOper@@XZ 080160b0 f   ad_i486.obj
 0001:000150b0       ?memory_operand@divXD_memNode@@UBEPBVMachOper@@XZ 080160b0 f   ad_i486.obj
 0001:000150b0       ?memory_operand@subL_eReg_memNode@@UBEPBVMachOper@@XZ 080160b0 f   ad_i486.obj
 0001:000150b0       ?memory_operand@mulD_reg_mem_ciscNode@@UBEPBVMachOper@@XZ 080160b0 f   ad_i486.obj
 0001:000150b0       ?memory_operand@addX_memNode@@UBEPBVMachOper@@XZ 080160b0 f   ad_i486.obj
 0001:000150b0       ?memory_operand@xorl_eReg_memNode@@UBEPBVMachOper@@XZ 080160b0 f   ad_i486.obj
 0001:000150b0       ?memory_operand@divX_memNode@@UBEPBVMachOper@@XZ 080160b0 f   ad_i486.obj
 0001:000150b0       ?memory_operand@mulXD_memNode@@UBEPBVMachOper@@XZ 080160b0 f   ad_i486.obj
 0001:000150b0       ?memory_operand@compP_mem_eRegNode@@UBEPBVMachOper@@XZ 080160b0 f   ad_i486.obj
 0001:000150c0       ?adr_type@membar_acquire_lockNode@@UBEPBVTypePtr@@XZ 080160c0 f   ad_i486.obj
 0001:000150c0       ?adr_type@addF24_mem_memNode@@UBEPBVTypePtr@@XZ 080160c0 f   ad_i486.obj
 0001:000150c0       ?adr_type@mulF24_mem_memNode@@UBEPBVTypePtr@@XZ 080160c0 f   ad_i486.obj
 0001:000150c0       ?adr_type@membar_acquireNode@@UBEPBVTypePtr@@XZ 080160c0 f   ad_i486.obj
 0001:000150c0       ?adr_type@MachReturnNode@@UBEPBVTypePtr@@XZ 080160c0 f   ad_i486.obj
 0001:000150c0       ?adr_type@addF24_mem_ciscNode@@UBEPBVTypePtr@@XZ 080160c0 f   ad_i486.obj
 0001:000150c0       ?adr_type@membar_release_lockNode@@UBEPBVTypePtr@@XZ 080160c0 f   ad_i486.obj
 0001:000150c0       ?adr_type@membar_releaseNode@@UBEPBVTypePtr@@XZ 080160c0 f   ad_i486.obj
 0001:000150d0       ?stack_alignment@Matcher@@SAIXZ 080160d0 f   ad_i486.obj
 0001:000150e0       ?return_addr@Matcher@@UBE?AW4Name@OptoReg@@XZ 080160e0 f   ad_i486.obj
 0001:00015130       ?calling_convention@Matcher@@SAXPAVOptoRegPair@@IH@Z 08016130 f   ad_i486.obj
 0001:000152f0       ?c_calling_convention@Matcher@@SAXPAVOptoRegPair@@I@Z 080162f0 f   ad_i486.obj
 0001:00015390       ?return_value@Matcher@@SA?AVOptoRegPair@@HH@Z 08016390 f   ad_i486.obj
 0001:00015410       ?c_return_value@Matcher@@SA?AVOptoRegPair@@HH@Z 08016410 f   ad_i486.obj
 0001:00015440       ?clone@UniverseOper@@UBEPAVMachOper@@XZ 08016440 f   ad_i486_clone.obj
 0001:00015490       ?clone@sRegIOper@@UBEPAVMachOper@@XZ 08016490 f   ad_i486_clone.obj
 0001:000154e0       ?reg@sRegIOper@@UBEHPAVPhaseRegAlloc@@PBVNode@@@Z 080164e0 f i ad_i486_clone.obj
 0001:000154e0       ?reg@sRegFOper@@UBEHPAVPhaseRegAlloc@@PBVNode@@@Z 080164e0 f i ad_i486_clone.obj
 0001:000154e0       ?reg@sRegDOper@@UBEHPAVPhaseRegAlloc@@PBVNode@@@Z 080164e0 f i ad_i486_clone.obj
 0001:000154e0       ?reg@sRegLOper@@UBEHPAVPhaseRegAlloc@@PBVNode@@@Z 080164e0 f i ad_i486_clone.obj
 0001:000154e0       ?reg@sRegPOper@@UBEHPAVPhaseRegAlloc@@PBVNode@@@Z 080164e0 f i ad_i486_clone.obj
 0001:00015500       ?reg@sRegDOper@@UBEHPAVPhaseRegAlloc@@PBVNode@@H@Z 08016500 f i ad_i486_clone.obj
 0001:00015500       ?reg@sRegFOper@@UBEHPAVPhaseRegAlloc@@PBVNode@@H@Z 08016500 f i ad_i486_clone.obj
 0001:00015500       ?reg@sRegPOper@@UBEHPAVPhaseRegAlloc@@PBVNode@@H@Z 08016500 f i ad_i486_clone.obj
 0001:00015500       ?reg@sRegIOper@@UBEHPAVPhaseRegAlloc@@PBVNode@@H@Z 08016500 f i ad_i486_clone.obj
 0001:00015500       ?reg@sRegLOper@@UBEHPAVPhaseRegAlloc@@PBVNode@@H@Z 08016500 f i ad_i486_clone.obj
 0001:00015530       ?clone@sRegPOper@@UBEPAVMachOper@@XZ 08016530 f   ad_i486_clone.obj
 0001:00015580       ?clone@sRegFOper@@UBEPAVMachOper@@XZ 08016580 f   ad_i486_clone.obj
 0001:000155d0       ?clone@sRegDOper@@UBEPAVMachOper@@XZ 080165d0 f   ad_i486_clone.obj
 0001:00015620       ?clone@sRegLOper@@UBEPAVMachOper@@XZ 08016620 f   ad_i486_clone.obj
 0001:00015670       ?clone@immIOper@@UBEPAVMachOper@@XZ 08016670 f   ad_i486_clone.obj
 0001:000156c0       ?type@internal_word_Relocation@@EAE?AW4relocType@relocInfo@@XZ 080166c0 f i ad_i486_clone.obj
 0001:000156c0       ?opcode@immIOper@@UBEIXZ   080166c0 f i ad_i486_clone.obj
 0001:000156d0       ?clone@immI0Oper@@UBEPAVMachOper@@XZ 080166d0 f   ad_i486_clone.obj
 0001:00015720       ?bottom_type@ConvL2INode@@UBEPBVType@@XZ 08016720 f i ad_i486_clone.obj
 0001:00015720       ?type@eAXRegIOper@@UBEPBVType@@XZ 08016720 f i ad_i486_clone.obj
 0001:00015720       ?bottom_type@URShiftINode@@UBEPBVType@@XZ 08016720 f i ad_i486_clone.obj
 0001:00015720       ?type@immI1Oper@@UBEPBVType@@XZ 08016720 f i ad_i486_clone.obj
 0001:00015720       ?type@immInoneOper@@UBEPBVType@@XZ 08016720 f i ad_i486_clone.obj
 0001:00015720       ?type@immI_32Oper@@UBEPBVType@@XZ 08016720 f i ad_i486_clone.obj
 0001:00015720       ?bottom_type@CmpLTMaskNode@@UBEPBVType@@XZ 08016720 f i ad_i486_clone.obj
 0001:00015720       ?type@immI8Oper@@UBEPBVType@@XZ 08016720 f i ad_i486_clone.obj
 0001:00015720       ?type@ncxRegIOper@@UBEPBVType@@XZ 08016720 f i ad_i486_clone.obj
 0001:00015720       ?type@naxRegIOper@@UBEPBVType@@XZ 08016720 f i ad_i486_clone.obj
 0001:00015720       ?bottom_type@XorINode@@UBEPBVType@@XZ 08016720 f i ad_i486_clone.obj
 0001:00015720       ?bottom_type@CastP2INode@@UBEPBVType@@XZ 08016720 f i ad_i486_clone.obj
 0001:00015720       ?type@immInzOper@@UBEPBVType@@XZ 08016720 f i ad_i486_clone.obj
 0001:00015720       ?type@immI_M1Oper@@UBEPBVType@@XZ 08016720 f i ad_i486_clone.obj
 0001:00015720       ?bottom_type@MaxINode@@UBEPBVType@@XZ 08016720 f i ad_i486_clone.obj
 0001:00015720       ?bottom_type@Opaque2Node@@UBEPBVType@@XZ 08016720 f i ad_i486_clone.obj
 0001:00015720       ?type@immI_32_63Oper@@UBEPBVType@@XZ 08016720 f i ad_i486_clone.obj
 0001:00015720       ?bottom_type@MinINode@@UBEPBVType@@XZ 08016720 f i ad_i486_clone.obj
 0001:00015720       ?type@eRegIOper@@UBEPBVType@@XZ 08016720 f i ad_i486_clone.obj
 0001:00015720       ?type@immI_1_31Oper@@UBEPBVType@@XZ 08016720 f i ad_i486_clone.obj
 0001:00015720       ?bottom_type@RShiftINode@@UBEPBVType@@XZ 08016720 f i ad_i486_clone.obj
 0001:00015720       ?bottom_type@ModINode@@UBEPBVType@@XZ 08016720 f i ad_i486_clone.obj
 0001:00015720       ?type@eDIRegIOper@@UBEPBVType@@XZ 08016720 f i ad_i486_clone.obj
 0001:00015720       ?type@immI_255Oper@@UBEPBVType@@XZ 08016720 f i ad_i486_clone.obj
 0001:00015720       ?type@xRegIOper@@UBEPBVType@@XZ 08016720 f i ad_i486_clone.obj
 0001:00015720       ?type@immI10Oper@@UBEPBVType@@XZ 08016720 f i ad_i486_clone.obj
 0001:00015720       ?bottom_type@Opaque1Node@@UBEPBVType@@XZ 08016720 f i ad_i486_clone.obj
 0001:00015720       ?bottom_type@SubINode@@UBEPBVType@@XZ 08016720 f i ad_i486_clone.obj
 0001:00015720       ?bottom_type@DivINode@@UBEPBVType@@XZ 08016720 f i ad_i486_clone.obj
 0001:00015720       ?bottom_type@LShiftINode@@UBEPBVType@@XZ 08016720 f i ad_i486_clone.obj
 0001:00015720       ?type@eDXRegIOper@@UBEPBVType@@XZ 08016720 f i ad_i486_clone.obj
 0001:00015720       ?bottom_type@AddINode@@UBEPBVType@@XZ 08016720 f i ad_i486_clone.obj
 0001:00015720       ?bottom_type@OrINode@@UBEPBVType@@XZ 08016720 f i ad_i486_clone.obj
 0001:00015720       ?bottom_type@ConvF2INode@@UBEPBVType@@XZ 08016720 f i ad_i486_clone.obj
 0001:00015720       ?bottom_type@MulINode@@UBEPBVType@@XZ 08016720 f i ad_i486_clone.obj
 0001:00015720       ?bottom_type@ConvD2INode@@UBEPBVType@@XZ 08016720 f i ad_i486_clone.obj
 0001:00015720       ?type@immI16Oper@@UBEPBVType@@XZ 08016720 f i ad_i486_clone.obj
 0001:00015720       ?type@eSIRegIOper@@UBEPBVType@@XZ 08016720 f i ad_i486_clone.obj
 0001:00015720       ?type@immI_16Oper@@UBEPBVType@@XZ 08016720 f i ad_i486_clone.obj
 0001:00015720       ?type@stackSlotIOper@@UBEPBVType@@XZ 08016720 f i ad_i486_clone.obj
 0001:00015720       ?type@immI0Oper@@UBEPBVType@@XZ 08016720 f i ad_i486_clone.obj
 0001:00015720       ?type@eCXRegIOper@@UBEPBVType@@XZ 08016720 f i ad_i486_clone.obj
 0001:00015720       ?type@nadxRegIOper@@UBEPBVType@@XZ 08016720 f i ad_i486_clone.obj
 0001:00015720       ?type@eBXRegIOper@@UBEPBVType@@XZ 08016720 f i ad_i486_clone.obj
 0001:00015720       ?type@immIOper@@UBEPBVType@@XZ 08016720 f i ad_i486_clone.obj
 0001:00015720       ?bottom_type@StrCompNode@@UBEPBVType@@XZ 08016720 f i ad_i486_clone.obj
 0001:00015720       ?type@immI2Oper@@UBEPBVType@@XZ 08016720 f i ad_i486_clone.obj
 0001:00015720       ?bottom_type@PartialSubtypeCheckNode@@UBEPBVType@@XZ 08016720 f i ad_i486_clone.obj
 0001:00015720       ?type@immI_24Oper@@UBEPBVType@@XZ 08016720 f i ad_i486_clone.obj
 0001:00015730       ?clone@immInzOper@@UBEPAVMachOper@@XZ 08016730 f   ad_i486_clone.obj
 0001:00015780       ?clone@immInoneOper@@UBEPAVMachOper@@XZ 08016780 f   ad_i486_clone.obj
 0001:000157d0       ?clone@immI1Oper@@UBEPAVMachOper@@XZ 080167d0 f   ad_i486_clone.obj
 0001:00015820       ?clone@immI_M1Oper@@UBEPAVMachOper@@XZ 08016820 f   ad_i486_clone.obj
 0001:00015870       ?clone@immI2Oper@@UBEPAVMachOper@@XZ 08016870 f   ad_i486_clone.obj
 0001:000158c0       ?clone@immI8Oper@@UBEPAVMachOper@@XZ 080168c0 f   ad_i486_clone.obj
 0001:00015910       ?clone@immI16Oper@@UBEPAVMachOper@@XZ 08016910 f   ad_i486_clone.obj
 0001:00015960       ?clone@immI_32Oper@@UBEPAVMachOper@@XZ 08016960 f   ad_i486_clone.obj
 0001:000159b0       ?clone@immI10Oper@@UBEPAVMachOper@@XZ 080169b0 f   ad_i486_clone.obj
 0001:00015a00       ?clone@immI_1_31Oper@@UBEPAVMachOper@@XZ 08016a00 f   ad_i486_clone.obj
 0001:00015a50       ?opcode@immI_1_31Oper@@UBEIXZ 08016a50 f i ad_i486_clone.obj
 0001:00015a50       ?ideal_Opcode@atanD_regNode@@EBEHXZ 08016a50 f i ad_i486_clone.obj
 0001:00015a50       ?ideal_Opcode@atanXD_regNode@@EBEHXZ 08016a50 f i ad_i486_clone.obj
 0001:00015a60       ?clone@immI_32_63Oper@@UBEPAVMachOper@@XZ 08016a60 f   ad_i486_clone.obj
 0001:00015ab0       ?opcode@immI_32_63Oper@@UBEIXZ 08016ab0 f i ad_i486_clone.obj
 0001:00015ac0       ?clone@immPOper@@UBEPAVMachOper@@XZ 08016ac0 f   ad_i486_clone.obj
 0001:00015b10       ?opcode@immPOper@@UBEIXZ   08016b10 f i ad_i486_clone.obj
 0001:00015b20       ?constant@immP0Oper@@UBEHXZ 08016b20 f i ad_i486_clone.obj
 0001:00015b20       ?constant@immPOper@@UBEHXZ 08016b20 f i ad_i486_clone.obj
 0001:00015b20       ?constant_disp@indOffset32XOper@@UBEHXZ 08016b20 f i ad_i486_clone.obj
 0001:00015b20       ?constant_disp@directOper@@UBEHXZ 08016b20 f i ad_i486_clone.obj
 0001:00015b30       ?clone@immP0Oper@@UBEPAVMachOper@@XZ 08016b30 f   ad_i486_clone.obj
 0001:00015b80       ?opcode@immP0Oper@@UBEIXZ  08016b80 f i ad_i486_clone.obj
 0001:00015b80       ?ideal_Opcode@box_handleNode@@EBEHXZ 08016b80 f i ad_i486_clone.obj
 0001:00015b90       ?clone@immLOper@@UBEPAVMachOper@@XZ 08016b90 f   ad_i486_clone.obj
 0001:00015bf0       ?set_con@immL_32bitsOper@@UAEXH@Z 08016bf0 f i ad_i486_clone.obj
 0001:00015bf0       ?set_con@immL0Oper@@UAEXH@Z 08016bf0 f i ad_i486_clone.obj
 0001:00015bf0       ?set_con@immL32Oper@@UAEXH@Z 08016bf0 f i ad_i486_clone.obj
 0001:00015bf0       ?set_con@immLOper@@UAEXH@Z 08016bf0 f i ad_i486_clone.obj
 0001:00015bf0       ?set_con@immL_127Oper@@UAEXH@Z 08016bf0 f i ad_i486_clone.obj
 0001:00015c00       ?opcode@immLOper@@UBEIXZ   08016c00 f i ad_i486_clone.obj
 0001:00015c00       ?minSize@BinaryTreeDictionary@@UBEIXZ 08016c00 f i ad_i486_clone.obj
 0001:00015c10       ?constantL@immLOper@@UBE_JXZ 08016c10 f i ad_i486_clone.obj
 0001:00015c10       ?constantL@immL_127Oper@@UBE_JXZ 08016c10 f i ad_i486_clone.obj
 0001:00015c10       ?constantL@immL32Oper@@UBE_JXZ 08016c10 f i ad_i486_clone.obj
 0001:00015c10       ?constantL@immL_32bitsOper@@UBE_JXZ 08016c10 f i ad_i486_clone.obj
 0001:00015c10       ?constantL@immL0Oper@@UBE_JXZ 08016c10 f i ad_i486_clone.obj
 0001:00015c20       ?clone@immL0Oper@@UBEPAVMachOper@@XZ 08016c20 f   ad_i486_clone.obj
 0001:00015c80       ?opcode@immL0Oper@@UBEIXZ  08016c80 f i ad_i486_clone.obj
 0001:00015c90       ?clone@immL_127Oper@@UBEPAVMachOper@@XZ 08016c90 f   ad_i486_clone.obj
 0001:00015cf0       ?ideal_Opcode@CallCompiledJavaDirectNode@@EBEHXZ 08016cf0 f i ad_i486_clone.obj
 0001:00015cf0       ?opcode@immL_127Oper@@UBEIXZ 08016cf0 f i ad_i486_clone.obj
 0001:00015d00       ?clone@immL_32bitsOper@@UBEPAVMachOper@@XZ 08016d00 f   ad_i486_clone.obj
 0001:00015d60       ?clone@immL32Oper@@UBEPAVMachOper@@XZ 08016d60 f   ad_i486_clone.obj
 0001:00015dc0       ?ideal_Opcode@CallInterpreterDirectNode@@EBEHXZ 08016dc0 f i ad_i486_clone.obj
 0001:00015dc0       ?opcode@immL32Oper@@UBEIXZ 08016dc0 f i ad_i486_clone.obj
 0001:00015dd0       ?clone@immD0Oper@@UBEPAVMachOper@@XZ 08016dd0 f   ad_i486_clone.obj
 0001:00015e30       ?opcode@immD0Oper@@UBEIXZ  08016e30 f i ad_i486_clone.obj
 0001:00015e40       ?bottom_type@CosDNode@@UBEPBVType@@XZ 08016e40 f i ad_i486_clone.obj
 0001:00015e40       ?bottom_type@RoundDoubleNode@@UBEPBVType@@XZ 08016e40 f i ad_i486_clone.obj
 0001:00015e40       ?bottom_type@ConvL2DNode@@UBEPBVType@@XZ 08016e40 f i ad_i486_clone.obj
 0001:00015e40       ?type@immXD0Oper@@UBEPBVType@@XZ 08016e40 f i ad_i486_clone.obj
 0001:00015e40       ?bottom_type@AbsDNode@@UBEPBVType@@XZ 08016e40 f i ad_i486_clone.obj
 0001:00015e40       ?bottom_type@ConvI2DNode@@UBEPBVType@@XZ 08016e40 f i ad_i486_clone.obj
 0001:00015e40       ?type@stackSlotDOper@@UBEPBVType@@XZ 08016e40 f i ad_i486_clone.obj
 0001:00015e40       ?bottom_type@SubDNode@@UBEPBVType@@XZ 08016e40 f i ad_i486_clone.obj
 0001:00015e40       ?bottom_type@ConvF2DNode@@UBEPBVType@@XZ 08016e40 f i ad_i486_clone.obj
 0001:00015e40       ?type@immD1Oper@@UBEPBVType@@XZ 08016e40 f i ad_i486_clone.obj
 0001:00015e40       ?type@regDOper@@UBEPBVType@@XZ 08016e40 f i ad_i486_clone.obj
 0001:00015e40       ?type@regXDOper@@UBEPBVType@@XZ 08016e40 f i ad_i486_clone.obj
 0001:00015e40       ?type@immDOper@@UBEPBVType@@XZ 08016e40 f i ad_i486_clone.obj
 0001:00015e40       ?bottom_type@PowDNode@@UBEPBVType@@XZ 08016e40 f i ad_i486_clone.obj
 0001:00015e40       ?type@immD0Oper@@UBEPBVType@@XZ 08016e40 f i ad_i486_clone.obj
 0001:00015e40       ?bottom_type@DivDNode@@UBEPBVType@@XZ 08016e40 f i ad_i486_clone.obj
 0001:00015e40       ?type@regDPR2Oper@@UBEPBVType@@XZ 08016e40 f i ad_i486_clone.obj
 0001:00015e40       ?bottom_type@SqrtDNode@@UBEPBVType@@XZ 08016e40 f i ad_i486_clone.obj
 0001:00015e40       ?bottom_type@NegDNode@@UBEPBVType@@XZ 08016e40 f i ad_i486_clone.obj
 0001:00015e40       ?bottom_type@MulDNode@@UBEPBVType@@XZ 08016e40 f i ad_i486_clone.obj
 0001:00015e40       ?bottom_type@SinDNode@@UBEPBVType@@XZ 08016e40 f i ad_i486_clone.obj
 0001:00015e40       ?bottom_type@ModDNode@@UBEPBVType@@XZ 08016e40 f i ad_i486_clone.obj
 0001:00015e40       ?type@immXDOper@@UBEPBVType@@XZ 08016e40 f i ad_i486_clone.obj
 0001:00015e40       ?bottom_type@AddDNode@@UBEPBVType@@XZ 08016e40 f i ad_i486_clone.obj
 0001:00015e40       ?type@regDPR1Oper@@UBEPBVType@@XZ 08016e40 f i ad_i486_clone.obj
 0001:00015e50       ?constant@immD0Oper@@UBEHXZ 08016e50 f i ad_i486_clone.obj
 0001:00015e70       ?constantD@immXD0Oper@@UBENXZ 08016e70 f i ad_i486_clone.obj
 0001:00015e70       ?constantD@immXDOper@@UBENXZ 08016e70 f i ad_i486_clone.obj
 0001:00015e70       ?constantD@immD1Oper@@UBENXZ 08016e70 f i ad_i486_clone.obj
 0001:00015e70       ?constantD@immDOper@@UBENXZ 08016e70 f i ad_i486_clone.obj
 0001:00015e70       ?constantD@immD0Oper@@UBENXZ 08016e70 f i ad_i486_clone.obj
 0001:00015e80       ?clone@immD1Oper@@UBEPAVMachOper@@XZ 08016e80 f   ad_i486_clone.obj
 0001:00015ee0       ?opcode@immD1Oper@@UBEIXZ  08016ee0 f i ad_i486_clone.obj
 0001:00015ee0       ?ideal_Opcode@CallLeafDirectNode@@EBEHXZ 08016ee0 f i ad_i486_clone.obj
 0001:00015ef0       ?constant@immD1Oper@@UBEHXZ 08016ef0 f i ad_i486_clone.obj
 0001:00015f10       ?clone@immDOper@@UBEPAVMachOper@@XZ 08016f10 f   ad_i486_clone.obj
 0001:00015f70       ?ideal_Opcode@CallNativeDirectNode@@EBEHXZ 08016f70 f i ad_i486_clone.obj
 0001:00015f70       ?opcode@immDOper@@UBEIXZ   08016f70 f i ad_i486_clone.obj
 0001:00015f80       ?constant@immDOper@@UBEHXZ 08016f80 f i ad_i486_clone.obj
 0001:00015fa0       ?clone@immXDOper@@UBEPAVMachOper@@XZ 08016fa0 f   ad_i486_clone.obj
 0001:00016000       ?opcode@immXDOper@@UBEIXZ  08017000 f i ad_i486_clone.obj
 0001:00016000       ?ideal_Opcode@CallRuntimeDirectNode@@EBEHXZ 08017000 f i ad_i486_clone.obj
 0001:00016010       ?constant@immXDOper@@UBEHXZ 08017010 f i ad_i486_clone.obj
 0001:00016030       ?clone@immXD0Oper@@UBEPAVMachOper@@XZ 08017030 f   ad_i486_clone.obj
 0001:00016090       ?opcode@immXD0Oper@@UBEIXZ 08017090 f i ad_i486_clone.obj
 0001:00016090       ?ideal_Opcode@CallStaticJavaDirectNode@@EBEHXZ 08017090 f i ad_i486_clone.obj
 0001:000160a0       ?constant@immXD0Oper@@UBEHXZ 080170a0 f i ad_i486_clone.obj
 0001:000160c0       ?clone@immF0Oper@@UBEPAVMachOper@@XZ 080170c0 f   ad_i486_clone.obj
 0001:00016110       ?opcode@immF0Oper@@UBEIXZ  08017110 f i ad_i486_clone.obj
 0001:00016110       ?ideal_Opcode@castL2PNode@@EBEHXZ 08017110 f i ad_i486_clone.obj
 0001:00016120       ?bottom_type@ConvD2FNode@@UBEPBVType@@XZ 08017120 f i ad_i486_clone.obj
 0001:00016120       ?bottom_type@RoundFloatNode@@UBEPBVType@@XZ 08017120 f i ad_i486_clone.obj
 0001:00016120       ?bottom_type@DivFNode@@UBEPBVType@@XZ 08017120 f i ad_i486_clone.obj
 0001:00016120       ?bottom_type@SubFNode@@UBEPBVType@@XZ 08017120 f i ad_i486_clone.obj
 0001:00016120       ?bottom_type@ConvI2FNode@@UBEPBVType@@XZ 08017120 f i ad_i486_clone.obj
 0001:00016120       ?type@regXOper@@UBEPBVType@@XZ 08017120 f i ad_i486_clone.obj
 0001:00016120       ?bottom_type@ConvL2FNode@@UBEPBVType@@XZ 08017120 f i ad_i486_clone.obj
 0001:00016120       ?bottom_type@MulFNode@@UBEPBVType@@XZ 08017120 f i ad_i486_clone.obj
 0001:00016120       ?bottom_type@AddFNode@@UBEPBVType@@XZ 08017120 f i ad_i486_clone.obj
 0001:00016120       ?type@immXF0Oper@@UBEPBVType@@XZ 08017120 f i ad_i486_clone.obj
 0001:00016120       ?type@regFOper@@UBEPBVType@@XZ 08017120 f i ad_i486_clone.obj
 0001:00016120       ?bottom_type@ModFNode@@UBEPBVType@@XZ 08017120 f i ad_i486_clone.obj
 0001:00016120       ?bottom_type@NegFNode@@UBEPBVType@@XZ 08017120 f i ad_i486_clone.obj
 0001:00016120       ?type@immXFOper@@UBEPBVType@@XZ 08017120 f i ad_i486_clone.obj
 0001:00016120       ?type@regFPR1Oper@@UBEPBVType@@XZ 08017120 f i ad_i486_clone.obj
 0001:00016120       ?bottom_type@AbsFNode@@UBEPBVType@@XZ 08017120 f i ad_i486_clone.obj
 0001:00016120       ?type@immF0Oper@@UBEPBVType@@XZ 08017120 f i ad_i486_clone.obj
 0001:00016120       ?type@immFOper@@UBEPBVType@@XZ 08017120 f i ad_i486_clone.obj
 0001:00016120       ?type@stackSlotFOper@@UBEPBVType@@XZ 08017120 f i ad_i486_clone.obj
 0001:00016130       ?constant@immF0Oper@@UBEHXZ 08017130 f i ad_i486_clone.obj
 0001:00016150       ?constantF@immXFOper@@UBEMXZ 08017150 f i ad_i486_clone.obj
 0001:00016150       ?constantF@immF0Oper@@UBEMXZ 08017150 f i ad_i486_clone.obj
 0001:00016150       ?constantF@immFOper@@UBEMXZ 08017150 f i ad_i486_clone.obj
 0001:00016150       ?constantF@immXF0Oper@@UBEMXZ 08017150 f i ad_i486_clone.obj
 0001:00016160       ?clone@immFOper@@UBEPAVMachOper@@XZ 08017160 f   ad_i486_clone.obj
 0001:000161b0       ?opcode@immFOper@@UBEIXZ   080171b0 f i ad_i486_clone.obj
 0001:000161b0       ?ideal_Opcode@castP2INode@@EBEHXZ 080171b0 f i ad_i486_clone.obj
 0001:000161c0       ?constant@immFOper@@UBEHXZ 080171c0 f i ad_i486_clone.obj
 0001:000161e0       ?clone@immXFOper@@UBEPAVMachOper@@XZ 080171e0 f   ad_i486_clone.obj
 0001:00016230       ?opcode@immXFOper@@UBEIXZ  08017230 f i ad_i486_clone.obj
 0001:00016230       ?ideal_Opcode@castP2LNode@@EBEHXZ 08017230 f i ad_i486_clone.obj
 0001:00016240       ?constant@immXFOper@@UBEHXZ 08017240 f i ad_i486_clone.obj
 0001:00016260       ?clone@immXF0Oper@@UBEPAVMachOper@@XZ 08017260 f   ad_i486_clone.obj
 0001:000162b0       ?constant@immXF0Oper@@UBEHXZ 080172b0 f i ad_i486_clone.obj
 0001:000162d0       ?clone@immI_16Oper@@UBEPAVMachOper@@XZ 080172d0 f   ad_i486_clone.obj
 0001:00016320       ?opcode@immI_16Oper@@UBEIXZ 08017320 f i ad_i486_clone.obj
 0001:00016330       ?clone@immI_24Oper@@UBEPAVMachOper@@XZ 08017330 f   ad_i486_clone.obj
 0001:00016380       ?opcode@immI_24Oper@@UBEIXZ 08017380 f i ad_i486_clone.obj
 0001:00016390       ?clone@immI_255Oper@@UBEPAVMachOper@@XZ 08017390 f   ad_i486_clone.obj
 0001:000163e0       ?opcode@immI_255Oper@@UBEIXZ 080173e0 f i ad_i486_clone.obj
 0001:000163e0       ?ideal_Opcode@checkCastPPNode@@EBEHXZ 080173e0 f i ad_i486_clone.obj
 0001:000163f0       ?clone@eRegIOper@@UBEPAVMachOper@@XZ 080173f0 f   ad_i486_clone.obj
 0001:00016440       ?clone@xRegIOper@@UBEPAVMachOper@@XZ 08017440 f   ad_i486_clone.obj
 0001:00016490       ?clone@eAXRegIOper@@UBEPAVMachOper@@XZ 08017490 f   ad_i486_clone.obj
 0001:000164e0       ?ideal_Opcode@cmovXX_reg_EQNENode@@EBEHXZ 080174e0 f i ad_i486_clone.obj
 0001:000164e0       ?ideal_Opcode@fcmovF_regUNode@@EBEHXZ 080174e0 f i ad_i486_clone.obj
 0001:000164e0       ?ideal_Opcode@fcmovX_regUNode@@EBEHXZ 080174e0 f i ad_i486_clone.obj
 0001:000164e0       ?ideal_Opcode@cmovXX_reg_LTGENode@@EBEHXZ 080174e0 f i ad_i486_clone.obj
 0001:000164e0       ?ideal_Opcode@fcmovF_regSNode@@EBEHXZ 080174e0 f i ad_i486_clone.obj
 0001:000164e0       ?opcode@eAXRegIOper@@UBEIXZ 080174e0 f i ad_i486_clone.obj
 0001:000164e0       ?ideal_Opcode@cmovFF_reg_LTGENode@@EBEHXZ 080174e0 f i ad_i486_clone.obj
 0001:000164e0       ?ideal_Opcode@cmovFF_reg_LEGTNode@@EBEHXZ 080174e0 f i ad_i486_clone.obj
 0001:000164e0       ?ideal_Opcode@cmovXX_reg_LEGTNode@@EBEHXZ 080174e0 f i ad_i486_clone.obj
 0001:000164e0       ?ideal_Opcode@fcmovX_regSNode@@EBEHXZ 080174e0 f i ad_i486_clone.obj
 0001:000164e0       ?ideal_Opcode@cmovFF_reg_EQNENode@@EBEHXZ 080174e0 f i ad_i486_clone.obj
 0001:000164f0       ?clone@eBXRegIOper@@UBEPAVMachOper@@XZ 080174f0 f   ad_i486_clone.obj
 0001:00016540       ?clone@eCXRegIOper@@UBEPAVMachOper@@XZ 08017540 f   ad_i486_clone.obj
 0001:00016590       ?clone@eDXRegIOper@@UBEPAVMachOper@@XZ 08017590 f   ad_i486_clone.obj
 0001:000165e0       ?ideal_Opcode@cmovPP_reg_LEGTNode@@EBEHXZ 080175e0 f i ad_i486_clone.obj
 0001:000165e0       ?ideal_Opcode@cmovPP_reg_LTGENode@@EBEHXZ 080175e0 f i ad_i486_clone.obj
 0001:000165e0       ?ideal_Opcode@cmovP_regNode@@EBEHXZ 080175e0 f i ad_i486_clone.obj
 0001:000165e0       ?ideal_Opcode@cmovP_reg_nonP6Node@@EBEHXZ 080175e0 f i ad_i486_clone.obj
 0001:000165e0       ?opcode@eDXRegIOper@@UBEIXZ 080175e0 f i ad_i486_clone.obj
 0001:000165e0       ?ideal_Opcode@cmovPP_reg_EQNENode@@EBEHXZ 080175e0 f i ad_i486_clone.obj
 0001:000165e0       ?ideal_Opcode@cmovP_regUNode@@EBEHXZ 080175e0 f i ad_i486_clone.obj
 0001:000165f0       ?clone@eDIRegIOper@@UBEPAVMachOper@@XZ 080175f0 f   ad_i486_clone.obj
 0001:00016640       ?clone@naxRegIOper@@UBEPAVMachOper@@XZ 08017640 f   ad_i486_clone.obj
 0001:00016690       ?clone@nadxRegIOper@@UBEPAVMachOper@@XZ 08017690 f   ad_i486_clone.obj
 0001:000166e0       ?clone@ncxRegIOper@@UBEPAVMachOper@@XZ 080176e0 f   ad_i486_clone.obj
 0001:00016730       ?clone@eSIRegIOper@@UBEPAVMachOper@@XZ 08017730 f   ad_i486_clone.obj
 0001:00016780       ?clone@anyRegPOper@@UBEPAVMachOper@@XZ 08017780 f   ad_i486_clone.obj
 0001:000167d0       ?ideal_Opcode@cmpL_reg_flags_LEGTNode@@EBEHXZ 080177d0 f i ad_i486_clone.obj
 0001:000167d0       ?ideal_Opcode@cmpL_zero_flags_EQNENode@@EBEHXZ 080177d0 f i ad_i486_clone.obj
 0001:000167d0       ?opcode@anyRegPOper@@UBEIXZ 080177d0 f i ad_i486_clone.obj
 0001:000167d0       ?ideal_Opcode@cmpL_zero_flags_LEGTNode@@EBEHXZ 080177d0 f i ad_i486_clone.obj
 0001:000167d0       ?ideal_Opcode@cmpL_reg_flags_LTGENode@@EBEHXZ 080177d0 f i ad_i486_clone.obj
 0001:000167d0       ?ideal_Opcode@cmpL_reg_flags_EQNENode@@EBEHXZ 080177d0 f i ad_i486_clone.obj
 0001:000167d0       ?ideal_Opcode@cmpL_zero_flags_LTGENode@@EBEHXZ 080177d0 f i ad_i486_clone.obj
 0001:000167e0       ?clone@eRegPOper@@UBEPAVMachOper@@XZ 080177e0 f   ad_i486_clone.obj
 0001:00016830       ?clone@eRegP_win95_safeOper@@UBEPAVMachOper@@XZ 08017830 f   ad_i486_clone.obj
 0001:00016880       ?opcode@eRegP_win95_safeOper@@UBEIXZ 08017880 f i ad_i486_clone.obj
 0001:00016880       ?ideal_Opcode@cmpLTMaskNode@@EBEHXZ 08017880 f i ad_i486_clone.obj
 0001:00016880       ?ideal_Opcode@cmpLTMask0Node@@EBEHXZ 08017880 f i ad_i486_clone.obj
 0001:00016890       ?clone@naxRegPOper@@UBEPAVMachOper@@XZ 08017890 f   ad_i486_clone.obj
 0001:000168e0       ?clone@nabxRegPOper@@UBEPAVMachOper@@XZ 080178e0 f   ad_i486_clone.obj
 0001:00016930       ?clone@pRegPOper@@UBEPAVMachOper@@XZ 08017930 f   ad_i486_clone.obj
 0001:00016980       ?clone@eAXRegPOper@@UBEPAVMachOper@@XZ 08017980 f   ad_i486_clone.obj
 0001:000169d0       ?ideal_Opcode@loadConXD0Node@@EBEHXZ 080179d0 f i ad_i486_clone.obj
 0001:000169d0       ?opcode@eAXRegPOper@@UBEIXZ 080179d0 f i ad_i486_clone.obj
 0001:000169d0       ?ideal_Opcode@loadConXDNode@@EBEHXZ 080179d0 f i ad_i486_clone.obj
 0001:000169d0       ?ideal_Opcode@loadConDNode@@EBEHXZ 080179d0 f i ad_i486_clone.obj
 0001:000169e0       ?adr_type@MergeMemNode@@UBEPBVTypePtr@@XZ 080179e0 f i ad_i486_clone.obj
 0001:000169e0       ?adr_type@SafePointNode@@UBEPBVTypePtr@@XZ 080179e0 f i ad_i486_clone.obj
 0001:000169e0       ?type@nabxRegPOper@@UBEPBVType@@XZ 080179e0 f i ad_i486_clone.obj
 0001:000169e0       ?type@load_long_RegPOper@@UBEPBVType@@XZ 080179e0 f i ad_i486_clone.obj
 0001:000169e0       ?type@pRegPOper@@UBEPBVType@@XZ 080179e0 f i ad_i486_clone.obj
 0001:000169e0       ?type@eCXRegPOper@@UBEPBVType@@XZ 080179e0 f i ad_i486_clone.obj
 0001:000169e0       ?type@eRegPOper@@UBEPBVType@@XZ 080179e0 f i ad_i486_clone.obj
 0001:000169e0       ?type@naxRegPOper@@UBEPBVType@@XZ 080179e0 f i ad_i486_clone.obj
 0001:000169e0       ?type@anyRegPOper@@UBEPBVType@@XZ 080179e0 f i ad_i486_clone.obj
 0001:000169e0       ?type@eAXRegPOper@@UBEPBVType@@XZ 080179e0 f i ad_i486_clone.obj
 0001:000169e0       ?type@indirectOper@@UBEPBVType@@XZ 080179e0 f i ad_i486_clone.obj
 0001:000169e0       ?type@eRegP_win95_safeOper@@UBEPBVType@@XZ 080179e0 f i ad_i486_clone.obj
 0001:000169e0       ?adr_type@StrCompNode@@UBEPBVTypePtr@@XZ 080179e0 f i ad_i486_clone.obj
 0001:000169e0       ?type@load_long_indirectOper@@UBEPBVType@@XZ 080179e0 f i ad_i486_clone.obj
 0001:000169e0       ?type@stackSlotPOper@@UBEPBVType@@XZ 080179e0 f i ad_i486_clone.obj
 0001:000169e0       ?type@indirect_win95_safeOper@@UBEPBVType@@XZ 080179e0 f i ad_i486_clone.obj
 0001:000169e0       ?type@eBPRegPOper@@UBEPBVType@@XZ 080179e0 f i ad_i486_clone.obj
 0001:000169e0       ?adr_type@StartNode@@UBEPBVTypePtr@@XZ 080179e0 f i ad_i486_clone.obj
 0001:000169e0       ?type@eDIRegPOper@@UBEPBVType@@XZ 080179e0 f i ad_i486_clone.obj
 0001:000169e0       ?adr_type@MemBarNode@@UBEPBVTypePtr@@XZ 080179e0 f i ad_i486_clone.obj
 0001:000169e0       ?type@eSIRegPOper@@UBEPBVType@@XZ 080179e0 f i ad_i486_clone.obj
 0001:000169e0       ?type@eBXRegPOper@@UBEPBVType@@XZ 080179e0 f i ad_i486_clone.obj
 0001:000169f0       ?clone@eBXRegPOper@@UBEPAVMachOper@@XZ 080179f0 f   ad_i486_clone.obj
 0001:00016a40       ?opcode@eBXRegPOper@@UBEIXZ 08017a40 f i ad_i486_clone.obj
 0001:00016a40       ?ideal_Opcode@loadConFNode@@EBEHXZ 08017a40 f i ad_i486_clone.obj
 0001:00016a40       ?ideal_Opcode@loadConXNode@@EBEHXZ 08017a40 f i ad_i486_clone.obj
 0001:00016a40       ?ideal_Opcode@loadConX0Node@@EBEHXZ 08017a40 f i ad_i486_clone.obj
 0001:00016a50       ?clone@eCXRegPOper@@UBEPAVMachOper@@XZ 08017a50 f   ad_i486_clone.obj
 0001:00016aa0       ?ideal_Opcode@loadConINode@@EBEHXZ 08017aa0 f i ad_i486_clone.obj
 0001:00016aa0       ?ideal_Opcode@loadConI0Node@@EBEHXZ 08017aa0 f i ad_i486_clone.obj
 0001:00016aa0       ?opcode@eCXRegPOper@@UBEIXZ 08017aa0 f i ad_i486_clone.obj
 0001:00016ab0       ?clone@eSIRegPOper@@UBEPAVMachOper@@XZ 08017ab0 f   ad_i486_clone.obj
 0001:00016b00       ?clone@eDIRegPOper@@UBEPAVMachOper@@XZ 08017b00 f   ad_i486_clone.obj
 0001:00016b50       ?ideal_Opcode@loadConPNode@@EBEHXZ 08017b50 f i ad_i486_clone.obj
 0001:00016b50       ?opcode@eDIRegPOper@@UBEIXZ 08017b50 f i ad_i486_clone.obj
 0001:00016b60       ?clone@eBPRegPOper@@UBEPAVMachOper@@XZ 08017b60 f   ad_i486_clone.obj
 0001:00016bb0       ?ideal_Opcode@convP2BNode@@EBEHXZ 08017bb0 f i ad_i486_clone.obj
 0001:00016bb0       ?opcode@eBPRegPOper@@UBEIXZ 08017bb0 f i ad_i486_clone.obj
 0001:00016bb0       ?ideal_Opcode@convI2BNode@@EBEHXZ 08017bb0 f i ad_i486_clone.obj
 0001:00016bc0       ?clone@eRegLOper@@UBEPAVMachOper@@XZ 08017bc0 f   ad_i486_clone.obj
 0001:00016c10       ?ideal_Opcode@convXD2X_regNode@@EBEHXZ 08017c10 f i ad_i486_clone.obj
 0001:00016c10       ?opcode@eRegLOper@@UBEIXZ  08017c10 f i ad_i486_clone.obj
 0001:00016c10       ?ideal_Opcode@convD2X_regNode@@EBEHXZ 08017c10 f i ad_i486_clone.obj
 0001:00016c10       ?ideal_Opcode@convD2F_regNode@@EBEHXZ 08017c10 f i ad_i486_clone.obj
 0001:00016c20       ?clone@eADXRegLOper@@UBEPAVMachOper@@XZ 08017c20 f   ad_i486_clone.obj
 0001:00016c70       ?size_of@MachProjNode@@UBEIXZ 08017c70 f i ad_i486_clone.obj
 0001:00016c70       ?size_of@cadd_cmpLTMask2Node@@UBEIXZ 08017c70 f i ad_i486_clone.obj
 0001:00016c70       ?ideal_Opcode@convXD2I_reg_regNode@@EBEHXZ 08017c70 f i ad_i486_clone.obj
 0001:00016c70       ?size_of@cadd_cmpLTMask1Node@@UBEIXZ 08017c70 f i ad_i486_clone.obj
 0001:00016c70       ?opcode@eADXRegLOper@@UBEIXZ 08017c70 f i ad_i486_clone.obj
 0001:00016c70       ?ideal_Opcode@convD2I_reg_regNode@@EBEHXZ 08017c70 f i ad_i486_clone.obj
 0001:00016c80       ?clone@eBCXRegLOper@@UBEPAVMachOper@@XZ 08017c80 f   ad_i486_clone.obj
 0001:00016cd0       ?ideal_Opcode@convXD2L_reg_regNode@@EBEHXZ 08017cd0 f i ad_i486_clone.obj
 0001:00016cd0       ?opcode@eBCXRegLOper@@UBEIXZ 08017cd0 f i ad_i486_clone.obj
 0001:00016cd0       ?ideal_Opcode@convD2L_reg_regNode@@EBEHXZ 08017cd0 f i ad_i486_clone.obj
 0001:00016ce0       ?clone@eADXRegL_low_onlyOper@@UBEPAVMachOper@@XZ 08017ce0 f   ad_i486_clone.obj
 0001:00016d30       ?ideal_Opcode@convF2D_regNode@@EBEHXZ 08017d30 f i ad_i486_clone.obj
 0001:00016d30       ?opcode@eADXRegL_low_onlyOper@@UBEIXZ 08017d30 f i ad_i486_clone.obj
 0001:00016d30       ?ideal_Opcode@convX2D_regNode@@EBEHXZ 08017d30 f i ad_i486_clone.obj
 0001:00016d30       ?ideal_Opcode@convX2XD_regNode@@EBEHXZ 08017d30 f i ad_i486_clone.obj
 0001:00016d40       ?clone@eFlagsRegOper@@UBEPAVMachOper@@XZ 08017d40 f   ad_i486_clone.obj
 0001:00016d90       ?ideal_Opcode@convX2I_regNode@@EBEHXZ 08017d90 f i ad_i486_clone.obj
 0001:00016d90       ?opcode@eFlagsRegOper@@UBEIXZ 08017d90 f i ad_i486_clone.obj
 0001:00016d90       ?ideal_Opcode@convF2I_reg_regNode@@EBEHXZ 08017d90 f i ad_i486_clone.obj
 0001:00016da0       ?clone@eFlagsRegUOper@@UBEPAVMachOper@@XZ 08017da0 f   ad_i486_clone.obj
 0001:00016df0       ?opcode@eFlagsRegUOper@@UBEIXZ 08017df0 f i ad_i486_clone.obj
 0001:00016df0       ?ideal_Opcode@convF2L_reg_regNode@@EBEHXZ 08017df0 f i ad_i486_clone.obj
 0001:00016df0       ?ideal_Opcode@convX2L_reg_regNode@@EBEHXZ 08017df0 f i ad_i486_clone.obj
 0001:00016e00       ?bottom_type@CmpNode@@UBEPBVType@@XZ 08017e00 f i ad_i486_clone.obj
 0001:00016e00       ?type@eFlagsRegOper@@UBEPBVType@@XZ 08017e00 f i ad_i486_clone.obj
 0001:00016e00       ?type@flagsReg_long_LTGEOper@@UBEPBVType@@XZ 08017e00 f i ad_i486_clone.obj
 0001:00016e00       ?type@eFlagsRegUOper@@UBEPBVType@@XZ 08017e00 f i ad_i486_clone.obj
 0001:00016e00       ?type@flagsReg_long_EQNEOper@@UBEPBVType@@XZ 08017e00 f i ad_i486_clone.obj
 0001:00016e00       ?type@flagsReg_long_LEGTOper@@UBEPBVType@@XZ 08017e00 f i ad_i486_clone.obj
 0001:00016e10       ?clone@flagsReg_long_LTGEOper@@UBEPAVMachOper@@XZ 08017e10 f   ad_i486_clone.obj
 0001:00016e60       ?clone@flagsReg_long_EQNEOper@@UBEPAVMachOper@@XZ 08017e60 f   ad_i486_clone.obj
 0001:00016eb0       ?ideal_Opcode@convI2F_memNode@@EBEHXZ 08017eb0 f i ad_i486_clone.obj
 0001:00016eb0       ?ideal_Opcode@convI2F_SSFNode@@EBEHXZ 08017eb0 f i ad_i486_clone.obj
 0001:00016eb0       ?ideal_Opcode@convI2F_regNode@@EBEHXZ 08017eb0 f i ad_i486_clone.obj
 0001:00016eb0       ?ideal_Opcode@conv24I2F_regNode@@EBEHXZ 08017eb0 f i ad_i486_clone.obj
 0001:00016eb0       ?opcode@flagsReg_long_EQNEOper@@UBEIXZ 08017eb0 f i ad_i486_clone.obj
 0001:00016eb0       ?ideal_Opcode@convI2X_regNode@@EBEHXZ 08017eb0 f i ad_i486_clone.obj
 0001:00016eb0       ?ideal_Opcode@convI2F_SSF_memNode@@EBEHXZ 08017eb0 f i ad_i486_clone.obj
 0001:00016ec0       ?clone@flagsReg_long_LEGTOper@@UBEPAVMachOper@@XZ 08017ec0 f   ad_i486_clone.obj
 0001:00016f10       ?opcode@flagsReg_long_LEGTOper@@UBEIXZ 08017f10 f i ad_i486_clone.obj
 0001:00016f10       ?ideal_Opcode@convI2L_regNode@@EBEHXZ 08017f10 f i ad_i486_clone.obj
 0001:00016f20       ?clone@regDOper@@UBEPAVMachOper@@XZ 08017f20 f   ad_i486_clone.obj
 0001:00016f70       ?opcode@regDOper@@UBEIXZ   08017f70 f i ad_i486_clone.obj
 0001:00016f70       ?ideal_Opcode@convL2D_regNode@@EBEHXZ 08017f70 f i ad_i486_clone.obj
 0001:00016f70       ?ideal_Opcode@convL2XD_regNode@@EBEHXZ 08017f70 f i ad_i486_clone.obj
 0001:00016f80       ?clone@regDPR1Oper@@UBEPAVMachOper@@XZ 08017f80 f   ad_i486_clone.obj
 0001:00016fd0       ?opcode@regDPR1Oper@@UBEIXZ 08017fd0 f i ad_i486_clone.obj
 0001:00016fd0       ?ideal_Opcode@convL2X_regNode@@EBEHXZ 08017fd0 f i ad_i486_clone.obj
 0001:00016fd0       ?ideal_Opcode@convL2F_regNode@@EBEHXZ 08017fd0 f i ad_i486_clone.obj
 0001:00016fe0       ?clone@regDPR2Oper@@UBEPAVMachOper@@XZ 08017fe0 f   ad_i486_clone.obj
 0001:00017030       ?opcode@regDPR2Oper@@UBEIXZ 08018030 f i ad_i486_clone.obj
 0001:00017030       ?ideal_Opcode@convL2I_regNode@@EBEHXZ 08018030 f i ad_i486_clone.obj
 0001:00017030       ?ideal_Opcode@mulI_imm_highNode@@EBEHXZ 08018030 f i ad_i486_clone.obj
 0001:00017030       ?ideal_Opcode@mulI_imm_RShift_highNode@@EBEHXZ 08018030 f i ad_i486_clone.obj
 0001:00017040       ?clone@regXDOper@@UBEPAVMachOper@@XZ 08018040 f   ad_i486_clone.obj
 0001:00017090       ?opcode@regXDOper@@UBEIXZ  08018090 f i ad_i486_clone.obj
 0001:00017090       ?ideal_Opcode@movDNode@@EBEHXZ 08018090 f i ad_i486_clone.obj
 0001:000170a0       ?clone@regFOper@@UBEPAVMachOper@@XZ 080180a0 f   ad_i486_clone.obj
 0001:000170f0       ?size_of@CallInterpreterDirectNode@@UBEIXZ 080180f0 f i ad_i486_clone.obj
 0001:000170f0       ?size_of@CallCompiledJavaDirectNode@@UBEIXZ 080180f0 f i ad_i486_clone.obj
 0001:000170f0       ?ideal_Opcode@movXNode@@EBEHXZ 080180f0 f i ad_i486_clone.obj
 0001:000170f0       ?opcode@regFOper@@UBEIXZ   080180f0 f i ad_i486_clone.obj
 0001:000170f0       ?ideal_Opcode@movFNode@@EBEHXZ 080180f0 f i ad_i486_clone.obj
 0001:00017100       ?clone@regFPR1Oper@@UBEPAVMachOper@@XZ 08018100 f   ad_i486_clone.obj
 0001:00017150       ?opcode@regFPR1Oper@@UBEIXZ 08018150 f i ad_i486_clone.obj
 0001:00017150       ?ideal_Opcode@movINode@@EBEHXZ 08018150 f i ad_i486_clone.obj
 0001:00017160       ?clone@regXOper@@UBEPAVMachOper@@XZ 08018160 f   ad_i486_clone.obj
 0001:000171b0       ?opcode@regXOper@@UBEIXZ   080181b0 f i ad_i486_clone.obj
 0001:000171b0       ?ideal_Opcode@movLNode@@EBEHXZ 080181b0 f i ad_i486_clone.obj
 0001:000171c0       ?clone@directOper@@UBEPAVMachOper@@XZ 080181c0 f   ad_i486_clone.obj
 0001:00017210       ?ideal_Opcode@movPNode@@EBEHXZ 08018210 f i ad_i486_clone.obj
 0001:00017210       ?opcode@directOper@@UBEIXZ 08018210 f i ad_i486_clone.obj
 0001:00017220       ?base@directOper@@UBEHPAVPhaseRegAlloc@@PBVNode@@H@Z 08018220 f i ad_i486_clone.obj
 0001:00017230       ?disp@indOffset32XOper@@UBEHPAVPhaseRegAlloc@@PBVNode@@H@Z 08018230 f i ad_i486_clone.obj
 0001:00017230       ?disp@directOper@@UBEHPAVPhaseRegAlloc@@PBVNode@@H@Z 08018230 f i ad_i486_clone.obj
 0001:00017240       ?clone@indirectOper@@UBEPAVMachOper@@XZ 08018240 f   ad_i486_clone.obj
 0001:00017290       ?clone@indOffset8Oper@@UBEPAVMachOper@@XZ 08018290 f   ad_i486_clone.obj
 0001:000172e0       ?opcode@indOffset8Oper@@UBEIXZ 080182e0 f i ad_i486_clone.obj
 0001:000172f0       ?clone@indOffset32Oper@@UBEPAVMachOper@@XZ 080182f0 f   ad_i486_clone.obj
 0001:00017340       ?clone@indOffset32XOper@@UBEPAVMachOper@@XZ 08018340 f   ad_i486_clone.obj
 0001:00017390       ?ideal_Opcode@CreateExceptionNode@@EBEHXZ 08018390 f i ad_i486_clone.obj
 0001:00017390       ?opcode@indOffset32XOper@@UBEIXZ 08018390 f i ad_i486_clone.obj
 0001:000173a0       ?disp_is_oop@indOffset32XOper@@UBEHXZ 080183a0 f i ad_i486_clone.obj
 0001:000173a0       ?constant_is_oop@immPOper@@UBEHXZ 080183a0 f i ad_i486_clone.obj
 0001:000173a0       ?disp_is_oop@directOper@@UBEHXZ 080183a0 f i ad_i486_clone.obj
 0001:000173a0       ?constant_is_oop@immP0Oper@@UBEHXZ 080183a0 f i ad_i486_clone.obj
 0001:000173b0       ?clone@indIndexOffsetOper@@UBEPAVMachOper@@XZ 080183b0 f   ad_i486_clone.obj
 0001:00017400       ?clone@indIndexOper@@UBEPAVMachOper@@XZ 08018400 f   ad_i486_clone.obj
 0001:00017450       ?clone@indIndexScaleOper@@UBEPAVMachOper@@XZ 08018450 f   ad_i486_clone.obj
 0001:000174a0       ?ideal_Opcode@divI_eRegNode@@EBEHXZ 080184a0 f i ad_i486_clone.obj
 0001:000174a0       ?opcode@indIndexScaleOper@@UBEIXZ 080184a0 f i ad_i486_clone.obj
 0001:000174b0       ?clone@indIndexScaleOffsetOper@@UBEPAVMachOper@@XZ 080184b0 f   ad_i486_clone.obj
 0001:00017510       ?ideal_Opcode@divL_eRegNode@@EBEHXZ 08018510 f i ad_i486_clone.obj
 0001:00017510       ?opcode@indIndexScaleOffsetOper@@UBEIXZ 08018510 f i ad_i486_clone.obj
 0001:00017520       ?clone@load_long_RegPOper@@UBEPAVMachOper@@XZ 08018520 f   ad_i486_clone.obj
 0001:00017570       ?size_of@CallDynamicJavaDirectNode@@UBEIXZ 08018570 f i ad_i486_clone.obj
 0001:00017570       ?ideal_Opcode@cmpFastLockNode@@EBEHXZ 08018570 f i ad_i486_clone.obj
 0001:00017570       ?opcode@load_long_RegPOper@@UBEIXZ 08018570 f i ad_i486_clone.obj
 0001:00017580       ?clone@load_long_indirectOper@@UBEPAVMachOper@@XZ 08018580 f   ad_i486_clone.obj
 0001:000175d0       ?opcode@load_long_indirectOper@@UBEIXZ 080185d0 f i ad_i486_clone.obj
 0001:000175d0       ?ideal_Opcode@cmpFastUnlockNode@@EBEHXZ 080185d0 f i ad_i486_clone.obj
 0001:000175e0       ?clone@load_long_indOffset32Oper@@UBEPAVMachOper@@XZ 080185e0 f   ad_i486_clone.obj
 0001:00017630       ?clone@stackSlotPOper@@UBEPAVMachOper@@XZ 08018630 f   ad_i486_clone.obj
 0001:00017680       ?ideal_Opcode@ShouldNotReachHereNode@@EBEHXZ 08018680 f i ad_i486_clone.obj
 0001:00017680       ?opcode@stackSlotPOper@@UBEIXZ 08018680 f i ad_i486_clone.obj
 0001:00017690       ?disp@stackSlotDOper@@UBEHPAVPhaseRegAlloc@@PBVNode@@H@Z 08018690 f i ad_i486_clone.obj
 0001:00017690       ?disp@stackSlotLOper@@UBEHPAVPhaseRegAlloc@@PBVNode@@H@Z 08018690 f i ad_i486_clone.obj
 0001:00017690       ?disp@stackSlotIOper@@UBEHPAVPhaseRegAlloc@@PBVNode@@H@Z 08018690 f i ad_i486_clone.obj
 0001:00017690       ?disp@stackSlotFOper@@UBEHPAVPhaseRegAlloc@@PBVNode@@H@Z 08018690 f i ad_i486_clone.obj
 0001:00017690       ?disp@stackSlotPOper@@UBEHPAVPhaseRegAlloc@@PBVNode@@H@Z 08018690 f i ad_i486_clone.obj
 0001:000176e0       ?constant_disp@stackSlotIOper@@UBEHXZ 080186e0 f i ad_i486_clone.obj
 0001:000176e0       ?constant_disp@stackSlotPOper@@UBEHXZ 080186e0 f i ad_i486_clone.obj
 0001:000176e0       ?constant_disp@stackSlotLOper@@UBEHXZ 080186e0 f i ad_i486_clone.obj
 0001:000176e0       ?constant_disp@stackSlotDOper@@UBEHXZ 080186e0 f i ad_i486_clone.obj
 0001:000176e0       ?constant_disp@stackSlotFOper@@UBEHXZ 080186e0 f i ad_i486_clone.obj
 0001:000176f0       ?clone@stackSlotIOper@@UBEPAVMachOper@@XZ 080186f0 f   ad_i486_clone.obj
 0001:00017740       ?clone@stackSlotFOper@@UBEPAVMachOper@@XZ 08018740 f   ad_i486_clone.obj
 0001:00017790       ?opcode@stackSlotFOper@@UBEIXZ 08018790 f i ad_i486_clone.obj
 0001:000177a0       ?clone@stackSlotDOper@@UBEPAVMachOper@@XZ 080187a0 f   ad_i486_clone.obj
 0001:000177f0       ?opcode@stackSlotDOper@@UBEIXZ 080187f0 f i ad_i486_clone.obj
 0001:00017800       ?clone@stackSlotLOper@@UBEPAVMachOper@@XZ 08018800 f   ad_i486_clone.obj
 0001:00017850       ?opcode@stackSlotLOper@@UBEIXZ 08018850 f i ad_i486_clone.obj
 0001:00017860       ?bottom_type@LShiftLNode@@UBEPBVType@@XZ 08018860 f i ad_i486_clone.obj
 0001:00017860       ?bottom_type@MulLNode@@UBEPBVType@@XZ 08018860 f i ad_i486_clone.obj
 0001:00017860       ?bottom_type@URShiftLNode@@UBEPBVType@@XZ 08018860 f i ad_i486_clone.obj
 0001:00017860       ?type@immL0Oper@@UBEPBVType@@XZ 08018860 f i ad_i486_clone.obj
 0001:00017860       ?bottom_type@AddLNode@@UBEPBVType@@XZ 08018860 f i ad_i486_clone.obj
 0001:00017860       ?type@eADXRegLOper@@UBEPBVType@@XZ 08018860 f i ad_i486_clone.obj
 0001:00017860       ?type@immL_127Oper@@UBEPBVType@@XZ 08018860 f i ad_i486_clone.obj
 0001:00017860       ?type@immL32Oper@@UBEPBVType@@XZ 08018860 f i ad_i486_clone.obj
 0001:00017860       ?type@stackSlotLOper@@UBEPBVType@@XZ 08018860 f i ad_i486_clone.obj
 0001:00017860       ?type@immLOper@@UBEPBVType@@XZ 08018860 f i ad_i486_clone.obj
 0001:00017860       ?bottom_type@ConvD2LNode@@UBEPBVType@@XZ 08018860 f i ad_i486_clone.obj
 0001:00017860       ?type@immL_32bitsOper@@UBEPBVType@@XZ 08018860 f i ad_i486_clone.obj
 0001:00017860       ?bottom_type@SubLNode@@UBEPBVType@@XZ 08018860 f i ad_i486_clone.obj
 0001:00017860       ?bottom_type@ModLNode@@UBEPBVType@@XZ 08018860 f i ad_i486_clone.obj
 0001:00017860       ?bottom_type@RShiftLNode@@UBEPBVType@@XZ 08018860 f i ad_i486_clone.obj
 0001:00017860       ?bottom_type@XorLNode@@UBEPBVType@@XZ 08018860 f i ad_i486_clone.obj
 0001:00017860       ?bottom_type@OrLNode@@UBEPBVType@@XZ 08018860 f i ad_i486_clone.obj
 0001:00017860       ?type@eBCXRegLOper@@UBEPBVType@@XZ 08018860 f i ad_i486_clone.obj
 0001:00017860       ?bottom_type@CastP2LNode@@UBEPBVType@@XZ 08018860 f i ad_i486_clone.obj
 0001:00017860       ?type@eRegLOper@@UBEPBVType@@XZ 08018860 f i ad_i486_clone.obj
 0001:00017860       ?bottom_type@ConvF2LNode@@UBEPBVType@@XZ 08018860 f i ad_i486_clone.obj
 0001:00017860       ?type@eADXRegL_low_onlyOper@@UBEPBVType@@XZ 08018860 f i ad_i486_clone.obj
 0001:00017860       ?bottom_type@DivLNode@@UBEPBVType@@XZ 08018860 f i ad_i486_clone.obj
 0001:00017870       ?clone@indirect_win95_safeOper@@UBEPAVMachOper@@XZ 08018870 f   ad_i486_clone.obj
 0001:000178c0       ?clone@indOffset8_win95_safeOper@@UBEPAVMachOper@@XZ 080188c0 f   ad_i486_clone.obj
 0001:00017910       ?clone@indOffset32_win95_safeOper@@UBEPAVMachOper@@XZ 08018910 f   ad_i486_clone.obj
 0001:00017960       ?clone@indIndexOffset_win95_safeOper@@UBEPAVMachOper@@XZ 08018960 f   ad_i486_clone.obj
 0001:000179b0       ?clone@indIndexScale_win95_safeOper@@UBEPAVMachOper@@XZ 080189b0 f   ad_i486_clone.obj
 0001:00017a00       ?clone@indIndexScaleOffset_win95_safeOper@@UBEPAVMachOper@@XZ 08018a00 f   ad_i486_clone.obj
 0001:00017a60       ?clone@cmpOpOper@@UBEPAVMachOper@@XZ 08018a60 f   ad_i486_clone.obj
 0001:00017ab0       ?ccode@cmpOpOper@@UBEHXZ   08018ab0 f i ad_i486_clone.obj
 0001:00017b20       ?negate@cmpOp_fcmovOper@@UAEXXZ 08018b20 f i ad_i486_clone.obj
 0001:00017b20       ?negate@cmpOpOper@@UAEXXZ  08018b20 f i ad_i486_clone.obj
 0001:00017b20       ?negate@cmpOpUOper@@UAEXXZ 08018b20 f i ad_i486_clone.obj
 0001:00017b20       ?negate@cmpOp_commuteOper@@UAEXXZ 08018b20 f i ad_i486_clone.obj
 0001:00017b30       ?ideal_Opcode@loadXNode@@EBEHXZ 08018b30 f i ad_i486_clone.obj
 0001:00017b30       ?opcode@cmpOpOper@@UBEIXZ  08018b30 f i ad_i486_clone.obj
 0001:00017b30       ?ideal_Opcode@loadFNode@@EBEHXZ 08018b30 f i ad_i486_clone.obj
 0001:00017b40       ?type@cmpOpOper@@UBEPBVType@@XZ 08018b40 f i ad_i486_clone.obj
 0001:00017b60       ?clone@cmpOpUOper@@UBEPAVMachOper@@XZ 08018b60 f   ad_i486_clone.obj
 0001:00017bb0       ?ccode@cmpOpUOper@@UBEHXZ  08018bb0 f i ad_i486_clone.obj
 0001:00017c20       ?ideal_Opcode@loadINode@@EBEHXZ 08018c20 f i ad_i486_clone.obj
 0001:00017c20       ?opcode@cmpOpUOper@@UBEIXZ 08018c20 f i ad_i486_clone.obj
 0001:00017c30       ?type@cmpOpUOper@@UBEPBVType@@XZ 08018c30 f i ad_i486_clone.obj
 0001:00017c50       ?ideal_reg@CmpNode@@UBEIXZ 08018c50 f i ad_i486_clone.obj
 0001:00017c50       ?num_opnds@cadd_cmpLTMask2Node@@EBEIXZ 08018c50 f i ad_i486_clone.obj
 0001:00017c50       ?greater@cmpOpUOper@@UBEHXZ 08018c50 f i ad_i486_clone.obj
 0001:00017c50       ?num_opnds@cadd_cmpLTMask1Node@@EBEIXZ 08018c50 f i ad_i486_clone.obj
 0001:00017c50       ?ideal_reg@StorePConditionalNode@@UBEIXZ 08018c50 f i ad_i486_clone.obj
 0001:00017c50       ?cell_count@RetData@@UAEHXZ 08018c50 f i ad_i486_clone.obj
 0001:00017c50       ?type@external_word_Relocation@@EAE?AW4relocType@relocInfo@@XZ 08018c50 f i ad_i486_clone.obj
 0001:00017c60       ?clone@cmpOp_fcmovOper@@UBEPAVMachOper@@XZ 08018c60 f   ad_i486_clone.obj
 0001:00017cb0       ?ccode@cmpOp_fcmovOper@@UBEHXZ 08018cb0 f i ad_i486_clone.obj
 0001:00017d20       ?opcode@cmpOp_fcmovOper@@UBEIXZ 08018d20 f i ad_i486_clone.obj
 0001:00017d20       ?ideal_Opcode@loadKlassNode@@EBEHXZ 08018d20 f i ad_i486_clone.obj
 0001:00017d30       ?type@cmpOp_fcmovOper@@UBEPBVType@@XZ 08018d30 f i ad_i486_clone.obj
 0001:00017d50       ?equal@cmpOp_fcmovOper@@UBEHXZ 08018d50 f i ad_i486_clone.obj
 0001:00017d50       ?rule@loadSSFNode@@EBEIXZ  08018d50 f i ad_i486_clone.obj
 0001:00017d60       ?rule@tanD_regNode@@EBEIXZ 08018d60 f i ad_i486_clone.obj
 0001:00017d60       ?not_equal@cmpOp_fcmovOper@@UBEHXZ 08018d60 f i ad_i486_clone.obj
 0001:00017d70       ?rule@loadConFNode@@EBEIXZ 08018d70 f i ad_i486_clone.obj
 0001:00017d70       ?less@cmpOp_fcmovOper@@UBEHXZ 08018d70 f i ad_i486_clone.obj
 0001:00017d80       ?rule@strictfp_divD_regNode@@EBEIXZ 08018d80 f i ad_i486_clone.obj
 0001:00017d80       ?greater_equal@cmpOp_fcmovOper@@UBEHXZ 08018d80 f i ad_i486_clone.obj
 0001:00017d90       ?less_equal@cmpOp_fcmovOper@@UBEHXZ 08018d90 f i ad_i486_clone.obj
 0001:00017d90       ?rule@castPPNode@@EBEIXZ   08018d90 f i ad_i486_clone.obj
 0001:00017da0       ?greater@cmpOp_fcmovOper@@UBEHXZ 08018da0 f i ad_i486_clone.obj
 0001:00017da0       ?rule@cmpX_regNode@@EBEIXZ 08018da0 f i ad_i486_clone.obj
 0001:00017db0       ?clone@cmpOp_commuteOper@@UBEPAVMachOper@@XZ 08018db0 f   ad_i486_clone.obj
 0001:00017e00       ?ccode@cmpOp_commuteOper@@UBEHXZ 08018e00 f i ad_i486_clone.obj
 0001:00017e70       ?opcode@cmpOp_commuteOper@@UBEIXZ 08018e70 f i ad_i486_clone.obj
 0001:00017e70       ?ideal_Opcode@loadLNode@@EBEHXZ 08018e70 f i ad_i486_clone.obj
 0001:00017e70       ?ideal_Opcode@loadL_volatileNode@@EBEHXZ 08018e70 f i ad_i486_clone.obj
 0001:00017e80       ?type@cmpOp_commuteOper@@UBEPBVType@@XZ 08018e80 f i ad_i486_clone.obj
 0001:00017ea0       ?clone@storeFNode@@UBEPAVNode@@XZ 08018ea0 f   ad_i486_clone.obj
 0001:00017ea0       ?clone@storeImmCMNode@@UBEPAVNode@@XZ 08018ea0 f   ad_i486_clone.obj
 0001:00017ea0       ?clone@storeDNode@@UBEPAVNode@@XZ 08018ea0 f   ad_i486_clone.obj
 0001:00017ea0       ?clone@storeLNode@@UBEPAVNode@@XZ 08018ea0 f   ad_i486_clone.obj
 0001:00017ea0       ?clone@storePNode@@UBEPAVNode@@XZ 08018ea0 f   ad_i486_clone.obj
 0001:00017ea0       ?clone@storeF_roundedNode@@UBEPAVNode@@XZ 08018ea0 f   ad_i486_clone.obj
 0001:00017ea0       ?clone@storeImmINode@@UBEPAVNode@@XZ 08018ea0 f   ad_i486_clone.obj
 0001:00017ea0       ?clone@storeXDNode@@UBEPAVNode@@XZ 08018ea0 f   ad_i486_clone.obj
 0001:00017ea0       ?clone@storeXNode@@UBEPAVNode@@XZ 08018ea0 f   ad_i486_clone.obj
 0001:00017ea0       ?clone@storeF_immNode@@UBEPAVNode@@XZ 08018ea0 f   ad_i486_clone.obj
 0001:00017ea0       ?clone@storeL_volatileNode@@UBEPAVNode@@XZ 08018ea0 f   ad_i486_clone.obj
 0001:00017ea0       ?clone@storeINode@@UBEPAVNode@@XZ 08018ea0 f   ad_i486_clone.obj
 0001:00017ea0       ?clone@storeF_DroundedNode@@UBEPAVNode@@XZ 08018ea0 f   ad_i486_clone.obj
 0001:00017ea0       ?clone@storeCNode@@UBEPAVNode@@XZ 08018ea0 f   ad_i486_clone.obj
 0001:00017ea0       ?clone@storeD_roundedNode@@UBEPAVNode@@XZ 08018ea0 f   ad_i486_clone.obj
 0001:00017ea0       ?clone@storeImmPNode@@UBEPAVNode@@XZ 08018ea0 f   ad_i486_clone.obj
 0001:00017ea0       ?clone@storeImmI16Node@@UBEPAVNode@@XZ 08018ea0 f   ad_i486_clone.obj
 0001:00017ea0       ?clone@storeBNode@@UBEPAVNode@@XZ 08018ea0 f   ad_i486_clone.obj
 0001:00017ea0       ?clone@storeImmBNode@@UBEPAVNode@@XZ 08018ea0 f   ad_i486_clone.obj
 0001:00017ee0       ?clone@membar_acquire_lockNode@@UBEPAVNode@@XZ 08018ee0 f   ad_i486_clone.obj
 0001:00017ee0       ?clone@membar_releaseNode@@UBEPAVNode@@XZ 08018ee0 f   ad_i486_clone.obj
 0001:00017ee0       ?clone@membar_release_lockNode@@UBEPAVNode@@XZ 08018ee0 f   ad_i486_clone.obj
 0001:00017ee0       ?clone@membar_acquireNode@@UBEPAVNode@@XZ 08018ee0 f   ad_i486_clone.obj
 0001:00017ee0       ?clone@membar_volatileNode@@UBEPAVNode@@XZ 08018ee0 f   ad_i486_clone.obj
 0001:00017ee0       ?clone@tlsLoadP_prefixLoadPNode@@UBEPAVNode@@XZ 08018ee0 f   ad_i486_clone.obj
 0001:00017ee0       ?clone@membar_cpu_orderNode@@UBEPAVNode@@XZ 08018ee0 f   ad_i486_clone.obj
 0001:00017ee0       ?clone@TLSNode@@UBEPAVNode@@XZ 08018ee0 f   ad_i486_clone.obj
 0001:00017f10       ?clone@castPPNode@@UBEPAVNode@@XZ 08018f10 f   ad_i486_clone.obj
 0001:00017f10       ?clone@checkCastPPNode@@UBEPAVNode@@XZ 08018f10 f   ad_i486_clone.obj
 0001:00017f10       ?clone@loadPLockedNode@@UBEPAVNode@@XZ 08018f10 f   ad_i486_clone.obj
 0001:00017f10       ?clone@loadKlassNode@@UBEPAVNode@@XZ 08018f10 f   ad_i486_clone.obj
 0001:00017f10       ?clone@castL2PNode@@UBEPAVNode@@XZ 08018f10 f   ad_i486_clone.obj
 0001:00017f10       ?clone@loadPNode@@UBEPAVNode@@XZ 08018f10 f   ad_i486_clone.obj
 0001:00017f40       ?clone@addI_mem_immNode@@UBEPAVNode@@XZ 08018f40 f   ad_i486_clone.obj
 0001:00017f40       ?clone@sarI_mem_1Node@@UBEPAVNode@@XZ 08018f40 f   ad_i486_clone.obj
 0001:00017f40       ?clone@orI_mem_immNode@@UBEPAVNode@@XZ 08018f40 f   ad_i486_clone.obj
 0001:00017f40       ?clone@decI_memNode@@UBEPAVNode@@XZ 08018f40 f   ad_i486_clone.obj
 0001:00017f40       ?clone@xorI_mem_eRegNode@@UBEPAVNode@@XZ 08018f40 f   ad_i486_clone.obj
 0001:00017f40       ?clone@xorI_mem_immNode@@UBEPAVNode@@XZ 08018f40 f   ad_i486_clone.obj
 0001:00017f40       ?clone@addD_mem_regNode@@UBEPAVNode@@XZ 08018f40 f   ad_i486_clone.obj
 0001:00017f40       ?clone@addI_mem_eRegNode@@UBEPAVNode@@XZ 08018f40 f   ad_i486_clone.obj
 0001:00017f40       ?clone@andI_mem_immNode@@UBEPAVNode@@XZ 08018f40 f   ad_i486_clone.obj
 0001:00017f40       ?clone@incI_memNode@@UBEPAVNode@@XZ 08018f40 f   ad_i486_clone.obj
 0001:00017f40       ?clone@andI_mem_eRegNode@@UBEPAVNode@@XZ 08018f40 f   ad_i486_clone.obj
 0001:00017f40       ?clone@orI_mem_eRegNode@@UBEPAVNode@@XZ 08018f40 f   ad_i486_clone.obj
 0001:00017f40       ?clone@subI_mem_eRegNode@@UBEPAVNode@@XZ 08018f40 f   ad_i486_clone.obj
 0001:00017f40       ?clone@sarI_mem_immNode@@UBEPAVNode@@XZ 08018f40 f   ad_i486_clone.obj
 0001:00017f90       ?clone@cadd_cmpLTMask2Node@@UBEPAVNode@@XZ 08018f90 f   ad_i486_clone.obj
 0001:00017f90       ?clone@cadd_cmpLTMask1Node@@UBEPAVNode@@XZ 08018f90 f   ad_i486_clone.obj
 0001:00018000       ?clone@subD_mulD_regNode@@UBEPAVNode@@XZ 08019000 f   ad_i486_clone.obj
 0001:00018000       ?clone@mulI_imm_RShift_highNode@@UBEPAVNode@@XZ 08019000 f   ad_i486_clone.obj
 0001:00018000       ?clone@subP_eRegNode@@UBEPAVNode@@XZ 08019000 f   ad_i486_clone.obj
 0001:00018000       ?clone@testI_reg_immNode@@UBEPAVNode@@XZ 08019000 f   ad_i486_clone.obj
 0001:00018000       ?clone@addD_mulD_regNode@@UBEPAVNode@@XZ 08019000 f   ad_i486_clone.obj
 0001:00018000       ?clone@i2sNode@@UBEPAVNode@@XZ 08019000 f   ad_i486_clone.obj
 0001:00018000       ?clone@addF_mulF_regNode@@UBEPAVNode@@XZ 08019000 f   ad_i486_clone.obj
 0001:00018000       ?clone@mulI_imm_highNode@@UBEPAVNode@@XZ 08019000 f   ad_i486_clone.obj
 0001:00018000       ?clone@storePConditionalNode@@UBEPAVNode@@XZ 08019000 f   ad_i486_clone.obj
 0001:00018000       ?clone@addF_mulF_reg_load1Node@@UBEPAVNode@@XZ 08019000 f   ad_i486_clone.obj
 0001:00018000       ?clone@subF_divF_regNode@@UBEPAVNode@@XZ 08019000 f   ad_i486_clone.obj
 0001:00018000       ?clone@storeLConditionalNode@@UBEPAVNode@@XZ 08019000 f   ad_i486_clone.obj
 0001:00018000       ?clone@testI_reg_memNode@@UBEPAVNode@@XZ 08019000 f   ad_i486_clone.obj
 0001:00018000       ?clone@i2bNode@@UBEPAVNode@@XZ 08019000 f   ad_i486_clone.obj
 0001:00018050       ?clone@addD_reg_imm1Node@@UBEPAVNode@@XZ 08019050 f   ad_i486_clone.obj
 0001:00018050       ?clone@cmpL_reg_flags_LTGENode@@UBEPAVNode@@XZ 08019050 f   ad_i486_clone.obj
 0001:00018050       ?clone@andL_eRegNode@@UBEPAVNode@@XZ 08019050 f   ad_i486_clone.obj
 0001:00018050       ?clone@modI_eRegNode@@UBEPAVNode@@XZ 08019050 f   ad_i486_clone.obj
 0001:00018050       ?clone@maxI_eRegNode@@UBEPAVNode@@XZ 08019050 f   ad_i486_clone.obj
 0001:00018050       ?clone@ci2bNode@@UBEPAVNode@@XZ 08019050 f   ad_i486_clone.obj
 0001:00018050       ?clone@modD_regNode@@UBEPAVNode@@XZ 08019050 f   ad_i486_clone.obj
 0001:00018050       ?clone@orl_eReg_immNode@@UBEPAVNode@@XZ 08019050 f   ad_i486_clone.obj
 0001:00018050       ?clone@mulINode@@UBEPAVNode@@XZ 08019050 f   ad_i486_clone.obj
 0001:00018050       ?clone@mulL_eRegNode@@UBEPAVNode@@XZ 08019050 f   ad_i486_clone.obj
 0001:00018050       ?clone@addP_eReg_immNode@@UBEPAVNode@@XZ 08019050 f   ad_i486_clone.obj
 0001:00018050       ?clone@addF24_reg_memNode@@UBEPAVNode@@XZ 08019050 f   ad_i486_clone.obj
 0001:00018050       ?clone@compP_mem_eRegNode@@UBEPAVNode@@XZ 08019050 f   ad_i486_clone.obj
 0001:00018050       ?clone@addL_eReg_immNode@@UBEPAVNode@@XZ 08019050 f   ad_i486_clone.obj
 0001:00018050       ?clone@mulF24_regNode@@UBEPAVNode@@XZ 08019050 f   ad_i486_clone.obj
 0001:00018050       ?clone@cmpX_ccmemNode@@UBEPAVNode@@XZ 08019050 f   ad_i486_clone.obj
 0001:00018050       ?clone@cmpFastUnlockNode@@UBEPAVNode@@XZ 08019050 f   ad_i486_clone.obj
 0001:00018050       ?clone@cmpXD_ccmemNode@@UBEPAVNode@@XZ 08019050 f   ad_i486_clone.obj
 0001:00018050       ?clone@cmpL_zero_flags_LEGTNode@@UBEPAVNode@@XZ 08019050 f   ad_i486_clone.obj
 0001:00018050       ?clone@compU_eReg_memNode@@UBEPAVNode@@XZ 08019050 f   ad_i486_clone.obj
 0001:00018050       ?clone@compI_eRegNode@@UBEPAVNode@@XZ 08019050 f   ad_i486_clone.obj
 0001:00018050       ?clone@testU_regNode@@UBEPAVNode@@XZ 08019050 f   ad_i486_clone.obj
 0001:00018050       ?clone@subI_eReg_immNode@@UBEPAVNode@@XZ 08019050 f   ad_i486_clone.obj
 0001:00018050       ?clone@modX_regNode@@UBEPAVNode@@XZ 08019050 f   ad_i486_clone.obj
 0001:00018050       ?clone@orI_eReg_memNode@@UBEPAVNode@@XZ 08019050 f   ad_i486_clone.obj
 0001:00018050       ?clone@addF24_mem_ciscNode@@UBEPAVNode@@XZ 08019050 f   ad_i486_clone.obj
 0001:00018050       ?clone@divXD_regNode@@UBEPAVNode@@XZ 08019050 f   ad_i486_clone.obj
 0001:00018050       ?clone@compP_eRegNode@@UBEPAVNode@@XZ 08019050 f   ad_i486_clone.obj
 0001:00018050       ?clone@addD_reg_imm_roundNode@@UBEPAVNode@@XZ 08019050 f   ad_i486_clone.obj
 0001:00018050       ?clone@addI_eRegNode@@UBEPAVNode@@XZ 08019050 f   ad_i486_clone.obj
 0001:00018050       ?clone@sarI_eReg_1Node@@UBEPAVNode@@XZ 08019050 f   ad_i486_clone.obj
 0001:00018050       ?clone@powD_regNode@@UBEPAVNode@@XZ 08019050 f   ad_i486_clone.obj
 0001:00018050       ?clone@cmpX_regmemNode@@UBEPAVNode@@XZ 08019050 f   ad_i486_clone.obj
 0001:00018050       ?clone@leaP_eReg_immINode@@UBEPAVNode@@XZ 08019050 f   ad_i486_clone.obj
 0001:00018050       ?clone@mulF_reg_memNode@@UBEPAVNode@@XZ 08019050 f   ad_i486_clone.obj
 0001:00018050       ?clone@addX_memNode@@UBEPAVNode@@XZ 08019050 f   ad_i486_clone.obj
 0001:00018050       ?clone@mulXD_immNode@@UBEPAVNode@@XZ 08019050 f   ad_i486_clone.obj
 0001:00018050       ?clone@cmpX_regNode@@UBEPAVNode@@XZ 08019050 f   ad_i486_clone.obj
 0001:00018050       ?clone@addF24_reg_immNode@@UBEPAVNode@@XZ 08019050 f   ad_i486_clone.obj
 0001:00018050       ?clone@loadUBNode@@UBEPAVNode@@XZ 08019050 f   ad_i486_clone.obj
 0001:00018050       ?clone@addD_reg_roundNode@@UBEPAVNode@@XZ 08019050 f   ad_i486_clone.obj
 0001:00018050       ?clone@salL_eReg_CLNode@@UBEPAVNode@@XZ 08019050 f   ad_i486_clone.obj
 0001:00018050       ?clone@atanXD_regNode@@UBEPAVNode@@XZ 08019050 f   ad_i486_clone.obj
 0001:00018050       ?clone@mulF24_reg_immNode@@UBEPAVNode@@XZ 08019050 f   ad_i486_clone.obj
 0001:00018050       ?clone@mulXD_memNode@@UBEPAVNode@@XZ 08019050 f   ad_i486_clone.obj
 0001:00018050       ?clone@andI_eReg_immNode@@UBEPAVNode@@XZ 08019050 f   ad_i486_clone.obj
 0001:00018050       ?clone@addXD_immNode@@UBEPAVNode@@XZ 08019050 f   ad_i486_clone.obj
 0001:00018050       ?clone@divXD_memNode@@UBEPAVNode@@XZ 08019050 f   ad_i486_clone.obj
 0001:00018050       ?clone@subD_reg_memNode@@UBEPAVNode@@XZ 08019050 f   ad_i486_clone.obj
 0001:00018050       ?clone@subI_eRegNode@@UBEPAVNode@@XZ 08019050 f   ad_i486_clone.obj
 0001:00018050       ?clone@divX_regNode@@UBEPAVNode@@XZ 08019050 f   ad_i486_clone.obj
 0001:00018050       ?clone@negL_eRegNode@@UBEPAVNode@@XZ 08019050 f   ad_i486_clone.obj
 0001:00018050       ?clone@rep_stosNode@@UBEPAVNode@@XZ 08019050 f   ad_i486_clone.obj
 0001:00018050       ?clone@andI_eReg_memNode@@UBEPAVNode@@XZ 08019050 f   ad_i486_clone.obj
 0001:00018050       ?clone@testP_Reg_memNode@@UBEPAVNode@@XZ 08019050 f   ad_i486_clone.obj
 0001:00018050       ?clone@cmpD_0Node@@UBEPAVNode@@XZ 08019050 f   ad_i486_clone.obj
 0001:00018050       ?clone@orl_eReg_memNode@@UBEPAVNode@@XZ 08019050 f   ad_i486_clone.obj
 0001:00018050       ?clone@atanD_regNode@@UBEPAVNode@@XZ 08019050 f   ad_i486_clone.obj
 0001:00018050       ?clone@addL_eRegNode@@UBEPAVNode@@XZ 08019050 f   ad_i486_clone.obj
 0001:00018050       ?clone@xorl_eReg_memNode@@UBEPAVNode@@XZ 08019050 f   ad_i486_clone.obj
 0001:00018050       ?clone@addX_immNode@@UBEPAVNode@@XZ 08019050 f   ad_i486_clone.obj
 0001:00018050       ?clone@cmpF_regNode@@UBEPAVNode@@XZ 08019050 f   ad_i486_clone.obj
 0001:00018050       ?clone@mulF24_mem_memNode@@UBEPAVNode@@XZ 08019050 f   ad_i486_clone.obj
 0001:00018050       ?clone@sarL_eReg_32_63Node@@UBEPAVNode@@XZ 08019050 f   ad_i486_clone.obj
 0001:00018050       ?clone@andI_eRegNode@@UBEPAVNode@@XZ 08019050 f   ad_i486_clone.obj
 0001:00018050       ?clone@mulD_reg_memNode@@UBEPAVNode@@XZ 08019050 f   ad_i486_clone.obj
 0001:00018050       ?clone@addI_eReg_memNode@@UBEPAVNode@@XZ 08019050 f   ad_i486_clone.obj
 0001:00018050       ?clone@shlL_eReg_1_31Node@@UBEPAVNode@@XZ 08019050 f   ad_i486_clone.obj
 0001:00018050       ?clone@subL_eRegNode@@UBEPAVNode@@XZ 08019050 f   ad_i486_clone.obj
 0001:00018050       ?clone@addD_regNode@@UBEPAVNode@@XZ 08019050 f   ad_i486_clone.obj
 0001:00018050       ?clone@cmpLTMask0Node@@UBEPAVNode@@XZ 08019050 f   ad_i486_clone.obj
 0001:00018050       ?clone@addXD_regNode@@UBEPAVNode@@XZ 08019050 f   ad_i486_clone.obj
 0001:00018050       ?clone@compU_eRegNode@@UBEPAVNode@@XZ 08019050 f   ad_i486_clone.obj
 0001:00018050       ?clone@compU_eReg_immNode@@UBEPAVNode@@XZ 08019050 f   ad_i486_clone.obj
 0001:00018050       ?clone@cmpL_reg_flags_LEGTNode@@UBEPAVNode@@XZ 08019050 f   ad_i486_clone.obj
 0001:00018050       ?clone@cmpL_zero_flags_EQNENode@@UBEPAVNode@@XZ 08019050 f   ad_i486_clone.obj
 0001:00018050       ?clone@partialSubtypeCheck_vs_ZeroNode@@UBEPAVNode@@XZ 08019050 f   ad_i486_clone.obj
 0001:00018050       ?clone@mulX_immNode@@UBEPAVNode@@XZ 08019050 f   ad_i486_clone.obj
 0001:00018050       ?clone@shrL_eReg_32_63Node@@UBEPAVNode@@XZ 08019050 f   ad_i486_clone.obj
 0001:00018050       ?clone@decI_eRegNode@@UBEPAVNode@@XZ 08019050 f   ad_i486_clone.obj
 0001:00018050       ?clone@strictfp_mulD_regNode@@UBEPAVNode@@XZ 08019050 f   ad_i486_clone.obj
 0001:00018050       ?clone@divF24_regNode@@UBEPAVNode@@XZ 08019050 f   ad_i486_clone.obj
 0001:00018050       ?clone@sarI_eReg_immNode@@UBEPAVNode@@XZ 08019050 f   ad_i486_clone.obj
 0001:00018050       ?clone@leaI_eReg_immINode@@UBEPAVNode@@XZ 08019050 f   ad_i486_clone.obj
 0001:00018050       ?clone@subX_immNode@@UBEPAVNode@@XZ 08019050 f   ad_i486_clone.obj
 0001:00018050       ?clone@minI_eRegNode@@UBEPAVNode@@XZ 08019050 f   ad_i486_clone.obj
 0001:00018050       ?clone@mulX_memNode@@UBEPAVNode@@XZ 08019050 f   ad_i486_clone.obj
 0001:00018050       ?clone@subF24_regNode@@UBEPAVNode@@XZ 08019050 f   ad_i486_clone.obj
 0001:00018050       ?clone@string_compareNode@@UBEPAVNode@@XZ 08019050 f   ad_i486_clone.obj
 0001:00018050       ?clone@addF24_mem_regNode@@UBEPAVNode@@XZ 08019050 f   ad_i486_clone.obj
 0001:00018050       ?clone@subI_eReg_memNode@@UBEPAVNode@@XZ 08019050 f   ad_i486_clone.obj
 0001:00018050       ?clone@cmpX_ccNode@@UBEPAVNode@@XZ 08019050 f   ad_i486_clone.obj
 0001:00018050       ?clone@mulF24_reg_memNode@@UBEPAVNode@@XZ 08019050 f   ad_i486_clone.obj
 0001:00018050       ?clone@subXD_immNode@@UBEPAVNode@@XZ 08019050 f   ad_i486_clone.obj
 0001:00018050       ?clone@cmpL_reg_flags_EQNENode@@UBEPAVNode@@XZ 08019050 f   ad_i486_clone.obj
 0001:00018050       ?clone@mulX_regNode@@UBEPAVNode@@XZ 08019050 f   ad_i486_clone.obj
 0001:00018050       ?clone@zerox_longNode@@UBEPAVNode@@XZ 08019050 f   ad_i486_clone.obj
 0001:00018050       ?clone@mulF_regNode@@UBEPAVNode@@XZ 08019050 f   ad_i486_clone.obj
 0001:00018050       ?clone@subXD_memNode@@UBEPAVNode@@XZ 08019050 f   ad_i486_clone.obj
 0001:00018050       ?clone@divL_eRegNode@@UBEPAVNode@@XZ 08019050 f   ad_i486_clone.obj
 0001:00018050       ?clone@cmpXD_regmemNode@@UBEPAVNode@@XZ 08019050 f   ad_i486_clone.obj
 0001:00018050       ?clone@shrI_eReg_CLNode@@UBEPAVNode@@XZ 08019050 f   ad_i486_clone.obj
 0001:00018050       ?clone@andL_eReg_immNode@@UBEPAVNode@@XZ 08019050 f   ad_i486_clone.obj
 0001:00018050       ?clone@xorI_eReg_memNode@@UBEPAVNode@@XZ 08019050 f   ad_i486_clone.obj
 0001:00018050       ?clone@divD_regNode@@UBEPAVNode@@XZ 08019050 f   ad_i486_clone.obj
 0001:00018050       ?clone@divX_memNode@@UBEPAVNode@@XZ 08019050 f   ad_i486_clone.obj
 0001:00018050       ?clone@cmpL_zero_flags_LTGENode@@UBEPAVNode@@XZ 08019050 f   ad_i486_clone.obj
 0001:00018050       ?clone@mulD_reg_immNode@@UBEPAVNode@@XZ 08019050 f   ad_i486_clone.obj
 0001:00018050       ?clone@sarL_eReg_1_31Node@@UBEPAVNode@@XZ 08019050 f   ad_i486_clone.obj
 0001:00018050       ?clone@cmpD_ccNode@@UBEPAVNode@@XZ 08019050 f   ad_i486_clone.obj
 0001:00018050       ?clone@shrL_eReg_1_31Node@@UBEPAVNode@@XZ 08019050 f   ad_i486_clone.obj
 0001:00018050       ?clone@addF_regNode@@UBEPAVNode@@XZ 08019050 f   ad_i486_clone.obj
 0001:00018050       ?clone@subX_memNode@@UBEPAVNode@@XZ 08019050 f   ad_i486_clone.obj
 0001:00018050       ?clone@addI_eReg_immNode@@UBEPAVNode@@XZ 08019050 f   ad_i486_clone.obj
 0001:00018050       ?clone@incI_eRegNode@@UBEPAVNode@@XZ 08019050 f   ad_i486_clone.obj
 0001:00018050       ?clone@shlI_eReg_1Node@@UBEPAVNode@@XZ 08019050 f   ad_i486_clone.obj
 0001:00018050       ?clone@divF_regNode@@UBEPAVNode@@XZ 08019050 f   ad_i486_clone.obj
 0001:00018050       ?clone@addF24_regNode@@UBEPAVNode@@XZ 08019050 f   ad_i486_clone.obj
 0001:00018050       ?clone@xorl_eRegNode@@UBEPAVNode@@XZ 08019050 f   ad_i486_clone.obj
 0001:00018050       ?clone@modF_regNode@@UBEPAVNode@@XZ 08019050 f   ad_i486_clone.obj
 0001:00018050       ?clone@cp2bNode@@UBEPAVNode@@XZ 08019050 f   ad_i486_clone.obj
 0001:00018050       ?clone@cmpD_regNode@@UBEPAVNode@@XZ 08019050 f   ad_i486_clone.obj
 0001:00018050       ?clone@andL_eReg_memNode@@UBEPAVNode@@XZ 08019050 f   ad_i486_clone.obj
 0001:00018050       ?clone@xorI_eReg_immNode@@UBEPAVNode@@XZ 08019050 f   ad_i486_clone.obj
 0001:00018050       ?clone@mulI_mem_immNode@@UBEPAVNode@@XZ 08019050 f   ad_i486_clone.obj
 0001:00018050       ?clone@salI_eReg_CLNode@@UBEPAVNode@@XZ 08019050 f   ad_i486_clone.obj
 0001:00018050       ?clone@mulL_eReg_conNode@@UBEPAVNode@@XZ 08019050 f   ad_i486_clone.obj
 0001:00018050       ?clone@modF24_regNode@@UBEPAVNode@@XZ 08019050 f   ad_i486_clone.obj
 0001:00018050       ?clone@modL_eRegNode@@UBEPAVNode@@XZ 08019050 f   ad_i486_clone.obj
 0001:00018050       ?clone@cmpF_0Node@@UBEPAVNode@@XZ 08019050 f   ad_i486_clone.obj
 0001:00018050       ?clone@convI2L_reg_zexNode@@UBEPAVNode@@XZ 08019050 f   ad_i486_clone.obj
 0001:00018050       ?clone@addXD_memNode@@UBEPAVNode@@XZ 08019050 f   ad_i486_clone.obj
 0001:00018050       ?clone@negI_eRegNode@@UBEPAVNode@@XZ 08019050 f   ad_i486_clone.obj
 0001:00018050       ?clone@orI_eReg_immNode@@UBEPAVNode@@XZ 08019050 f   ad_i486_clone.obj
 0001:00018050       ?clone@addL_eReg_memNode@@UBEPAVNode@@XZ 08019050 f   ad_i486_clone.obj
 0001:00018050       ?clone@cmpFastLockNode@@UBEPAVNode@@XZ 08019050 f   ad_i486_clone.obj
 0001:00018050       ?clone@addD_reg_immNode@@UBEPAVNode@@XZ 08019050 f   ad_i486_clone.obj
 0001:00018050       ?clone@sarL_eReg_CLNode@@UBEPAVNode@@XZ 08019050 f   ad_i486_clone.obj
 0001:00018050       ?clone@cmpF_ccNode@@UBEPAVNode@@XZ 08019050 f   ad_i486_clone.obj
 0001:00018050       ?clone@mulXD_regNode@@UBEPAVNode@@XZ 08019050 f   ad_i486_clone.obj
 0001:00018050       ?clone@subL_eReg_memNode@@UBEPAVNode@@XZ 08019050 f   ad_i486_clone.obj
 0001:00018050       ?clone@subX_regNode@@UBEPAVNode@@XZ 08019050 f   ad_i486_clone.obj
 0001:00018050       ?clone@shrI_eReg_immNode@@UBEPAVNode@@XZ 08019050 f   ad_i486_clone.obj
 0001:00018050       ?clone@addF24_mem_memNode@@UBEPAVNode@@XZ 08019050 f   ad_i486_clone.obj
 0001:00018050       ?clone@compP_eReg_immNode@@UBEPAVNode@@XZ 08019050 f   ad_i486_clone.obj
 0001:00018050       ?clone@modXD_regNode@@UBEPAVNode@@XZ 08019050 f   ad_i486_clone.obj
 0001:00018050       ?clone@testP_regNode@@UBEPAVNode@@XZ 08019050 f   ad_i486_clone.obj
 0001:00018050       ?clone@orl_eRegNode@@UBEPAVNode@@XZ 08019050 f   ad_i486_clone.obj
 0001:00018050       ?clone@cmpLTMaskNode@@UBEPAVNode@@XZ 08019050 f   ad_i486_clone.obj
 0001:00018050       ?clone@mulI_eReg_immNode@@UBEPAVNode@@XZ 08019050 f   ad_i486_clone.obj
 0001:00018050       ?clone@xorI_eRegNode@@UBEPAVNode@@XZ 08019050 f   ad_i486_clone.obj
 0001:00018050       ?clone@mulD_regNode@@UBEPAVNode@@XZ 08019050 f   ad_i486_clone.obj
 0001:00018050       ?clone@compP_eReg_memNode@@UBEPAVNode@@XZ 08019050 f   ad_i486_clone.obj
 0001:00018050       ?clone@cmpD_cc_P6Node@@UBEPAVNode@@XZ 08019050 f   ad_i486_clone.obj
 0001:00018050       ?clone@mulF_reg_immNode@@UBEPAVNode@@XZ 08019050 f   ad_i486_clone.obj
 0001:00018050       ?clone@mulD_reg_mem_ciscNode@@UBEPAVNode@@XZ 08019050 f   ad_i486_clone.obj
 0001:00018050       ?clone@subXD_regNode@@UBEPAVNode@@XZ 08019050 f   ad_i486_clone.obj
 0001:00018050       ?clone@xorl_eReg_immNode@@UBEPAVNode@@XZ 08019050 f   ad_i486_clone.obj
 0001:00018050       ?clone@divI_eRegNode@@UBEPAVNode@@XZ 08019050 f   ad_i486_clone.obj
 0001:00018050       ?clone@mulI_eRegNode@@UBEPAVNode@@XZ 08019050 f   ad_i486_clone.obj
 0001:00018050       ?clone@testI_regNode@@UBEPAVNode@@XZ 08019050 f   ad_i486_clone.obj
 0001:00018050       ?clone@subD_regNode@@UBEPAVNode@@XZ 08019050 f   ad_i486_clone.obj
 0001:00018050       ?clone@divXD_immNode@@UBEPAVNode@@XZ 08019050 f   ad_i486_clone.obj
 0001:00018050       ?clone@compI_eReg_immNode@@UBEPAVNode@@XZ 08019050 f   ad_i486_clone.obj
 0001:00018050       ?clone@subD_reg_roundNode@@UBEPAVNode@@XZ 08019050 f   ad_i486_clone.obj
 0001:00018050       ?clone@subF_regNode@@UBEPAVNode@@XZ 08019050 f   ad_i486_clone.obj
 0001:00018050       ?clone@shrI_eReg_1Node@@UBEPAVNode@@XZ 08019050 f   ad_i486_clone.obj
 0001:00018050       ?clone@shlL_eReg_32_63Node@@UBEPAVNode@@XZ 08019050 f   ad_i486_clone.obj
 0001:00018050       ?clone@cmpXD_regNode@@UBEPAVNode@@XZ 08019050 f   ad_i486_clone.obj
 0001:00018050       ?clone@partialSubtypeCheckNode@@UBEPAVNode@@XZ 08019050 f   ad_i486_clone.obj
 0001:00018050       ?clone@divD_reg_roundNode@@UBEPAVNode@@XZ 08019050 f   ad_i486_clone.obj
 0001:00018050       ?clone@addF_reg_memNode@@UBEPAVNode@@XZ 08019050 f   ad_i486_clone.obj
 0001:00018050       ?clone@salI_eReg_immNode@@UBEPAVNode@@XZ 08019050 f   ad_i486_clone.obj
 0001:00018050       ?clone@addF_reg_immNode@@UBEPAVNode@@XZ 08019050 f   ad_i486_clone.obj
 0001:00018050       ?clone@addD_reg_memNode@@UBEPAVNode@@XZ 08019050 f   ad_i486_clone.obj
 0001:00018050       ?clone@cmpL3_reg_regNode@@UBEPAVNode@@XZ 08019050 f   ad_i486_clone.obj
 0001:00018050       ?clone@orI_eRegNode@@UBEPAVNode@@XZ 08019050 f   ad_i486_clone.obj
 0001:00018050       ?clone@strictfp_divD_regNode@@UBEPAVNode@@XZ 08019050 f   ad_i486_clone.obj
 0001:00018050       ?clone@subL_eReg_immNode@@UBEPAVNode@@XZ 08019050 f   ad_i486_clone.obj
 0001:00018050       ?clone@cmpF_cc_P6Node@@UBEPAVNode@@XZ 08019050 f   ad_i486_clone.obj
 0001:00018050       ?clone@addX_regNode@@UBEPAVNode@@XZ 08019050 f   ad_i486_clone.obj
 0001:00018050       ?clone@compI_eReg_memNode@@UBEPAVNode@@XZ 08019050 f   ad_i486_clone.obj
 0001:00018050       ?clone@divX_immNode@@UBEPAVNode@@XZ 08019050 f   ad_i486_clone.obj
 0001:00018050       ?clone@shrL_eReg_CLNode@@UBEPAVNode@@XZ 08019050 f   ad_i486_clone.obj
 0001:00018050       ?clone@cmpXD_ccNode@@UBEPAVNode@@XZ 08019050 f   ad_i486_clone.obj
 0001:00018050       ?clone@mulF_reg_load1Node@@UBEPAVNode@@XZ 08019050 f   ad_i486_clone.obj
 0001:00018050       ?clone@sarI_eReg_CLNode@@UBEPAVNode@@XZ 08019050 f   ad_i486_clone.obj
 0001:00018050       ?clone@addP_eRegNode@@UBEPAVNode@@XZ 08019050 f   ad_i486_clone.obj
 0001:00018090       ?clone@convP2BNode@@UBEPAVNode@@XZ 08019090 f   ad_i486_clone.obj
 0001:00018090       ?clone@convD2F_regNode@@UBEPAVNode@@XZ 08019090 f   ad_i486_clone.obj
 0001:00018090       ?clone@loadConL_low_onlyNode@@UBEPAVNode@@XZ 08019090 f   ad_i486_clone.obj
 0001:00018090       ?clone@sqrtXD_regNode@@UBEPAVNode@@XZ 08019090 f   ad_i486_clone.obj
 0001:00018090       ?clone@loadConLNode@@UBEPAVNode@@XZ 08019090 f   ad_i486_clone.obj
 0001:00018090       ?clone@movI_nocopyNode@@UBEPAVNode@@XZ 08019090 f   ad_i486_clone.obj
 0001:00018090       ?clone@cosXD_regNode@@UBEPAVNode@@XZ 08019090 f   ad_i486_clone.obj
 0001:00018090       ?clone@loadSSDNode@@UBEPAVNode@@XZ 08019090 f   ad_i486_clone.obj
 0001:00018090       ?clone@tanD_regNode@@UBEPAVNode@@XZ 08019090 f   ad_i486_clone.obj
 0001:00018090       ?clone@leaPIdxScaleNode@@UBEPAVNode@@XZ 08019090 f   ad_i486_clone.obj
 0001:00018090       ?clone@loadLNode@@UBEPAVNode@@XZ 08019090 f   ad_i486_clone.obj
 0001:00018090       ?clone@convI2X_regNode@@UBEPAVNode@@XZ 08019090 f   ad_i486_clone.obj
 0001:00018090       ?clone@convI2L_regNode@@UBEPAVNode@@XZ 08019090 f   ad_i486_clone.obj
 0001:00018090       ?clone@roundDouble_mem_regNode@@UBEPAVNode@@XZ 08019090 f   ad_i486_clone.obj
 0001:00018090       ?clone@convD2X_regNode@@UBEPAVNode@@XZ 08019090 f   ad_i486_clone.obj
 0001:00018090       ?clone@sqrtXD_memNode@@UBEPAVNode@@XZ 08019090 f   ad_i486_clone.obj
 0001:00018090       ?clone@loadLLockedNode@@UBEPAVNode@@XZ 08019090 f   ad_i486_clone.obj
 0001:00018090       ?clone@convD2I_reg_regNode@@UBEPAVNode@@XZ 08019090 f   ad_i486_clone.obj
 0001:00018090       ?clone@leaPIdxOffNode@@UBEPAVNode@@XZ 08019090 f   ad_i486_clone.obj
 0001:00018090       ?clone@convL2XD_regNode@@UBEPAVNode@@XZ 08019090 f   ad_i486_clone.obj
 0001:00018090       ?clone@loadConI0Node@@UBEPAVNode@@XZ 08019090 f   ad_i486_clone.obj
 0001:00018090       ?clone@loadSNode@@UBEPAVNode@@XZ 08019090 f   ad_i486_clone.obj
 0001:00018090       ?clone@convXD2L_reg_regNode@@UBEPAVNode@@XZ 08019090 f   ad_i486_clone.obj
 0001:00018090       ?clone@prefetch0Node@@UBEPAVNode@@XZ 08019090 f   ad_i486_clone.obj
 0001:00018090       ?clone@movPNode@@UBEPAVNode@@XZ 08019090 f   ad_i486_clone.obj
 0001:00018090       ?clone@loadSSFNode@@UBEPAVNode@@XZ 08019090 f   ad_i486_clone.obj
 0001:00018090       ?clone@leaP32Node@@UBEPAVNode@@XZ 08019090 f   ad_i486_clone.obj
 0001:00018090       ?clone@loadConDNode@@UBEPAVNode@@XZ 08019090 f   ad_i486_clone.obj
 0001:00018090       ?clone@loadConXDNode@@UBEPAVNode@@XZ 08019090 f   ad_i486_clone.obj
 0001:00018090       ?clone@loadConL0Node@@UBEPAVNode@@XZ 08019090 f   ad_i486_clone.obj
 0001:00018090       ?clone@tlsLoadPNode@@UBEPAVNode@@XZ 08019090 f   ad_i486_clone.obj
 0001:00018090       ?clone@loadConPcNode@@UBEPAVNode@@XZ 08019090 f   ad_i486_clone.obj
 0001:00018090       ?clone@leaP8Node@@UBEPAVNode@@XZ 08019090 f   ad_i486_clone.obj
 0001:00018090       ?clone@absXD_regNode@@UBEPAVNode@@XZ 08019090 f   ad_i486_clone.obj
 0001:00018090       ?clone@loadXNode@@UBEPAVNode@@XZ 08019090 f   ad_i486_clone.obj
 0001:00018090       ?clone@loadBNode@@UBEPAVNode@@XZ 08019090 f   ad_i486_clone.obj
 0001:00018090       ?clone@convI2XD_regNode@@UBEPAVNode@@XZ 08019090 f   ad_i486_clone.obj
 0001:00018090       ?clone@convI2D_regNode@@UBEPAVNode@@XZ 08019090 f   ad_i486_clone.obj
 0001:00018090       ?clone@storeSSINode@@UBEPAVNode@@XZ 08019090 f   ad_i486_clone.obj
 0001:00018090       ?clone@convI2F_memNode@@UBEPAVNode@@XZ 08019090 f   ad_i486_clone.obj
 0001:00018090       ?clone@convX2D_regNode@@UBEPAVNode@@XZ 08019090 f   ad_i486_clone.obj
 0001:00018090       ?clone@absF_regNode@@UBEPAVNode@@XZ 08019090 f   ad_i486_clone.obj
 0001:00018090       ?clone@convI2F_SSF_memNode@@UBEPAVNode@@XZ 08019090 f   ad_i486_clone.obj
 0001:00018090       ?clone@conv24I2F_regNode@@UBEPAVNode@@XZ 08019090 f   ad_i486_clone.obj
 0001:00018090       ?clone@leaPIdxScaleOffNode@@UBEPAVNode@@XZ 08019090 f   ad_i486_clone.obj
 0001:00018090       ?clone@loadFNode@@UBEPAVNode@@XZ 08019090 f   ad_i486_clone.obj
 0001:00018090       ?clone@convX2XD_regNode@@UBEPAVNode@@XZ 08019090 f   ad_i486_clone.obj
 0001:00018090       ?clone@convL2F_regNode@@UBEPAVNode@@XZ 08019090 f   ad_i486_clone.obj
 0001:00018090       ?clone@loadXDNode@@UBEPAVNode@@XZ 08019090 f   ad_i486_clone.obj
 0001:00018090       ?clone@loadConX0Node@@UBEPAVNode@@XZ 08019090 f   ad_i486_clone.obj
 0001:00018090       ?clone@convI2BNode@@UBEPAVNode@@XZ 08019090 f   ad_i486_clone.obj
 0001:00018090       ?clone@negX_regNode@@UBEPAVNode@@XZ 08019090 f   ad_i486_clone.obj
 0001:00018090       ?clone@loadConXNode@@UBEPAVNode@@XZ 08019090 f   ad_i486_clone.obj
 0001:00018090       ?clone@movINode@@UBEPAVNode@@XZ 08019090 f   ad_i486_clone.obj
 0001:00018090       ?clone@convL2D_regNode@@UBEPAVNode@@XZ 08019090 f   ad_i486_clone.obj
 0001:00018090       ?clone@sinXD_regNode@@UBEPAVNode@@XZ 08019090 f   ad_i486_clone.obj
 0001:00018090       ?clone@negF_regNode@@UBEPAVNode@@XZ 08019090 f   ad_i486_clone.obj
 0001:00018090       ?clone@loadCNode@@UBEPAVNode@@XZ 08019090 f   ad_i486_clone.obj
 0001:00018090       ?clone@convL2I_regNode@@UBEPAVNode@@XZ 08019090 f   ad_i486_clone.obj
 0001:00018090       ?clone@convI2F_regNode@@UBEPAVNode@@XZ 08019090 f   ad_i486_clone.obj
 0001:00018090       ?clone@storeSSLNode@@UBEPAVNode@@XZ 08019090 f   ad_i486_clone.obj
 0001:00018090       ?clone@convI2XD_memNode@@UBEPAVNode@@XZ 08019090 f   ad_i486_clone.obj
 0001:00018090       ?clone@convX2I_regNode@@UBEPAVNode@@XZ 08019090 f   ad_i486_clone.obj
 0001:00018090       ?clone@movFNode@@UBEPAVNode@@XZ 08019090 f   ad_i486_clone.obj
 0001:00018090       ?clone@castP2INode@@UBEPAVNode@@XZ 08019090 f   ad_i486_clone.obj
 0001:00018090       ?clone@storeSSPNode@@UBEPAVNode@@XZ 08019090 f   ad_i486_clone.obj
 0001:00018090       ?clone@negD_regNode@@UBEPAVNode@@XZ 08019090 f   ad_i486_clone.obj
 0001:00018090       ?clone@roundFloat_mem_regNode@@UBEPAVNode@@XZ 08019090 f   ad_i486_clone.obj
 0001:00018090       ?clone@movLNode@@UBEPAVNode@@XZ 08019090 f   ad_i486_clone.obj
 0001:00018090       ?clone@convI2F_SSFNode@@UBEPAVNode@@XZ 08019090 f   ad_i486_clone.obj
 0001:00018090       ?clone@loadSSPNode@@UBEPAVNode@@XZ 08019090 f   ad_i486_clone.obj
 0001:00018090       ?clone@loadRangeNode@@UBEPAVNode@@XZ 08019090 f   ad_i486_clone.obj
 0001:00018090       ?clone@sqrtD_regNode@@UBEPAVNode@@XZ 08019090 f   ad_i486_clone.obj
 0001:00018090       ?clone@loadL_volatileNode@@UBEPAVNode@@XZ 08019090 f   ad_i486_clone.obj
 0001:00018090       ?clone@loadDNode@@UBEPAVNode@@XZ 08019090 f   ad_i486_clone.obj
 0001:00018090       ?clone@jmpDirNode@@UBEPAVNode@@XZ 08019090 f   ad_i486_clone.obj
 0001:00018090       ?clone@loadINode@@UBEPAVNode@@XZ 08019090 f   ad_i486_clone.obj
 0001:00018090       ?clone@cosD_regNode@@UBEPAVNode@@XZ 08019090 f   ad_i486_clone.obj
 0001:00018090       ?clone@loadConXD0Node@@UBEPAVNode@@XZ 08019090 f   ad_i486_clone.obj
 0001:00018090       ?clone@convF2L_reg_regNode@@UBEPAVNode@@XZ 08019090 f   ad_i486_clone.obj
 0001:00018090       ?clone@absD_regNode@@UBEPAVNode@@XZ 08019090 f   ad_i486_clone.obj
 0001:00018090       ?clone@movP_nocopyNode@@UBEPAVNode@@XZ 08019090 f   ad_i486_clone.obj
 0001:00018090       ?clone@loadConINode@@UBEPAVNode@@XZ 08019090 f   ad_i486_clone.obj
 0001:00018090       ?clone@absX_regNode@@UBEPAVNode@@XZ 08019090 f   ad_i486_clone.obj
 0001:00018090       ?clone@prefetch1Node@@UBEPAVNode@@XZ 08019090 f   ad_i486_clone.obj
 0001:00018090       ?clone@loadSSINode@@UBEPAVNode@@XZ 08019090 f   ad_i486_clone.obj
 0001:00018090       ?clone@convXD2I_reg_regNode@@UBEPAVNode@@XZ 08019090 f   ad_i486_clone.obj
 0001:00018090       ?clone@movDNode@@UBEPAVNode@@XZ 08019090 f   ad_i486_clone.obj
 0001:00018090       ?clone@convL2X_regNode@@UBEPAVNode@@XZ 08019090 f   ad_i486_clone.obj
 0001:00018090       ?clone@convF2D_regNode@@UBEPAVNode@@XZ 08019090 f   ad_i486_clone.obj
 0001:00018090       ?clone@convF2I_reg_regNode@@UBEPAVNode@@XZ 08019090 f   ad_i486_clone.obj
 0001:00018090       ?clone@sinD_regNode@@UBEPAVNode@@XZ 08019090 f   ad_i486_clone.obj
 0001:00018090       ?clone@box_handleNode@@UBEPAVNode@@XZ 08019090 f   ad_i486_clone.obj
 0001:00018090       ?clone@loadConFNode@@UBEPAVNode@@XZ 08019090 f   ad_i486_clone.obj
 0001:00018090       ?clone@convXD2X_regNode@@UBEPAVNode@@XZ 08019090 f   ad_i486_clone.obj
 0001:00018090       ?clone@loadConPNode@@UBEPAVNode@@XZ 08019090 f   ad_i486_clone.obj
 0001:00018090       ?clone@negXD_regNode@@UBEPAVNode@@XZ 08019090 f   ad_i486_clone.obj
 0001:00018090       ?clone@movXNode@@UBEPAVNode@@XZ 08019090 f   ad_i486_clone.obj
 0001:00018090       ?clone@tanXD_regNode@@UBEPAVNode@@XZ 08019090 f   ad_i486_clone.obj
 0001:00018090       ?clone@convX2L_reg_regNode@@UBEPAVNode@@XZ 08019090 f   ad_i486_clone.obj
 0001:00018090       ?clone@convI2D_memNode@@UBEPAVNode@@XZ 08019090 f   ad_i486_clone.obj
 0001:00018090       ?clone@convD2L_reg_regNode@@UBEPAVNode@@XZ 08019090 f   ad_i486_clone.obj
 0001:00018090       ?clone@jmpDir_shortNode@@UBEPAVNode@@XZ 08019090 f   ad_i486_clone.obj
 0001:00018090       ?clone@castP2LNode@@UBEPAVNode@@XZ 08019090 f   ad_i486_clone.obj
 0001:000180c0       ?clone@jmpLoopEndNode@@UBEPAVNode@@XZ 080190c0 f   ad_i486_clone.obj
 0001:000180c0       ?clone@cmpL_LTGENode@@UBEPAVNode@@XZ 080190c0 f   ad_i486_clone.obj
 0001:000180c0       ?clone@jmpLoopEndU_shortNode@@UBEPAVNode@@XZ 080190c0 f   ad_i486_clone.obj
 0001:000180c0       ?clone@jmpCon_shortNode@@UBEPAVNode@@XZ 080190c0 f   ad_i486_clone.obj
 0001:000180c0       ?clone@jmpConUNode@@UBEPAVNode@@XZ 080190c0 f   ad_i486_clone.obj
 0001:000180c0       ?clone@cmpL_EQNENode@@UBEPAVNode@@XZ 080190c0 f   ad_i486_clone.obj
 0001:000180c0       ?clone@jmpConU_shortNode@@UBEPAVNode@@XZ 080190c0 f   ad_i486_clone.obj
 0001:000180c0       ?clone@jmpLoopEndUNode@@UBEPAVNode@@XZ 080190c0 f   ad_i486_clone.obj
 0001:000180c0       ?clone@jmpConNode@@UBEPAVNode@@XZ 080190c0 f   ad_i486_clone.obj
 0001:000180c0       ?clone@cmpL_LEGTNode@@UBEPAVNode@@XZ 080190c0 f   ad_i486_clone.obj
 0001:000180c0       ?clone@jmpLoopEnd_shortNode@@UBEPAVNode@@XZ 080190c0 f   ad_i486_clone.obj
 0001:00018110       ?clone@cmovLL_reg_EQNENode@@UBEPAVNode@@XZ 08019110 f   ad_i486_clone.obj
 0001:00018110       ?clone@cmovI_regUNode@@UBEPAVNode@@XZ 08019110 f   ad_i486_clone.obj
 0001:00018110       ?clone@cmovLL_mem_EQNENode@@UBEPAVNode@@XZ 08019110 f   ad_i486_clone.obj
 0001:00018110       ?clone@cmovII_reg_LTGENode@@UBEPAVNode@@XZ 08019110 f   ad_i486_clone.obj
 0001:00018110       ?clone@cmovDD_reg_LEGTNode@@UBEPAVNode@@XZ 08019110 f   ad_i486_clone.obj
 0001:00018110       ?clone@cmovII_reg_EQNENode@@UBEPAVNode@@XZ 08019110 f   ad_i486_clone.obj
 0001:00018110       ?clone@cmovP_reg_nonP6Node@@UBEPAVNode@@XZ 08019110 f   ad_i486_clone.obj
 0001:00018110       ?clone@fcmovF_regSNode@@UBEPAVNode@@XZ 08019110 f   ad_i486_clone.obj
 0001:00018110       ?clone@cmovLL_reg_LEGTNode@@UBEPAVNode@@XZ 08019110 f   ad_i486_clone.obj
 0001:00018110       ?clone@cmovII_mem_LTGENode@@UBEPAVNode@@XZ 08019110 f   ad_i486_clone.obj
 0001:00018110       ?clone@cmovPP_reg_LTGENode@@UBEPAVNode@@XZ 08019110 f   ad_i486_clone.obj
 0001:00018110       ?clone@cmovFF_reg_EQNENode@@UBEPAVNode@@XZ 08019110 f   ad_i486_clone.obj
 0001:00018110       ?clone@fcmovX_regSNode@@UBEPAVNode@@XZ 08019110 f   ad_i486_clone.obj
 0001:00018110       ?clone@cmovXX_reg_EQNENode@@UBEPAVNode@@XZ 08019110 f   ad_i486_clone.obj
 0001:00018110       ?clone@cmovII_reg_LEGTNode@@UBEPAVNode@@XZ 08019110 f   ad_i486_clone.obj
 0001:00018110       ?clone@cmovXX_reg_LEGTNode@@UBEPAVNode@@XZ 08019110 f   ad_i486_clone.obj
 0001:00018110       ?clone@cmovXX_reg_LTGENode@@UBEPAVNode@@XZ 08019110 f   ad_i486_clone.obj
 0001:00018110       ?clone@cmovXDD_reg_EQNENode@@UBEPAVNode@@XZ 08019110 f   ad_i486_clone.obj
 0001:00018110       ?clone@cmovL_regUNode@@UBEPAVNode@@XZ 08019110 f   ad_i486_clone.obj
 0001:00018110       ?clone@fcmovX_regUNode@@UBEPAVNode@@XZ 08019110 f   ad_i486_clone.obj
 0001:00018110       ?clone@fcmovF_regUNode@@UBEPAVNode@@XZ 08019110 f   ad_i486_clone.obj
 0001:00018110       ?clone@cmovLL_reg_LTGENode@@UBEPAVNode@@XZ 08019110 f   ad_i486_clone.obj
 0001:00018110       ?clone@cmovL_regNode@@UBEPAVNode@@XZ 08019110 f   ad_i486_clone.obj
 0001:00018110       ?clone@cmovPP_reg_EQNENode@@UBEPAVNode@@XZ 08019110 f   ad_i486_clone.obj
 0001:00018110       ?clone@cmovDD_reg_LTGENode@@UBEPAVNode@@XZ 08019110 f   ad_i486_clone.obj
 0001:00018110       ?clone@cmovI_memuNode@@UBEPAVNode@@XZ 08019110 f   ad_i486_clone.obj
 0001:00018110       ?clone@cmovI_regNode@@UBEPAVNode@@XZ 08019110 f   ad_i486_clone.obj
 0001:00018110       ?clone@cmovLL_mem_LEGTNode@@UBEPAVNode@@XZ 08019110 f   ad_i486_clone.obj
 0001:00018110       ?clone@cmovXDD_reg_LTGENode@@UBEPAVNode@@XZ 08019110 f   ad_i486_clone.obj
 0001:00018110       ?clone@cmovXDD_reg_LEGTNode@@UBEPAVNode@@XZ 08019110 f   ad_i486_clone.obj
 0001:00018110       ?clone@fcmovXD_regSNode@@UBEPAVNode@@XZ 08019110 f   ad_i486_clone.obj
 0001:00018110       ?clone@cmovFF_reg_LEGTNode@@UBEPAVNode@@XZ 08019110 f   ad_i486_clone.obj
 0001:00018110       ?clone@cmovII_mem_LEGTNode@@UBEPAVNode@@XZ 08019110 f   ad_i486_clone.obj
 0001:00018110       ?clone@cmovPP_reg_LEGTNode@@UBEPAVNode@@XZ 08019110 f   ad_i486_clone.obj
 0001:00018110       ?clone@cmovI_memNode@@UBEPAVNode@@XZ 08019110 f   ad_i486_clone.obj
 0001:00018110       ?clone@cmovII_mem_EQNENode@@UBEPAVNode@@XZ 08019110 f   ad_i486_clone.obj
 0001:00018110       ?clone@storeLConditional_flagsNode@@UBEPAVNode@@XZ 08019110 f   ad_i486_clone.obj
 0001:00018110       ?clone@fcmovD_regUNode@@UBEPAVNode@@XZ 08019110 f   ad_i486_clone.obj
 0001:00018110       ?clone@cmovDD_reg_EQNENode@@UBEPAVNode@@XZ 08019110 f   ad_i486_clone.obj
 0001:00018110       ?clone@fcmovD_regSNode@@UBEPAVNode@@XZ 08019110 f   ad_i486_clone.obj
 0001:00018110       ?clone@cmovFF_reg_LTGENode@@UBEPAVNode@@XZ 08019110 f   ad_i486_clone.obj
 0001:00018110       ?clone@cmovLL_mem_LTGENode@@UBEPAVNode@@XZ 08019110 f   ad_i486_clone.obj
 0001:00018110       ?clone@fcmovXD_regUNode@@UBEPAVNode@@XZ 08019110 f   ad_i486_clone.obj
 0001:00018110       ?clone@cmovP_regUNode@@UBEPAVNode@@XZ 08019110 f   ad_i486_clone.obj
 0001:00018110       ?clone@cmovP_regNode@@UBEPAVNode@@XZ 08019110 f   ad_i486_clone.obj
 0001:00018160       ?clone@safePointNode@@UBEPAVNode@@XZ 08019160 f   ad_i486_clone.obj
 0001:00018190       ?clone@CallStaticJavaDirectNode@@UBEPAVNode@@XZ 08019190 f   ad_i486_clone.obj
 0001:000181c0       ?clone@CallDynamicJavaDirectNode@@UBEPAVNode@@XZ 080191c0 f   ad_i486_clone.obj
 0001:000181f0       ?clone@CallCompiledJavaDirectNode@@UBEPAVNode@@XZ 080191f0 f   ad_i486_clone.obj
 0001:000181f0       ?clone@CallInterpreterDirectNode@@UBEPAVNode@@XZ 080191f0 f   ad_i486_clone.obj
 0001:00018220       ?clone@CallNativeDirectNode@@UBEPAVNode@@XZ 08019220 f   ad_i486_clone.obj
 0001:00018220       ?clone@CallLeafDirectNode@@UBEPAVNode@@XZ 08019220 f   ad_i486_clone.obj
 0001:00018220       ?clone@CallRuntimeDirectNode@@UBEPAVNode@@XZ 08019220 f   ad_i486_clone.obj
 0001:00018250       ?clone@TailCalljmpIndNode@@UBEPAVNode@@XZ 08019250 f   ad_i486_clone.obj
 0001:00018250       ?clone@tailjmpIndNode@@UBEPAVNode@@XZ 08019250 f   ad_i486_clone.obj
 0001:00018290       ?clone@CreateExceptionNode@@UBEPAVNode@@XZ 08019290 f   ad_i486_clone.obj
 0001:000182c0       ?clone@RethrowExceptionNode@@UBEPAVNode@@XZ 080192c0 f   ad_i486_clone.obj
 0001:000182c0       ?clone@RetNode@@UBEPAVNode@@XZ 080192c0 f   ad_i486_clone.obj
 0001:000182c0       ?clone@ShouldNotReachHereNode@@UBEPAVNode@@XZ 080192c0 f   ad_i486_clone.obj
 0001:00018b30       ?Expand@mulI_imm_highNode@@UAEPAVMachNode@@PAVState@@AAVNode_List@@@Z 08019b30 f   ad_i486_expand.obj
 0001:00018b30       ?Expand@mulI_imm_RShift_highNode@@UAEPAVMachNode@@PAVState@@AAVNode_List@@@Z 08019b30 f   ad_i486_expand.obj
 0001:00018ca0       ?Expand@convX2D_regNode@@UAEPAVMachNode@@PAVState@@AAVNode_List@@@Z 08019ca0 f   ad_i486_expand.obj
 0001:00018ca0       ?Expand@ci2bNode@@UAEPAVMachNode@@PAVState@@AAVNode_List@@@Z 08019ca0 f   ad_i486_expand.obj
 0001:00018ca0       ?Expand@orI_mem_eRegNode@@UAEPAVMachNode@@PAVState@@AAVNode_List@@@Z 08019ca0 f   ad_i486_expand.obj
 0001:00018ca0       ?Expand@orI_eRegNode@@UAEPAVMachNode@@PAVState@@AAVNode_List@@@Z 08019ca0 f   ad_i486_expand.obj
 0001:00018ca0       ?Expand@convI2L_reg_zexNode@@UAEPAVMachNode@@PAVState@@AAVNode_List@@@Z 08019ca0 f   ad_i486_expand.obj
 0001:00018ca0       ?Expand@addP_eRegNode@@UAEPAVMachNode@@PAVState@@AAVNode_List@@@Z 08019ca0 f   ad_i486_expand.obj
 0001:00018ca0       ?Expand@orI_eReg_immNode@@UAEPAVMachNode@@PAVState@@AAVNode_List@@@Z 08019ca0 f   ad_i486_expand.obj
 0001:00018ca0       ?Expand@incI_eRegNode@@UAEPAVMachNode@@PAVState@@AAVNode_List@@@Z 08019ca0 f   ad_i486_expand.obj
 0001:00018ca0       ?Expand@shrI_eReg_CLNode@@UAEPAVMachNode@@PAVState@@AAVNode_List@@@Z 08019ca0 f   ad_i486_expand.obj
 0001:00018ca0       ?Expand@sarI_mem_immNode@@UAEPAVMachNode@@PAVState@@AAVNode_List@@@Z 08019ca0 f   ad_i486_expand.obj
 0001:00018ca0       ?Expand@convD2X_regNode@@UAEPAVMachNode@@PAVState@@AAVNode_List@@@Z 08019ca0 f   ad_i486_expand.obj
 0001:00018ca0       ?Expand@salI_eReg_immNode@@UAEPAVMachNode@@PAVState@@AAVNode_List@@@Z 08019ca0 f   ad_i486_expand.obj
 0001:00018ca0       ?Expand@orl_eRegNode@@UAEPAVMachNode@@PAVState@@AAVNode_List@@@Z 08019ca0 f   ad_i486_expand.obj
 0001:00018ca0       ?Expand@maxI_eRegNode@@UAEPAVMachNode@@PAVState@@AAVNode_List@@@Z 08019ca0 f   ad_i486_expand.obj
 0001:00018ca0       ?Expand@shrL_eReg_32_63Node@@UAEPAVMachNode@@PAVState@@AAVNode_List@@@Z 08019ca0 f   ad_i486_expand.obj
 0001:00018ca0       ?Expand@salI_eReg_CLNode@@UAEPAVMachNode@@PAVState@@AAVNode_List@@@Z 08019ca0 f   ad_i486_expand.obj
 0001:00018ca0       ?Expand@mulINode@@UAEPAVMachNode@@PAVState@@AAVNode_List@@@Z 08019ca0 f   ad_i486_expand.obj
 0001:00018ca0       ?Expand@sarI_eReg_1Node@@UAEPAVMachNode@@PAVState@@AAVNode_List@@@Z 08019ca0 f   ad_i486_expand.obj
 0001:00018ca0       ?Expand@xorl_eReg_memNode@@UAEPAVMachNode@@PAVState@@AAVNode_List@@@Z 08019ca0 f   ad_i486_expand.obj
 0001:00018ca0       ?Expand@shrI_eReg_immNode@@UAEPAVMachNode@@PAVState@@AAVNode_List@@@Z 08019ca0 f   ad_i486_expand.obj
 0001:00018ca0       ?Expand@loadConI0Node@@UAEPAVMachNode@@PAVState@@AAVNode_List@@@Z 08019ca0 f   ad_i486_expand.obj
 0001:00018ca0       ?Expand@i2bNode@@UAEPAVMachNode@@PAVState@@AAVNode_List@@@Z 08019ca0 f   ad_i486_expand.obj
 0001:00018ca0       ?Expand@xorl_eRegNode@@UAEPAVMachNode@@PAVState@@AAVNode_List@@@Z 08019ca0 f   ad_i486_expand.obj
 0001:00018ca0       ?Expand@cmpXD_regNode@@UAEPAVMachNode@@PAVState@@AAVNode_List@@@Z 08019ca0 f   ad_i486_expand.obj
 0001:00018ca0       ?Expand@sinXD_regNode@@UAEPAVMachNode@@PAVState@@AAVNode_List@@@Z 08019ca0 f   ad_i486_expand.obj
 0001:00018ca0       ?Expand@sarL_eReg_CLNode@@UAEPAVMachNode@@PAVState@@AAVNode_List@@@Z 08019ca0 f   ad_i486_expand.obj
 0001:00018ca0       ?Expand@shlI_eReg_1Node@@UAEPAVMachNode@@PAVState@@AAVNode_List@@@Z 08019ca0 f   ad_i486_expand.obj
 0001:00018ca0       ?Expand@addL_eReg_memNode@@UAEPAVMachNode@@PAVState@@AAVNode_List@@@Z 08019ca0 f   ad_i486_expand.obj
 0001:00018ca0       ?Expand@salL_eReg_CLNode@@UAEPAVMachNode@@PAVState@@AAVNode_List@@@Z 08019ca0 f   ad_i486_expand.obj
 0001:00018ca0       ?Expand@andI_mem_immNode@@UAEPAVMachNode@@PAVState@@AAVNode_List@@@Z 08019ca0 f   ad_i486_expand.obj
 0001:00018ca0       ?Expand@mulI_eReg_immNode@@UAEPAVMachNode@@PAVState@@AAVNode_List@@@Z 08019ca0 f   ad_i486_expand.obj
 0001:00018ca0       ?Expand@andL_eReg_immNode@@UAEPAVMachNode@@PAVState@@AAVNode_List@@@Z 08019ca0 f   ad_i486_expand.obj
 0001:00018ca0       ?Expand@orl_eReg_memNode@@UAEPAVMachNode@@PAVState@@AAVNode_List@@@Z 08019ca0 f   ad_i486_expand.obj
 0001:00018ca0       ?Expand@convI2L_regNode@@UAEPAVMachNode@@PAVState@@AAVNode_List@@@Z 08019ca0 f   ad_i486_expand.obj
 0001:00018ca0       ?Expand@loadConLNode@@UAEPAVMachNode@@PAVState@@AAVNode_List@@@Z 08019ca0 f   ad_i486_expand.obj
 0001:00018ca0       ?Expand@cmpX_regmemNode@@UAEPAVMachNode@@PAVState@@AAVNode_List@@@Z 08019ca0 f   ad_i486_expand.obj
 0001:00018ca0       ?Expand@storeL_volatileNode@@UAEPAVMachNode@@PAVState@@AAVNode_List@@@Z 08019ca0 f   ad_i486_expand.obj
 0001:00018ca0       ?Expand@andL_eRegNode@@UAEPAVMachNode@@PAVState@@AAVNode_List@@@Z 08019ca0 f   ad_i486_expand.obj
 0001:00018ca0       ?Expand@loadConL0Node@@UAEPAVMachNode@@PAVState@@AAVNode_List@@@Z 08019ca0 f   ad_i486_expand.obj
 0001:00018ca0       ?Expand@loadConL_low_onlyNode@@UAEPAVMachNode@@PAVState@@AAVNode_List@@@Z 08019ca0 f   ad_i486_expand.obj
 0001:00018ca0       ?Expand@addL_eReg_immNode@@UAEPAVMachNode@@PAVState@@AAVNode_List@@@Z 08019ca0 f   ad_i486_expand.obj
 0001:00018ca0       ?Expand@orl_eReg_immNode@@UAEPAVMachNode@@PAVState@@AAVNode_List@@@Z 08019ca0 f   ad_i486_expand.obj
 0001:00018ca0       ?Expand@mulI_mem_immNode@@UAEPAVMachNode@@PAVState@@AAVNode_List@@@Z 08019ca0 f   ad_i486_expand.obj
 0001:00018ca0       ?Expand@tanXD_regNode@@UAEPAVMachNode@@PAVState@@AAVNode_List@@@Z 08019ca0 f   ad_i486_expand.obj
 0001:00018ca0       ?Expand@shlL_eReg_32_63Node@@UAEPAVMachNode@@PAVState@@AAVNode_List@@@Z 08019ca0 f   ad_i486_expand.obj
 0001:00018ca0       ?Expand@xorI_eReg_immNode@@UAEPAVMachNode@@PAVState@@AAVNode_List@@@Z 08019ca0 f   ad_i486_expand.obj
 0001:00018ca0       ?Expand@decI_eRegNode@@UAEPAVMachNode@@PAVState@@AAVNode_List@@@Z 08019ca0 f   ad_i486_expand.obj
 0001:00018ca0       ?Expand@negL_eRegNode@@UAEPAVMachNode@@PAVState@@AAVNode_List@@@Z 08019ca0 f   ad_i486_expand.obj
 0001:00018ca0       ?Expand@cmpL3_reg_regNode@@UAEPAVMachNode@@PAVState@@AAVNode_List@@@Z 08019ca0 f   ad_i486_expand.obj
 0001:00018ca0       ?Expand@addP_eReg_immNode@@UAEPAVMachNode@@PAVState@@AAVNode_List@@@Z 08019ca0 f   ad_i486_expand.obj
 0001:00018ca0       ?Expand@subI_eReg_memNode@@UAEPAVMachNode@@PAVState@@AAVNode_List@@@Z 08019ca0 f   ad_i486_expand.obj
 0001:00018ca0       ?Expand@andI_eReg_immNode@@UAEPAVMachNode@@PAVState@@AAVNode_List@@@Z 08019ca0 f   ad_i486_expand.obj
 0001:00018ca0       ?Expand@shrL_eReg_1_31Node@@UAEPAVMachNode@@PAVState@@AAVNode_List@@@Z 08019ca0 f   ad_i486_expand.obj
 0001:00018ca0       ?Expand@atanXD_regNode@@UAEPAVMachNode@@PAVState@@AAVNode_List@@@Z 08019ca0 f   ad_i486_expand.obj
 0001:00018ca0       ?Expand@xorI_mem_immNode@@UAEPAVMachNode@@PAVState@@AAVNode_List@@@Z 08019ca0 f   ad_i486_expand.obj
 0001:00018ca0       ?Expand@negI_eRegNode@@UAEPAVMachNode@@PAVState@@AAVNode_List@@@Z 08019ca0 f   ad_i486_expand.obj
 0001:00018ca0       ?Expand@incI_memNode@@UAEPAVMachNode@@PAVState@@AAVNode_List@@@Z 08019ca0 f   ad_i486_expand.obj
 0001:00018ca0       ?Expand@mulI_eRegNode@@UAEPAVMachNode@@PAVState@@AAVNode_List@@@Z 08019ca0 f   ad_i486_expand.obj
 0001:00018ca0       ?Expand@addI_eReg_immNode@@UAEPAVMachNode@@PAVState@@AAVNode_List@@@Z 08019ca0 f   ad_i486_expand.obj
 0001:00018ca0       ?Expand@addI_eReg_memNode@@UAEPAVMachNode@@PAVState@@AAVNode_List@@@Z 08019ca0 f   ad_i486_expand.obj
 0001:00018ca0       ?Expand@convD2L_reg_regNode@@UAEPAVMachNode@@PAVState@@AAVNode_List@@@Z 08019ca0 f   ad_i486_expand.obj
 0001:00018ca0       ?Expand@shrI_eReg_1Node@@UAEPAVMachNode@@PAVState@@AAVNode_List@@@Z 08019ca0 f   ad_i486_expand.obj
 0001:00018ca0       ?Expand@subI_eReg_immNode@@UAEPAVMachNode@@PAVState@@AAVNode_List@@@Z 08019ca0 f   ad_i486_expand.obj
 0001:00018ca0       ?Expand@andI_mem_eRegNode@@UAEPAVMachNode@@PAVState@@AAVNode_List@@@Z 08019ca0 f   ad_i486_expand.obj
 0001:00018ca0       ?Expand@xorI_eReg_memNode@@UAEPAVMachNode@@PAVState@@AAVNode_List@@@Z 08019ca0 f   ad_i486_expand.obj
 0001:00018ca0       ?Expand@subL_eReg_immNode@@UAEPAVMachNode@@PAVState@@AAVNode_List@@@Z 08019ca0 f   ad_i486_expand.obj
 0001:00018ca0       ?Expand@convL2F_regNode@@UAEPAVMachNode@@PAVState@@AAVNode_List@@@Z 08019ca0 f   ad_i486_expand.obj
 0001:00018ca0       ?Expand@cmpX_regNode@@UAEPAVMachNode@@PAVState@@AAVNode_List@@@Z 08019ca0 f   ad_i486_expand.obj
 0001:00018ca0       ?Expand@xorl_eReg_immNode@@UAEPAVMachNode@@PAVState@@AAVNode_List@@@Z 08019ca0 f   ad_i486_expand.obj
 0001:00018ca0       ?Expand@convL2XD_regNode@@UAEPAVMachNode@@PAVState@@AAVNode_List@@@Z 08019ca0 f   ad_i486_expand.obj
 0001:00018ca0       ?Expand@andL_eReg_memNode@@UAEPAVMachNode@@PAVState@@AAVNode_List@@@Z 08019ca0 f   ad_i486_expand.obj
 0001:00018ca0       ?Expand@shrL_eReg_CLNode@@UAEPAVMachNode@@PAVState@@AAVNode_List@@@Z 08019ca0 f   ad_i486_expand.obj
 0001:00018ca0       ?Expand@sarL_eReg_1_31Node@@UAEPAVMachNode@@PAVState@@AAVNode_List@@@Z 08019ca0 f   ad_i486_expand.obj
 0001:00018ca0       ?Expand@minI_eRegNode@@UAEPAVMachNode@@PAVState@@AAVNode_List@@@Z 08019ca0 f   ad_i486_expand.obj
 0001:00018ca0       ?Expand@andI_eRegNode@@UAEPAVMachNode@@PAVState@@AAVNode_List@@@Z 08019ca0 f   ad_i486_expand.obj
 0001:00018ca0       ?Expand@cmpXD_regmemNode@@UAEPAVMachNode@@PAVState@@AAVNode_List@@@Z 08019ca0 f   ad_i486_expand.obj
 0001:00018ca0       ?Expand@addI_mem_eRegNode@@UAEPAVMachNode@@PAVState@@AAVNode_List@@@Z 08019ca0 f   ad_i486_expand.obj
 0001:00018ca0       ?Expand@addI_mem_immNode@@UAEPAVMachNode@@PAVState@@AAVNode_List@@@Z 08019ca0 f   ad_i486_expand.obj
 0001:00018ca0       ?Expand@addL_eRegNode@@UAEPAVMachNode@@PAVState@@AAVNode_List@@@Z 08019ca0 f   ad_i486_expand.obj
 0001:00018ca0       ?Expand@addI_eRegNode@@UAEPAVMachNode@@PAVState@@AAVNode_List@@@Z 08019ca0 f   ad_i486_expand.obj
 0001:00018ca0       ?Expand@convL2D_regNode@@UAEPAVMachNode@@PAVState@@AAVNode_List@@@Z 08019ca0 f   ad_i486_expand.obj
 0001:00018ca0       ?Expand@sarI_eReg_CLNode@@UAEPAVMachNode@@PAVState@@AAVNode_List@@@Z 08019ca0 f   ad_i486_expand.obj
 0001:00018ca0       ?Expand@prefetch0Node@@UAEPAVMachNode@@PAVState@@AAVNode_List@@@Z 08019ca0 f   ad_i486_expand.obj
 0001:00018ca0       ?Expand@cmpLTMask0Node@@UAEPAVMachNode@@PAVState@@AAVNode_List@@@Z 08019ca0 f   ad_i486_expand.obj
 0001:00018ca0       ?Expand@subP_eRegNode@@UAEPAVMachNode@@PAVState@@AAVNode_List@@@Z 08019ca0 f   ad_i486_expand.obj
 0001:00018ca0       ?Expand@decI_memNode@@UAEPAVMachNode@@PAVState@@AAVNode_List@@@Z 08019ca0 f   ad_i486_expand.obj
 0001:00018ca0       ?Expand@sarI_eReg_immNode@@UAEPAVMachNode@@PAVState@@AAVNode_List@@@Z 08019ca0 f   ad_i486_expand.obj
 0001:00018ca0       ?Expand@subL_eReg_memNode@@UAEPAVMachNode@@PAVState@@AAVNode_List@@@Z 08019ca0 f   ad_i486_expand.obj
 0001:00018ca0       ?Expand@sarL_eReg_32_63Node@@UAEPAVMachNode@@PAVState@@AAVNode_List@@@Z 08019ca0 f   ad_i486_expand.obj
 0001:00018ca0       ?Expand@orI_mem_immNode@@UAEPAVMachNode@@PAVState@@AAVNode_List@@@Z 08019ca0 f   ad_i486_expand.obj
 0001:00018ca0       ?Expand@convXD2L_reg_regNode@@UAEPAVMachNode@@PAVState@@AAVNode_List@@@Z 08019ca0 f   ad_i486_expand.obj
 0001:00018ca0       ?Expand@convF2L_reg_regNode@@UAEPAVMachNode@@PAVState@@AAVNode_List@@@Z 08019ca0 f   ad_i486_expand.obj
 0001:00018ca0       ?Expand@convX2L_reg_regNode@@UAEPAVMachNode@@PAVState@@AAVNode_List@@@Z 08019ca0 f   ad_i486_expand.obj
 0001:00018ca0       ?Expand@shlL_eReg_1_31Node@@UAEPAVMachNode@@PAVState@@AAVNode_List@@@Z 08019ca0 f   ad_i486_expand.obj
 0001:00018ca0       ?Expand@orI_eReg_memNode@@UAEPAVMachNode@@PAVState@@AAVNode_List@@@Z 08019ca0 f   ad_i486_expand.obj
 0001:00018ca0       ?Expand@convL2X_regNode@@UAEPAVMachNode@@PAVState@@AAVNode_List@@@Z 08019ca0 f   ad_i486_expand.obj
 0001:00018ca0       ?Expand@xorI_mem_eRegNode@@UAEPAVMachNode@@PAVState@@AAVNode_List@@@Z 08019ca0 f   ad_i486_expand.obj
 0001:00018ca0       ?Expand@subI_mem_eRegNode@@UAEPAVMachNode@@PAVState@@AAVNode_List@@@Z 08019ca0 f   ad_i486_expand.obj
 0001:00018ca0       ?Expand@subL_eRegNode@@UAEPAVMachNode@@PAVState@@AAVNode_List@@@Z 08019ca0 f   ad_i486_expand.obj
 0001:00018ca0       ?Expand@i2sNode@@UAEPAVMachNode@@PAVState@@AAVNode_List@@@Z 08019ca0 f   ad_i486_expand.obj
 0001:00018ca0       ?Expand@sarI_mem_1Node@@UAEPAVMachNode@@PAVState@@AAVNode_List@@@Z 08019ca0 f   ad_i486_expand.obj
 0001:00018ca0       ?Expand@castP2LNode@@UAEPAVMachNode@@PAVState@@AAVNode_List@@@Z 08019ca0 f   ad_i486_expand.obj
 0001:00018ca0       ?Expand@subI_eRegNode@@UAEPAVMachNode@@PAVState@@AAVNode_List@@@Z 08019ca0 f   ad_i486_expand.obj
 0001:00018ca0       ?Expand@cmpLTMaskNode@@UAEPAVMachNode@@PAVState@@AAVNode_List@@@Z 08019ca0 f   ad_i486_expand.obj
 0001:00018ca0       ?Expand@xorI_eRegNode@@UAEPAVMachNode@@PAVState@@AAVNode_List@@@Z 08019ca0 f   ad_i486_expand.obj
 0001:00018ca0       ?Expand@cp2bNode@@UAEPAVMachNode@@PAVState@@AAVNode_List@@@Z 08019ca0 f   ad_i486_expand.obj
 0001:00018ca0       ?Expand@andI_eReg_memNode@@UAEPAVMachNode@@PAVState@@AAVNode_List@@@Z 08019ca0 f   ad_i486_expand.obj
 0001:00018ca0       ?Expand@cosXD_regNode@@UAEPAVMachNode@@PAVState@@AAVNode_List@@@Z 08019ca0 f   ad_i486_expand.obj
 0001:00018ca0       ?Expand@zerox_longNode@@UAEPAVMachNode@@PAVState@@AAVNode_List@@@Z 08019ca0 f   ad_i486_expand.obj
 0001:00018d60       ?Expand@mulL_eReg_conNode@@UAEPAVMachNode@@PAVState@@AAVNode_List@@@Z 08019d60 f   ad_i486_expand.obj
 0001:00018d60       ?Expand@mulL_eRegNode@@UAEPAVMachNode@@PAVState@@AAVNode_List@@@Z 08019d60 f   ad_i486_expand.obj
 0001:00018ed0       ?Expand@modL_eRegNode@@UAEPAVMachNode@@PAVState@@AAVNode_List@@@Z 08019ed0 f   ad_i486_expand.obj
 0001:00018ed0       ?Expand@divL_eRegNode@@UAEPAVMachNode@@PAVState@@AAVNode_List@@@Z 08019ed0 f   ad_i486_expand.obj
 0001:000190e0       ?Expand@convI2BNode@@UAEPAVMachNode@@PAVState@@AAVNode_List@@@Z 0801a0e0 f   ad_i486_expand.obj
 0001:00019290       ?rule@movI_nocopyNode@@EBEIXZ 0801a290 f i ad_i486_expand.obj
 0001:000192a0       ?rule@ci2bNode@@EBEIXZ     0801a2a0 f i ad_i486_expand.obj
 0001:000192b0       ?Expand@convP2BNode@@UAEPAVMachNode@@PAVState@@AAVNode_List@@@Z 0801a2b0 f   ad_i486_expand.obj
 0001:00019460       ?rule@movP_nocopyNode@@EBEIXZ 0801a460 f i ad_i486_expand.obj
 0001:00019470       ?rule@cp2bNode@@EBEIXZ     0801a470 f i ad_i486_expand.obj
 0001:00019480       ?Expand@cadd_cmpLTMask1Node@@UAEPAVMachNode@@PAVState@@AAVNode_List@@@Z 0801a480 f   ad_i486_expand.obj
 0001:00019480       ?Expand@partialSubtypeCheckNode@@UAEPAVMachNode@@PAVState@@AAVNode_List@@@Z 0801a480 f   ad_i486_expand.obj
 0001:00019480       ?Expand@cadd_cmpLTMask2Node@@UAEPAVMachNode@@PAVState@@AAVNode_List@@@Z 0801a480 f   ad_i486_expand.obj
 0001:000195f0       ?Expand@cmpD_0Node@@UAEPAVMachNode@@PAVState@@AAVNode_List@@@Z 0801a5f0 f   ad_i486_expand.obj
 0001:000195f0       ?Expand@modF24_regNode@@UAEPAVMachNode@@PAVState@@AAVNode_List@@@Z 0801a5f0 f   ad_i486_expand.obj
 0001:000195f0       ?Expand@cmpF_regNode@@UAEPAVMachNode@@PAVState@@AAVNode_List@@@Z 0801a5f0 f   ad_i486_expand.obj
 0001:000195f0       ?Expand@cmpF_0Node@@UAEPAVMachNode@@PAVState@@AAVNode_List@@@Z 0801a5f0 f   ad_i486_expand.obj
 0001:000195f0       ?Expand@modF_regNode@@UAEPAVMachNode@@PAVState@@AAVNode_List@@@Z 0801a5f0 f   ad_i486_expand.obj
 0001:000195f0       ?Expand@cmpD_regNode@@UAEPAVMachNode@@PAVState@@AAVNode_List@@@Z 0801a5f0 f   ad_i486_expand.obj
 0001:000195f0       ?Expand@modI_eRegNode@@UAEPAVMachNode@@PAVState@@AAVNode_List@@@Z 0801a5f0 f   ad_i486_expand.obj
 0001:000195f0       ?Expand@modD_regNode@@UAEPAVMachNode@@PAVState@@AAVNode_List@@@Z 0801a5f0 f   ad_i486_expand.obj
 0001:00019760       ?Expand@cmpD_ccNode@@UAEPAVMachNode@@PAVState@@AAVNode_List@@@Z 0801a760 f   ad_i486_expand.obj
 0001:00019760       ?Expand@cmpXD_ccNode@@UAEPAVMachNode@@PAVState@@AAVNode_List@@@Z 0801a760 f   ad_i486_expand.obj
 0001:00019760       ?Expand@cmpF_cc_P6Node@@UAEPAVMachNode@@PAVState@@AAVNode_List@@@Z 0801a760 f   ad_i486_expand.obj
 0001:00019760       ?Expand@cmpX_ccmemNode@@UAEPAVMachNode@@PAVState@@AAVNode_List@@@Z 0801a760 f   ad_i486_expand.obj
 0001:00019760       ?Expand@cmpX_ccNode@@UAEPAVMachNode@@PAVState@@AAVNode_List@@@Z 0801a760 f   ad_i486_expand.obj
 0001:00019760       ?Expand@cmpD_cc_P6Node@@UAEPAVMachNode@@PAVState@@AAVNode_List@@@Z 0801a760 f   ad_i486_expand.obj
 0001:00019760       ?Expand@cmpFastLockNode@@UAEPAVMachNode@@PAVState@@AAVNode_List@@@Z 0801a760 f   ad_i486_expand.obj
 0001:00019760       ?Expand@cmpF_ccNode@@UAEPAVMachNode@@PAVState@@AAVNode_List@@@Z 0801a760 f   ad_i486_expand.obj
 0001:00019760       ?Expand@cmpXD_ccmemNode@@UAEPAVMachNode@@PAVState@@AAVNode_List@@@Z 0801a760 f   ad_i486_expand.obj
 0001:00019820       ?Expand@powD_regNode@@UAEPAVMachNode@@PAVState@@AAVNode_List@@@Z 0801a820 f   ad_i486_expand.obj
 0001:000198e0       ?Expand@modX_regNode@@UAEPAVMachNode@@PAVState@@AAVNode_List@@@Z 0801a8e0 f   ad_i486_expand.obj
 0001:000198e0       ?Expand@modXD_regNode@@UAEPAVMachNode@@PAVState@@AAVNode_List@@@Z 0801a8e0 f   ad_i486_expand.obj
 0001:00019af0       ?Expand@convD2F_regNode@@UAEPAVMachNode@@PAVState@@AAVNode_List@@@Z 0801aaf0 f   ad_i486_expand.obj
 0001:00019bc0       ?rule@roundFloat_mem_regNode@@EBEIXZ 0801abc0 f i ad_i486_expand.obj
 0001:00019bd0       ?ideal_Opcode@roundFloat_mem_regNode@@EBEHXZ 0801abd0 f i ad_i486_expand.obj
 0001:00019be0       ?Expand@convXD2I_reg_regNode@@UAEPAVMachNode@@PAVState@@AAVNode_List@@@Z 0801abe0 f   ad_i486_expand.obj
 0001:00019be0       ?Expand@convF2I_reg_regNode@@UAEPAVMachNode@@PAVState@@AAVNode_List@@@Z 0801abe0 f   ad_i486_expand.obj
 0001:00019be0       ?Expand@divI_eRegNode@@UAEPAVMachNode@@PAVState@@AAVNode_List@@@Z 0801abe0 f   ad_i486_expand.obj
 0001:00019be0       ?Expand@convD2I_reg_regNode@@UAEPAVMachNode@@PAVState@@AAVNode_List@@@Z 0801abe0 f   ad_i486_expand.obj
 0001:00019be0       ?Expand@convX2I_regNode@@UAEPAVMachNode@@PAVState@@AAVNode_List@@@Z 0801abe0 f   ad_i486_expand.obj
 0001:00019d50       ?Expand@rep_stosNode@@UAEPAVMachNode@@PAVState@@AAVNode_List@@@Z 0801ad50 f   ad_i486_expand.obj
 0001:00019fc0       ?Amalloc_4@Arena@@QAEPAXI@Z 0801afc0 f i ad_i486_expand.obj
 0001:00019ff0       ?Expand@string_compareNode@@UAEPAVMachNode@@PAVState@@AAVNode_List@@@Z 0801aff0 f   ad_i486_expand.obj
 0001:0001a2d0       ?Expand@partialSubtypeCheck_vs_ZeroNode@@UAEPAVMachNode@@PAVState@@AAVNode_List@@@Z 0801b2d0 f   ad_i486_expand.obj
 0001:0001a430       ?Expand@cmpL_zero_flags_EQNENode@@UAEPAVMachNode@@PAVState@@AAVNode_List@@@Z 0801b430 f   ad_i486_expand.obj
 0001:0001a430       ?Expand@cmpL_reg_flags_LEGTNode@@UAEPAVMachNode@@PAVState@@AAVNode_List@@@Z 0801b430 f   ad_i486_expand.obj
 0001:0001a430       ?Expand@cmpL_zero_flags_LEGTNode@@UAEPAVMachNode@@PAVState@@AAVNode_List@@@Z 0801b430 f   ad_i486_expand.obj
 0001:0001a430       ?Expand@cmpL_reg_flags_LTGENode@@UAEPAVMachNode@@PAVState@@AAVNode_List@@@Z 0801b430 f   ad_i486_expand.obj
 0001:0001a4f0       ?rule@jmpConNode@@EBEIXZ   0801b4f0 f i ad_i486_expand.obj
 0001:0001a500       ?rule@fcmovD_regSNode@@EBEIXZ 0801b500 f i ad_i486_expand.obj
 0001:0001a510       ?two_adr@cmovLL_mem_EQNENode@@EBEIXZ 0801b510 f i ad_i486_expand.obj
 0001:0001a510       ?two_adr@cmovII_reg_LEGTNode@@EBEIXZ 0801b510 f i ad_i486_expand.obj
 0001:0001a510       ?two_adr@fcmovXD_regUNode@@EBEIXZ 0801b510 f i ad_i486_expand.obj
 0001:0001a510       ?two_adr@cmovXDD_reg_LEGTNode@@EBEIXZ 0801b510 f i ad_i486_expand.obj
 0001:0001a510       ?two_adr@cmovL_regUNode@@EBEIXZ 0801b510 f i ad_i486_expand.obj
 0001:0001a510       ?two_adr@fcmovD_regSNode@@EBEIXZ 0801b510 f i ad_i486_expand.obj
 0001:0001a510       ?two_adr@fcmovX_regUNode@@EBEIXZ 0801b510 f i ad_i486_expand.obj
 0001:0001a510       ?two_adr@cmovI_memNode@@EBEIXZ 0801b510 f i ad_i486_expand.obj
 0001:0001a510       ?two_adr@cmovI_regUNode@@EBEIXZ 0801b510 f i ad_i486_expand.obj
 0001:0001a510       ?two_adr@cmovXDD_reg_EQNENode@@EBEIXZ 0801b510 f i ad_i486_expand.obj
 0001:0001a510       ?two_adr@fcmovF_regUNode@@EBEIXZ 0801b510 f i ad_i486_expand.obj
 0001:0001a510       ?two_adr@subD_mulD_regNode@@EBEIXZ 0801b510 f i ad_i486_expand.obj
 0001:0001a510       ?two_adr@cmovI_memuNode@@EBEIXZ 0801b510 f i ad_i486_expand.obj
 0001:0001a510       ?two_adr@cmovII_reg_EQNENode@@EBEIXZ 0801b510 f i ad_i486_expand.obj
 0001:0001a510       ?two_adr@cmovII_reg_LTGENode@@EBEIXZ 0801b510 f i ad_i486_expand.obj
 0001:0001a510       ?two_adr@cmovPP_reg_EQNENode@@EBEIXZ 0801b510 f i ad_i486_expand.obj
 0001:0001a510       ?two_adr@cmovLL_mem_LEGTNode@@EBEIXZ 0801b510 f i ad_i486_expand.obj
 0001:0001a510       ?two_adr@cmovDD_reg_LEGTNode@@EBEIXZ 0801b510 f i ad_i486_expand.obj
 0001:0001a510       ?two_adr@cmovL_regNode@@EBEIXZ 0801b510 f i ad_i486_expand.obj
 0001:0001a510       ?two_adr@cmovXX_reg_LTGENode@@EBEIXZ 0801b510 f i ad_i486_expand.obj
 0001:0001a510       ?two_adr@fcmovD_regUNode@@EBEIXZ 0801b510 f i ad_i486_expand.obj
 0001:0001a510       ?two_adr@cmovLL_reg_EQNENode@@EBEIXZ 0801b510 f i ad_i486_expand.obj
 0001:0001a510       ?two_adr@cmovXX_reg_EQNENode@@EBEIXZ 0801b510 f i ad_i486_expand.obj
 0001:0001a510       ?two_adr@cmovP_reg_nonP6Node@@EBEIXZ 0801b510 f i ad_i486_expand.obj
 0001:0001a510       ?two_adr@cmovI_regNode@@EBEIXZ 0801b510 f i ad_i486_expand.obj
 0001:0001a510       ?two_adr@cmovFF_reg_EQNENode@@EBEIXZ 0801b510 f i ad_i486_expand.obj
 0001:0001a510       ?two_adr@cmovII_mem_LEGTNode@@EBEIXZ 0801b510 f i ad_i486_expand.obj
 0001:0001a510       ?two_adr@cmovP_regNode@@EBEIXZ 0801b510 f i ad_i486_expand.obj
 0001:0001a510       ?two_adr@cmovDD_reg_LTGENode@@EBEIXZ 0801b510 f i ad_i486_expand.obj
 0001:0001a510       ?two_adr@fcmovX_regSNode@@EBEIXZ 0801b510 f i ad_i486_expand.obj
 0001:0001a510       ?two_adr@cmovFF_reg_LEGTNode@@EBEIXZ 0801b510 f i ad_i486_expand.obj
 0001:0001a510       ?two_adr@cmovP_regUNode@@EBEIXZ 0801b510 f i ad_i486_expand.obj
 0001:0001a510       ?two_adr@cmovXDD_reg_LTGENode@@EBEIXZ 0801b510 f i ad_i486_expand.obj
 0001:0001a510       ?two_adr@cmovLL_reg_LTGENode@@EBEIXZ 0801b510 f i ad_i486_expand.obj
 0001:0001a510       ?two_adr@fcmovF_regSNode@@EBEIXZ 0801b510 f i ad_i486_expand.obj
 0001:0001a510       ?two_adr@cmovII_mem_LTGENode@@EBEIXZ 0801b510 f i ad_i486_expand.obj
 0001:0001a510       ?two_adr@addD_mulD_regNode@@EBEIXZ 0801b510 f i ad_i486_expand.obj
 0001:0001a510       ?two_adr@fcmovXD_regSNode@@EBEIXZ 0801b510 f i ad_i486_expand.obj
 0001:0001a510       ?two_adr@cmovPP_reg_LTGENode@@EBEIXZ 0801b510 f i ad_i486_expand.obj
 0001:0001a510       ?two_adr@cmovLL_mem_LTGENode@@EBEIXZ 0801b510 f i ad_i486_expand.obj
 0001:0001a510       ?two_adr@cmovFF_reg_LTGENode@@EBEIXZ 0801b510 f i ad_i486_expand.obj
 0001:0001a510       ?two_adr@cmovDD_reg_EQNENode@@EBEIXZ 0801b510 f i ad_i486_expand.obj
 0001:0001a510       ?two_adr@cmovXX_reg_LEGTNode@@EBEIXZ 0801b510 f i ad_i486_expand.obj
 0001:0001a510       ?two_adr@cmovPP_reg_LEGTNode@@EBEIXZ 0801b510 f i ad_i486_expand.obj
 0001:0001a510       ?two_adr@cmovII_mem_EQNENode@@EBEIXZ 0801b510 f i ad_i486_expand.obj
 0001:0001a510       ?two_adr@cmovLL_reg_LEGTNode@@EBEIXZ 0801b510 f i ad_i486_expand.obj
 0001:0001a510       ?two_adr@addF_mulF_regNode@@EBEIXZ 0801b510 f i ad_i486_expand.obj
 0001:0001a540       ?rule@fcmovXD_regSNode@@EBEIXZ 0801b540 f i ad_i486_expand.obj
 0001:0001a550       ?rule@fcmovF_regSNode@@EBEIXZ 0801b550 f i ad_i486_expand.obj
 0001:0001a560       ?rule@fcmovX_regSNode@@EBEIXZ 0801b560 f i ad_i486_expand.obj
 0001:0001a570       ?Expand@cmovDD_reg_LTGENode@@UAEPAVMachNode@@PAVState@@AAVNode_List@@@Z 0801b570 f   ad_i486_expand.obj
 0001:0001a570       ?Expand@cmovDD_reg_EQNENode@@UAEPAVMachNode@@PAVState@@AAVNode_List@@@Z 0801b570 f   ad_i486_expand.obj
 0001:0001a570       ?Expand@cmovDD_reg_LEGTNode@@UAEPAVMachNode@@PAVState@@AAVNode_List@@@Z 0801b570 f   ad_i486_expand.obj
 0001:0001a720       ?Expand@cmovFF_reg_LEGTNode@@UAEPAVMachNode@@PAVState@@AAVNode_List@@@Z 0801b720 f   ad_i486_expand.obj
 0001:0001a720       ?Expand@cmovFF_reg_EQNENode@@UAEPAVMachNode@@PAVState@@AAVNode_List@@@Z 0801b720 f   ad_i486_expand.obj
 0001:0001a720       ?Expand@cmovFF_reg_LTGENode@@UAEPAVMachNode@@PAVState@@AAVNode_List@@@Z 0801b720 f   ad_i486_expand.obj
 0001:0001a8d0       ?Expand@cmpL_LTGENode@@UAEPAVMachNode@@PAVState@@AAVNode_List@@@Z 0801b8d0 f   ad_i486_expand.obj
 0001:0001a8d0       ?Expand@cmpL_LEGTNode@@UAEPAVMachNode@@PAVState@@AAVNode_List@@@Z 0801b8d0 f   ad_i486_expand.obj
 0001:0001a8d0       ?Expand@cmpL_EQNENode@@UAEPAVMachNode@@PAVState@@AAVNode_List@@@Z 0801b8d0 f   ad_i486_expand.obj
 0001:0001aa40       ?Expand@cmovXDD_reg_LEGTNode@@UAEPAVMachNode@@PAVState@@AAVNode_List@@@Z 0801ba40 f   ad_i486_expand.obj
 0001:0001aa40       ?Expand@cmovXDD_reg_LTGENode@@UAEPAVMachNode@@PAVState@@AAVNode_List@@@Z 0801ba40 f   ad_i486_expand.obj
 0001:0001aa40       ?Expand@cmovXDD_reg_EQNENode@@UAEPAVMachNode@@PAVState@@AAVNode_List@@@Z 0801ba40 f   ad_i486_expand.obj
 0001:0001abf0       ?Expand@cmovXX_reg_EQNENode@@UAEPAVMachNode@@PAVState@@AAVNode_List@@@Z 0801bbf0 f   ad_i486_expand.obj
 0001:0001abf0       ?Expand@cmovXX_reg_LEGTNode@@UAEPAVMachNode@@PAVState@@AAVNode_List@@@Z 0801bbf0 f   ad_i486_expand.obj
 0001:0001abf0       ?Expand@cmovXX_reg_LTGENode@@UAEPAVMachNode@@PAVState@@AAVNode_List@@@Z 0801bbf0 f   ad_i486_expand.obj
 0001:0001ada0       ?Expand@cmpFastUnlockNode@@UAEPAVMachNode@@PAVState@@AAVNode_List@@@Z 0801bda0 f   ad_i486_expand.obj
 0001:0001af00       ?Expand@CallCompiledJavaDirectNode@@UAEPAVMachNode@@PAVState@@AAVNode_List@@@Z 0801bf00 f   ad_i486_expand.obj
 0001:0001afc0       ?Expand@TLSNode@@UAEPAVMachNode@@PAVState@@AAVNode_List@@@Z 0801bfc0 f   ad_i486_expand.obj
 0001:0001b130       ?rule@tlsLoadP_prefixLoadPNode@@EBEIXZ 0801c130 f i ad_i486_expand.obj
 0001:0001b140       ?rule@tlsLoadPNode@@EBEIXZ 0801c140 f i ad_i486_expand.obj
 0001:0001b150       ?map@Node_Array@@QAEXIPAVNode@@@Z 0801c150 f i ad_i486_expand.obj
 0001:0001b150       ?map@Type_Array@@QAEXIPBVType@@@Z 0801c150 f i ad_i486_expand.obj
 0001:0001b190       ??0ProjNode@@QAE@PAVNode@@I@Z 0801c190 f i ad_i486_expand.obj
 0001:0001b1b0       ?in_RegMask@MachProjNode@@UBEABVRegMask@@I@Z 0801c1b0 f i ad_i486_expand.obj
 0001:0001b1b0       ?in_RegMask@ConNode@@UBEABVRegMask@@I@Z 0801c1b0 f i ad_i486_expand.obj
 0001:0001b1c0       ?out_RegMask@MachProjNode@@UBEABVRegMask@@XZ 0801c1c0 f i ad_i486_expand.obj
 0001:0001b1d0       ?prototypical_signature@BasicAdapter@@QBEPAVsymbolOopDesc@@XZ 0801c1d0 f i ad_i486_expand.obj
 0001:0001b1d0       ?ideal_reg@MachProjNode@@UBEIXZ 0801c1d0 f i ad_i486_expand.obj
 0001:0001b1e0       ?MachOperGenerator@State@@QAEPAVMachOper@@HPAVMachNode@@@Z 0801c1e0 f   ad_i486_gen.obj
 0001:0001d0d0       ??0indIndexOffset_win95_safeOper@@QAE@J@Z 0801e0d0 f i ad_i486_gen.obj
 0001:0001d0f0       ??0indIndexScale_win95_safeOper@@QAE@J@Z 0801e0f0 f i ad_i486_gen.obj
 0001:0001d110       ??0indIndexScaleOffset_win95_safeOper@@QAE@JJ@Z 0801e110 f i ad_i486_gen.obj
 0001:0001d130       ??0cmpOpOper@@QAE@W4mask@BoolTest@@@Z 0801e130 f i ad_i486_gen.obj
 0001:0001d150       ??0cmpOpUOper@@QAE@W4mask@BoolTest@@@Z 0801e150 f i ad_i486_gen.obj
 0001:0001d170       ??0cmpOp_fcmovOper@@QAE@W4mask@BoolTest@@@Z 0801e170 f i ad_i486_gen.obj
 0001:0001d190       ??0cmpOp_commuteOper@@QAE@W4mask@BoolTest@@@Z 0801e190 f i ad_i486_gen.obj
 0001:0001d1b0       ?MachNodeGenerator@State@@QAEPAVMachNode@@H@Z 0801e1b0 f   ad_i486_gen.obj
 0001:00021a80       ?rule@box_handleNode@@EBEIXZ 08022a80 f i ad_i486_gen.obj
 0001:00021a90       ?rule@loadBNode@@EBEIXZ    08022a90 f i ad_i486_gen.obj
 0001:00021aa0       ?rule@loadUBNode@@EBEIXZ   08022aa0 f i ad_i486_gen.obj
 0001:00021ab0       ?rule@loadCNode@@EBEIXZ    08022ab0 f i ad_i486_gen.obj
 0001:00021ac0       ?rule@loadINode@@EBEIXZ    08022ac0 f i ad_i486_gen.obj
 0001:00021ad0       ?rule@loadLNode@@EBEIXZ    08022ad0 f i ad_i486_gen.obj
 0001:00021ae0       ?rule@loadL_volatileNode@@EBEIXZ 08022ae0 f i ad_i486_gen.obj
 0001:00021af0       ?rule@loadRangeNode@@EBEIXZ 08022af0 f i ad_i486_gen.obj
 0001:00021b00       ?ideal_Opcode@loadRangeNode@@EBEHXZ 08022b00 f i ad_i486_gen.obj
 0001:00021b10       ?rule@loadPNode@@EBEIXZ    08022b10 f i ad_i486_gen.obj
 0001:00021b20       ?ideal_Opcode@loadPNode@@EBEHXZ 08022b20 f i ad_i486_gen.obj
 0001:00021b30       ?rule@loadKlassNode@@EBEIXZ 08022b30 f i ad_i486_gen.obj
 0001:00021b40       ?rule@loadSNode@@EBEIXZ    08022b40 f i ad_i486_gen.obj
 0001:00021b50       ?ideal_Opcode@loadSNode@@EBEHXZ 08022b50 f i ad_i486_gen.obj
 0001:00021b60       ?rule@loadDNode@@EBEIXZ    08022b60 f i ad_i486_gen.obj
 0001:00021b70       ?rule@loadXDNode@@EBEIXZ   08022b70 f i ad_i486_gen.obj
 0001:00021b80       ?rule@loadXNode@@EBEIXZ    08022b80 f i ad_i486_gen.obj
 0001:00021b90       ?rule@loadFNode@@EBEIXZ    08022b90 f i ad_i486_gen.obj
 0001:00021ba0       ?ideal_Opcode@shrL_eReg_1_31Node@@EBEHXZ 08022ba0 f i ad_i486_gen.obj
 0001:00021ba0       ?ideal_Opcode@shrL_eReg_CLNode@@EBEHXZ 08022ba0 f i ad_i486_gen.obj
 0001:00021ba0       ?rule@leaP8Node@@EBEIXZ    08022ba0 f i ad_i486_gen.obj
 0001:00021ba0       ?ideal_Opcode@shrL_eReg_32_63Node@@EBEHXZ 08022ba0 f i ad_i486_gen.obj
 0001:00021bb0       ?rule@leaPIdxScaleNode@@EBEIXZ 08022bb0 f i ad_i486_gen.obj
 0001:00021bc0       ?rule@leaPIdxScaleOffNode@@EBEIXZ 08022bc0 f i ad_i486_gen.obj
 0001:00021bd0       ?bottom_type@leaP_eReg_immINode@@UBEPBVType@@XZ 08022bd0 f i ad_i486_gen.obj
 0001:00021bd0       ?bottom_type@leaPIdxOffNode@@UBEPBVType@@XZ 08022bd0 f i ad_i486_gen.obj
 0001:00021bd0       ?bottom_type@leaPIdxScaleOffNode@@UBEPBVType@@XZ 08022bd0 f i ad_i486_gen.obj
 0001:00021bd0       ?bottom_type@subP_eRegNode@@UBEPBVType@@XZ 08022bd0 f i ad_i486_gen.obj
 0001:00021bd0       ?bottom_type@leaP32Node@@UBEPBVType@@XZ 08022bd0 f i ad_i486_gen.obj
 0001:00021bd0       ?bottom_type@addP_eRegNode@@UBEPBVType@@XZ 08022bd0 f i ad_i486_gen.obj
 0001:00021bd0       ?bottom_type@addP_eReg_immNode@@UBEPBVType@@XZ 08022bd0 f i ad_i486_gen.obj
 0001:00021bd0       ?bottom_type@leaP8Node@@UBEPBVType@@XZ 08022bd0 f i ad_i486_gen.obj
 0001:00021bd0       ?bottom_type@leaPIdxScaleNode@@UBEPBVType@@XZ 08022bd0 f i ad_i486_gen.obj
 0001:00021be0       ?rule@loadConINode@@EBEIXZ 08022be0 f i ad_i486_gen.obj
 0001:00021bf0       ?rule@loadConI0Node@@EBEIXZ 08022bf0 f i ad_i486_gen.obj
 0001:00021c00       ?bottom_type@loadConINode@@UBEPBVType@@XZ 08022c00 f i ad_i486_gen.obj
 0001:00021c00       ?bottom_type@loadConI0Node@@UBEPBVType@@XZ 08022c00 f i ad_i486_gen.obj
 0001:00021c20       ?rule@loadConPNode@@EBEIXZ 08022c20 f i ad_i486_gen.obj
 0001:00021c30       ?bottom_type@loadConPNode@@UBEPBVType@@XZ 08022c30 f i ad_i486_gen.obj
 0001:00021c40       ?rule@loadConLNode@@EBEIXZ 08022c40 f i ad_i486_gen.obj
 0001:00021c50       ?rule@loadConL0Node@@EBEIXZ 08022c50 f i ad_i486_gen.obj
 0001:00021c60       ?rule@loadConPcNode@@EBEIXZ 08022c60 f i ad_i486_gen.obj
 0001:00021c70       ?ideal_Opcode@loadConPcNode@@EBEHXZ 08022c70 f i ad_i486_gen.obj
 0001:00021c80       ?bottom_type@BoxNode@@UBEPBVType@@XZ 08022c80 f i ad_i486_gen.obj
 0001:00021c80       ?bottom_type@CastL2PNode@@UBEPBVType@@XZ 08022c80 f i ad_i486_gen.obj
 0001:00021c80       ?bottom_type@BoxLockNode@@UBEPBVType@@XZ 08022c80 f i ad_i486_gen.obj
 0001:00021c80       ?bottom_type@ThreadLocalNode@@UBEPBVType@@XZ 08022c80 f i ad_i486_gen.obj
 0001:00021c80       ?bottom_type@loadConPcNode@@UBEPBVType@@XZ 08022c80 f i ad_i486_gen.obj
 0001:00021c80       ?bottom_type@tlsLoadP_prefixLoadPNode@@UBEPBVType@@XZ 08022c80 f i ad_i486_gen.obj
 0001:00021c80       ?bottom_type@tlsLoadPNode@@UBEPBVType@@XZ 08022c80 f i ad_i486_gen.obj
 0001:00021c90       ?rule@loadConXNode@@EBEIXZ 08022c90 f i ad_i486_gen.obj
 0001:00021ca0       ?rule@loadConX0Node@@EBEIXZ 08022ca0 f i ad_i486_gen.obj
 0001:00021cb0       ?bottom_type@loadConXNode@@UBEPBVType@@XZ 08022cb0 f i ad_i486_gen.obj
 0001:00021cb0       ?bottom_type@loadConFNode@@UBEPBVType@@XZ 08022cb0 f i ad_i486_gen.obj
 0001:00021cb0       ?bottom_type@loadConX0Node@@UBEPBVType@@XZ 08022cb0 f i ad_i486_gen.obj
 0001:00021cd0       ?rule@loadConDNode@@EBEIXZ 08022cd0 f i ad_i486_gen.obj
 0001:00021ce0       ?rule@loadConXDNode@@EBEIXZ 08022ce0 f i ad_i486_gen.obj
 0001:00021cf0       ?rule@loadConXD0Node@@EBEIXZ 08022cf0 f i ad_i486_gen.obj
 0001:00021d00       ?bottom_type@loadConXD0Node@@UBEPBVType@@XZ 08022d00 f i ad_i486_gen.obj
 0001:00021d00       ?bottom_type@loadConXDNode@@UBEPBVType@@XZ 08022d00 f i ad_i486_gen.obj
 0001:00021d00       ?bottom_type@loadConDNode@@UBEPBVType@@XZ 08022d00 f i ad_i486_gen.obj
 0001:00021d20       ?rule@loadSSINode@@EBEIXZ  08022d20 f i ad_i486_gen.obj
 0001:00021d30       ?rule@loadSSPNode@@EBEIXZ  08022d30 f i ad_i486_gen.obj
 0001:00021d40       ?rule@loadSSDNode@@EBEIXZ  08022d40 f i ad_i486_gen.obj
 0001:00021d50       ?rule@prefetch1Node@@EBEIXZ 08022d50 f i ad_i486_gen.obj
 0001:00021d60       ?ideal_Opcode@prefetch0Node@@EBEHXZ 08022d60 f i ad_i486_gen.obj
 0001:00021d60       ?ideal_Opcode@prefetch1Node@@EBEHXZ 08022d60 f i ad_i486_gen.obj
 0001:00021d70       ?rule@prefetch0Node@@EBEIXZ 08022d70 f i ad_i486_gen.obj
 0001:00021d80       ?rule@storeBNode@@EBEIXZ   08022d80 f i ad_i486_gen.obj
 0001:00021d90       ?ideal_Opcode@storeImmBNode@@EBEHXZ 08022d90 f i ad_i486_gen.obj
 0001:00021d90       ?store_Opcode@LoadBNode@@UBEHXZ 08022d90 f i ad_i486_gen.obj
 0001:00021d90       ?ideal_Opcode@storeBNode@@EBEHXZ 08022d90 f i ad_i486_gen.obj
 0001:00021da0       ?rule@storeCNode@@EBEIXZ   08022da0 f i ad_i486_gen.obj
 0001:00021db0       ?ideal_Opcode@storeImmI16Node@@EBEHXZ 08022db0 f i ad_i486_gen.obj
 0001:00021db0       ?store_Opcode@LoadCNode@@UBEHXZ 08022db0 f i ad_i486_gen.obj
 0001:00021db0       ?ideal_Opcode@storeCNode@@EBEHXZ 08022db0 f i ad_i486_gen.obj
 0001:00021db0       ?store_Opcode@LoadSNode@@UBEHXZ 08022db0 f i ad_i486_gen.obj
 0001:00021dc0       ?rule@storeINode@@EBEIXZ   08022dc0 f i ad_i486_gen.obj
 0001:00021dd0       ?rule@storeLNode@@EBEIXZ   08022dd0 f i ad_i486_gen.obj
 0001:00021de0       ?rule@storeL_volatileNode@@EBEIXZ 08022de0 f i ad_i486_gen.obj
 0001:00021df0       ?rule@storePNode@@EBEIXZ   08022df0 f i ad_i486_gen.obj
 0001:00021e00       ?store_Opcode@LoadPNode@@UBEHXZ 08022e00 f i ad_i486_gen.obj
 0001:00021e00       ?ideal_Opcode@storeImmPNode@@EBEHXZ 08022e00 f i ad_i486_gen.obj
 0001:00021e00       ?ideal_Opcode@storePNode@@EBEHXZ 08022e00 f i ad_i486_gen.obj
 0001:00021e10       ?rule@storeImmINode@@EBEIXZ 08022e10 f i ad_i486_gen.obj
 0001:00021e20       ?rule@storeImmI16Node@@EBEIXZ 08022e20 f i ad_i486_gen.obj
 0001:00021e30       ?rule@storeImmPNode@@EBEIXZ 08022e30 f i ad_i486_gen.obj
 0001:00021e40       ?rule@storeImmBNode@@EBEIXZ 08022e40 f i ad_i486_gen.obj
 0001:00021e50       ?rule@storeImmCMNode@@EBEIXZ 08022e50 f i ad_i486_gen.obj
 0001:00021e60       ?ideal_Opcode@storeImmCMNode@@EBEHXZ 08022e60 f i ad_i486_gen.obj
 0001:00021e70       ?rule@storeDNode@@EBEIXZ   08022e70 f i ad_i486_gen.obj
 0001:00021e80       ?rule@storeD_roundedNode@@EBEIXZ 08022e80 f i ad_i486_gen.obj
 0001:00021e90       ?rule@storeXDNode@@EBEIXZ  08022e90 f i ad_i486_gen.obj
 0001:00021ea0       ?rule@storeXNode@@EBEIXZ   08022ea0 f i ad_i486_gen.obj
 0001:00021eb0       ?rule@storeFNode@@EBEIXZ   08022eb0 f i ad_i486_gen.obj
 0001:00021ec0       ?rule@storeF_roundedNode@@EBEIXZ 08022ec0 f i ad_i486_gen.obj
 0001:00021ed0       ?rule@storeF_DroundedNode@@EBEIXZ 08022ed0 f i ad_i486_gen.obj
 0001:00021ee0       ?rule@storeF_immNode@@EBEIXZ 08022ee0 f i ad_i486_gen.obj
 0001:00021ef0       ?ideal_Opcode@TLSNode@@EBEHXZ 08022ef0 f i ad_i486_gen.obj
 0001:00021ef0       ?rule@storeSSPNode@@EBEIXZ 08022ef0 f i ad_i486_gen.obj
 0001:00021f00       ?bottom_type@storeSSPNode@@UBEPBVType@@XZ 08022f00 f i ad_i486_gen.obj
 0001:00021f00       ?bottom_type@movPNode@@UBEPBVType@@XZ 08022f00 f i ad_i486_gen.obj
 0001:00021f10       ?rule@membar_acquireNode@@EBEIXZ 08022f10 f i ad_i486_gen.obj
 0001:00021f20       ?ideal_Opcode@membar_acquire_lockNode@@EBEHXZ 08022f20 f i ad_i486_gen.obj
 0001:00021f20       ?ideal_Opcode@membar_acquireNode@@EBEHXZ 08022f20 f i ad_i486_gen.obj
 0001:00021f30       ?rule@membar_acquire_lockNode@@EBEIXZ 08022f30 f i ad_i486_gen.obj
 0001:00021f40       ?rule@membar_releaseNode@@EBEIXZ 08022f40 f i ad_i486_gen.obj
 0001:00021f50       ?ideal_Opcode@membar_releaseNode@@EBEHXZ 08022f50 f i ad_i486_gen.obj
 0001:00021f50       ?ideal_Opcode@membar_release_lockNode@@EBEHXZ 08022f50 f i ad_i486_gen.obj
 0001:00021f60       ??0membar_release_lockNode@@QAE@XZ 08022f60 f i ad_i486_gen.obj
 0001:00021f80       ?rule@membar_release_lockNode@@EBEIXZ 08022f80 f i ad_i486_gen.obj
 0001:00021f90       ??0membar_volatileNode@@QAE@XZ 08022f90 f i ad_i486_gen.obj
 0001:00021fb0       ?rule@membar_volatileNode@@EBEIXZ 08022fb0 f i ad_i486_gen.obj
 0001:00021fc0       ?ideal_Opcode@membar_volatileNode@@EBEHXZ 08022fc0 f i ad_i486_gen.obj
 0001:00021fd0       ?bottom_type@MemBarNode@@UBEPBVType@@XZ 08022fd0 f i ad_i486_gen.obj
 0001:00021fd0       ?bottom_type@membar_release_lockNode@@UBEPBVType@@XZ 08022fd0 f i ad_i486_gen.obj
 0001:00021fd0       ?bottom_type@membar_acquireNode@@UBEPBVType@@XZ 08022fd0 f i ad_i486_gen.obj
 0001:00021fd0       ?bottom_type@membar_volatileNode@@UBEPBVType@@XZ 08022fd0 f i ad_i486_gen.obj
 0001:00021fd0       ?bottom_type@membar_acquire_lockNode@@UBEPBVType@@XZ 08022fd0 f i ad_i486_gen.obj
 0001:00021fd0       ?bottom_type@membar_releaseNode@@UBEPBVType@@XZ 08022fd0 f i ad_i486_gen.obj
 0001:00021fd0       ?bottom_type@membar_cpu_orderNode@@UBEPBVType@@XZ 08022fd0 f i ad_i486_gen.obj
 0001:00021fe0       ??0membar_cpu_orderNode@@QAE@XZ 08022fe0 f i ad_i486_gen.obj
 0001:00022000       ?rule@membar_cpu_orderNode@@EBEIXZ 08023000 f i ad_i486_gen.obj
 0001:00022010       ?ideal_Opcode@membar_cpu_orderNode@@EBEHXZ 08023010 f i ad_i486_gen.obj
 0001:00022020       ??0movINode@@QAE@XZ        08023020 f i ad_i486_gen.obj
 0001:00022040       ?rule@movINode@@EBEIXZ     08023040 f i ad_i486_gen.obj
 0001:00022050       ??0movPNode@@QAE@XZ        08023050 f i ad_i486_gen.obj
 0001:00022070       ?rule@movPNode@@EBEIXZ     08023070 f i ad_i486_gen.obj
 0001:00022080       ??0movLNode@@QAE@XZ        08023080 f i ad_i486_gen.obj
 0001:000220a0       ?rule@movLNode@@EBEIXZ     080230a0 f i ad_i486_gen.obj
 0001:000220b0       ??0movDNode@@QAE@XZ        080230b0 f i ad_i486_gen.obj
 0001:000220d0       ?rule@movDNode@@EBEIXZ     080230d0 f i ad_i486_gen.obj
 0001:000220e0       ??0movFNode@@QAE@XZ        080230e0 f i ad_i486_gen.obj
 0001:00022100       ?rule@movFNode@@EBEIXZ     08023100 f i ad_i486_gen.obj
 0001:00022110       ??0movXNode@@QAE@XZ        08023110 f i ad_i486_gen.obj
 0001:00022130       ?rule@movXNode@@EBEIXZ     08023130 f i ad_i486_gen.obj
 0001:00022140       ??0castL2PNode@@QAE@XZ     08023140 f i ad_i486_gen.obj
 0001:00022160       ?rule@castL2PNode@@EBEIXZ  08023160 f i ad_i486_gen.obj
 0001:00022170       ??0castP2LNode@@QAE@XZ     08023170 f i ad_i486_gen.obj
 0001:00022190       ?rule@castP2LNode@@EBEIXZ  08023190 f i ad_i486_gen.obj
 0001:000221a0       ??0castP2INode@@QAE@XZ     080231a0 f i ad_i486_gen.obj
 0001:000221c0       ?rule@castP2INode@@EBEIXZ  080231c0 f i ad_i486_gen.obj
 0001:000221d0       ??0cmovI_regNode@@QAE@XZ   080231d0 f i ad_i486_gen.obj
 0001:000221f0       ?rule@cmovI_regNode@@EBEIXZ 080231f0 f i ad_i486_gen.obj
 0001:00022200       ??0cmovI_regUNode@@QAE@XZ  08023200 f i ad_i486_gen.obj
 0001:00022220       ?rule@cmovI_regUNode@@EBEIXZ 08023220 f i ad_i486_gen.obj
 0001:00022230       ??0cmovI_memNode@@QAE@XZ   08023230 f i ad_i486_gen.obj
 0001:00022250       ??0cmovI_memuNode@@QAE@XZ  08023250 f i ad_i486_gen.obj
 0001:00022270       ??0cmovP_regNode@@QAE@XZ   08023270 f i ad_i486_gen.obj
 0001:00022290       ?rule@cmovP_regNode@@EBEIXZ 08023290 f i ad_i486_gen.obj
 0001:000222a0       ?bottom_type@cmovPP_reg_LEGTNode@@UBEPBVType@@XZ 080232a0 f i ad_i486_gen.obj
 0001:000222a0       ?bottom_type@cmovP_reg_nonP6Node@@UBEPBVType@@XZ 080232a0 f i ad_i486_gen.obj
 0001:000222a0       ?bottom_type@cmovP_regUNode@@UBEPBVType@@XZ 080232a0 f i ad_i486_gen.obj
 0001:000222a0       ?bottom_type@cmovPP_reg_LTGENode@@UBEPBVType@@XZ 080232a0 f i ad_i486_gen.obj
 0001:000222a0       ?bottom_type@cmovPP_reg_EQNENode@@UBEPBVType@@XZ 080232a0 f i ad_i486_gen.obj
 0001:000222a0       ?bottom_type@cmovP_regNode@@UBEPBVType@@XZ 080232a0 f i ad_i486_gen.obj
 0001:00022310       ??0cmovP_reg_nonP6Node@@QAE@XZ 08023310 f i ad_i486_gen.obj
 0001:00022330       ?rule@cmovP_reg_nonP6Node@@EBEIXZ 08023330 f i ad_i486_gen.obj
 0001:00022340       ??0cmovP_regUNode@@QAE@XZ  08023340 f i ad_i486_gen.obj
 0001:00022360       ?rule@cmovP_regUNode@@EBEIXZ 08023360 f i ad_i486_gen.obj
 0001:00022370       ??0fcmovD_regUNode@@QAE@XZ 08023370 f i ad_i486_gen.obj
 0001:00022390       ?rule@fcmovD_regUNode@@EBEIXZ 08023390 f i ad_i486_gen.obj
 0001:000223a0       ??0fcmovF_regUNode@@QAE@XZ 080233a0 f i ad_i486_gen.obj
 0001:000223c0       ?rule@fcmovF_regUNode@@EBEIXZ 080233c0 f i ad_i486_gen.obj
 0001:000223d0       ??0fcmovD_regSNode@@QAE@XZ 080233d0 f i ad_i486_gen.obj
 0001:000223f0       ??0fcmovF_regSNode@@QAE@XZ 080233f0 f i ad_i486_gen.obj
 0001:00022410       ??0fcmovX_regSNode@@QAE@XZ 08023410 f i ad_i486_gen.obj
 0001:00022430       ??0fcmovXD_regSNode@@QAE@XZ 08023430 f i ad_i486_gen.obj
 0001:00022450       ??0fcmovX_regUNode@@QAE@XZ 08023450 f i ad_i486_gen.obj
 0001:00022470       ?rule@fcmovX_regUNode@@EBEIXZ 08023470 f i ad_i486_gen.obj
 0001:00022480       ??0fcmovXD_regUNode@@QAE@XZ 08023480 f i ad_i486_gen.obj
 0001:000224a0       ?rule@fcmovXD_regUNode@@EBEIXZ 080234a0 f i ad_i486_gen.obj
 0001:000224b0       ??0cmovL_regNode@@QAE@XZ   080234b0 f i ad_i486_gen.obj
 0001:000224d0       ?rule@cmovL_regNode@@EBEIXZ 080234d0 f i ad_i486_gen.obj
 0001:000224e0       ??0cmovL_regUNode@@QAE@XZ  080234e0 f i ad_i486_gen.obj
 0001:00022500       ?rule@cmovL_regUNode@@EBEIXZ 08023500 f i ad_i486_gen.obj
 0001:00022510       ??0addI_eRegNode@@QAE@XZ   08023510 f i ad_i486_gen.obj
 0001:00022530       ?rule@addI_eRegNode@@EBEIXZ 08023530 f i ad_i486_gen.obj
 0001:00022540       ??0addI_eReg_immNode@@QAE@XZ 08023540 f i ad_i486_gen.obj
 0001:00022560       ?rule@addI_eReg_immNode@@EBEIXZ 08023560 f i ad_i486_gen.obj
 0001:00022570       ??0incI_eRegNode@@QAE@XZ   08023570 f i ad_i486_gen.obj
 0001:00022590       ?rule@incI_eRegNode@@EBEIXZ 08023590 f i ad_i486_gen.obj
 0001:000225a0       ??0leaI_eReg_immINode@@QAE@XZ 080235a0 f i ad_i486_gen.obj
 0001:000225c0       ?rule@leaI_eReg_immINode@@EBEIXZ 080235c0 f i ad_i486_gen.obj
 0001:000225d0       ??0leaP_eReg_immINode@@QAE@XZ 080235d0 f i ad_i486_gen.obj
 0001:000225f0       ?rule@leaP_eReg_immINode@@EBEIXZ 080235f0 f i ad_i486_gen.obj
 0001:00022600       ??0decI_eRegNode@@QAE@XZ   08023600 f i ad_i486_gen.obj
 0001:00022620       ?rule@decI_eRegNode@@EBEIXZ 08023620 f i ad_i486_gen.obj
 0001:00022630       ??0addP_eRegNode@@QAE@XZ   08023630 f i ad_i486_gen.obj
 0001:00022650       ?rule@addP_eRegNode@@EBEIXZ 08023650 f i ad_i486_gen.obj
 0001:00022660       ??0addP_eReg_immNode@@QAE@XZ 08023660 f i ad_i486_gen.obj
 0001:00022680       ?rule@addP_eReg_immNode@@EBEIXZ 08023680 f i ad_i486_gen.obj
 0001:00022690       ?ideal_Opcode@leaPIdxOffNode@@EBEHXZ 08023690 f i ad_i486_gen.obj
 0001:00022690       ?ideal_Opcode@addP_eRegNode@@EBEHXZ 08023690 f i ad_i486_gen.obj
 0001:00022690       ?opcode@immI16Oper@@UBEIXZ 08023690 f i ad_i486_gen.obj
 0001:00022690       ?ideal_Opcode@leaP_eReg_immINode@@EBEHXZ 08023690 f i ad_i486_gen.obj
 0001:00022690       ?ideal_Opcode@addP_eReg_immNode@@EBEHXZ 08023690 f i ad_i486_gen.obj
 0001:00022690       ?ideal_Opcode@leaPIdxScaleOffNode@@EBEHXZ 08023690 f i ad_i486_gen.obj
 0001:00022690       ?ideal_Opcode@leaP8Node@@EBEHXZ 08023690 f i ad_i486_gen.obj
 0001:00022690       ?ideal_Opcode@subP_eRegNode@@EBEHXZ 08023690 f i ad_i486_gen.obj
 0001:00022690       ?ideal_Opcode@leaPIdxScaleNode@@EBEHXZ 08023690 f i ad_i486_gen.obj
 0001:00022690       ?ideal_Opcode@leaP32Node@@EBEHXZ 08023690 f i ad_i486_gen.obj
 0001:000226a0       ?size_of@subL_eReg_immNode@@UBEIXZ 080236a0 f i ad_i486_gen.obj
 0001:000226a0       ?size_of@mulL_eRegNode@@UBEIXZ 080236a0 f i ad_i486_gen.obj
 0001:000226a0       ?size_of@loadUBNode@@UBEIXZ 080236a0 f i ad_i486_gen.obj
 0001:000226a0       ?size_of@compI_eReg_immNode@@UBEIXZ 080236a0 f i ad_i486_gen.obj
 0001:000226a0       ?size_of@ci2bNode@@UBEIXZ  080236a0 f i ad_i486_gen.obj
 0001:000226a0       ?size_of@addD_reg_memNode@@UBEIXZ 080236a0 f i ad_i486_gen.obj
 0001:000226a0       ?size_of@subL_eReg_memNode@@UBEIXZ 080236a0 f i ad_i486_gen.obj
 0001:000226a0       ?size_of@partialSubtypeCheckNode@@UBEIXZ 080236a0 f i ad_i486_gen.obj
 0001:000226a0       ?size_of@testP_regNode@@UBEIXZ 080236a0 f i ad_i486_gen.obj
 0001:000226a0       ?size_of@sarL_eReg_CLNode@@UBEIXZ 080236a0 f i ad_i486_gen.obj
 0001:000226a0       ?size_of@subI_eReg_memNode@@UBEIXZ 080236a0 f i ad_i486_gen.obj
 0001:000226a0       ?size_of@mulD_reg_memNode@@UBEIXZ 080236a0 f i ad_i486_gen.obj
 0001:000226a0       ?size_of@addF24_mem_ciscNode@@UBEIXZ 080236a0 f i ad_i486_gen.obj
 0001:000226a0       ?size_of@shlL_eReg_32_63Node@@UBEIXZ 080236a0 f i ad_i486_gen.obj
 0001:000226a0       ?size_of@convI2L_reg_zexNode@@UBEIXZ 080236a0 f i ad_i486_gen.obj
 0001:000226a0       ?size_of@addX_memNode@@UBEIXZ 080236a0 f i ad_i486_gen.obj
 0001:000226a0       ?size_of@cmpXD_regmemNode@@UBEIXZ 080236a0 f i ad_i486_gen.obj
 0001:000226a0       ?size_of@testU_regNode@@UBEIXZ 080236a0 f i ad_i486_gen.obj
 0001:000226a0       ?size_of@mulF24_mem_memNode@@UBEIXZ 080236a0 f i ad_i486_gen.obj
 0001:000226a0       ?size_of@salI_eReg_CLNode@@UBEIXZ 080236a0 f i ad_i486_gen.obj
 0001:000226a0       ?size_of@divF_regNode@@UBEIXZ 080236a0 f i ad_i486_gen.obj
 0001:000226a0       ?size_of@cmpF_cc_P6Node@@UBEIXZ 080236a0 f i ad_i486_gen.obj
 0001:000226a0       ?size_of@mulF_reg_memNode@@UBEIXZ 080236a0 f i ad_i486_gen.obj
 0001:000226a0       ?size_of@subF_regNode@@UBEIXZ 080236a0 f i ad_i486_gen.obj
 0001:000226a0       ?size_of@mulXD_immNode@@UBEIXZ 080236a0 f i ad_i486_gen.obj
 0001:000226a0       ?size_of@sarI_eReg_1Node@@UBEIXZ 080236a0 f i ad_i486_gen.obj
 0001:000226a0       ?size_of@mulX_immNode@@UBEIXZ 080236a0 f i ad_i486_gen.obj
 0001:000226a0       ?size_of@compU_eReg_memNode@@UBEIXZ 080236a0 f i ad_i486_gen.obj
 0001:000226a0       ?size_of@orl_eReg_immNode@@UBEIXZ 080236a0 f i ad_i486_gen.obj
 0001:000226a0       ?size_of@leaP_eReg_immINode@@UBEIXZ 080236a0 f i ad_i486_gen.obj
 0001:000226a0       ?size_of@modXD_regNode@@UBEIXZ 080236a0 f i ad_i486_gen.obj
 0001:000226a0       ?size_of@rep_stosNode@@UBEIXZ 080236a0 f i ad_i486_gen.obj
 0001:000226a0       ?size_of@xorl_eReg_immNode@@UBEIXZ 080236a0 f i ad_i486_gen.obj
 0001:000226a0       ?size_of@powD_regNode@@UBEIXZ 080236a0 f i ad_i486_gen.obj
 0001:000226a0       ?size_of@cmpFastLockNode@@UBEIXZ 080236a0 f i ad_i486_gen.obj
 0001:000226a0       ?size_of@compI_eReg_memNode@@UBEIXZ 080236a0 f i ad_i486_gen.obj
 0001:000226a0       ?size_of@shrL_eReg_32_63Node@@UBEIXZ 080236a0 f i ad_i486_gen.obj
 0001:000226a0       ?size_of@divL_eRegNode@@UBEIXZ 080236a0 f i ad_i486_gen.obj
 0001:000226a0       ?size_of@RethrowExceptionNode@@UBEIXZ 080236a0 f i ad_i486_gen.obj
 0001:000226a0       ?size_of@addXD_memNode@@UBEIXZ 080236a0 f i ad_i486_gen.obj
 0001:000226a0       ?size_of@cmpD_ccNode@@UBEIXZ 080236a0 f i ad_i486_gen.obj
 0001:000226a0       ?size_of@addX_immNode@@UBEIXZ 080236a0 f i ad_i486_gen.obj
 0001:000226a0       ?size_of@divXD_immNode@@UBEIXZ 080236a0 f i ad_i486_gen.obj
 0001:000226a0       ?size_of@cmpL3_reg_regNode@@UBEIXZ 080236a0 f i ad_i486_gen.obj
 0001:000226a0       ?size_of@cmpXD_ccmemNode@@UBEIXZ 080236a0 f i ad_i486_gen.obj
 0001:000226a0       ?size_of@ShouldNotReachHereNode@@UBEIXZ 080236a0 f i ad_i486_gen.obj
 0001:000226a0       ?size_of@addD_reg_immNode@@UBEIXZ 080236a0 f i ad_i486_gen.obj
 0001:000226a0       ?size_of@addI_eReg_memNode@@UBEIXZ 080236a0 f i ad_i486_gen.obj
 0001:000226a0       ?size_of@compP_eReg_immNode@@UBEIXZ 080236a0 f i ad_i486_gen.obj
 0001:000226a0       ?size_of@sarI_eReg_immNode@@UBEIXZ 080236a0 f i ad_i486_gen.obj
 0001:000226a0       ?size_of@andL_eReg_immNode@@UBEIXZ 080236a0 f i ad_i486_gen.obj
 0001:000226a0       ?size_of@divX_immNode@@UBEIXZ 080236a0 f i ad_i486_gen.obj
 0001:000226a0       ?size_of@string_compareNode@@UBEIXZ 080236a0 f i ad_i486_gen.obj
 0001:000226a0       ?size_of@cmpD_regNode@@UBEIXZ 080236a0 f i ad_i486_gen.obj
 0001:000226a0       ?size_of@salL_eReg_CLNode@@UBEIXZ 080236a0 f i ad_i486_gen.obj
 0001:000226a0       ?size_of@shrI_eReg_CLNode@@UBEIXZ 080236a0 f i ad_i486_gen.obj
 0001:000226a0       ?size_of@addP_eReg_immNode@@UBEIXZ 080236a0 f i ad_i486_gen.obj
 0001:000226a0       ?size_of@addF24_reg_immNode@@UBEIXZ 080236a0 f i ad_i486_gen.obj
 0001:000226a0       ?size_of@mulF_reg_immNode@@UBEIXZ 080236a0 f i ad_i486_gen.obj
 0001:000226a0       ?size_of@negI_eRegNode@@UBEIXZ 080236a0 f i ad_i486_gen.obj
 0001:000226a0       ?size_of@shrI_eReg_1Node@@UBEIXZ 080236a0 f i ad_i486_gen.obj
 0001:000226a0       ?ideal_Opcode@cmpF_cc_P6Node@@EBEHXZ 080236a0 f i ad_i486_gen.obj
 0001:000226a0       ?size_of@atanD_regNode@@UBEIXZ 080236a0 f i ad_i486_gen.obj
 0001:000226a0       ?size_of@xorI_eReg_immNode@@UBEIXZ 080236a0 f i ad_i486_gen.obj
 0001:000226a0       ?size_of@loadKlassNode@@UBEIXZ 080236a0 f i ad_i486_gen.obj
 0001:000226a0       ?size_of@storeSSLNode@@UBEIXZ 080236a0 f i ad_i486_gen.obj
 0001:000226a0       ?size_of@testP_Reg_memNode@@UBEIXZ 080236a0 f i ad_i486_gen.obj
 0001:000226a0       ?size_of@cp2bNode@@UBEIXZ  080236a0 f i ad_i486_gen.obj
 0001:000226a0       ?size_of@xorI_eReg_memNode@@UBEIXZ 080236a0 f i ad_i486_gen.obj
 0001:000226a0       ?size_of@decI_eRegNode@@UBEIXZ 080236a0 f i ad_i486_gen.obj
 0001:000226a0       ?size_of@subX_memNode@@UBEIXZ 080236a0 f i ad_i486_gen.obj
 0001:000226a0       ?size_of@strictfp_mulD_regNode@@UBEIXZ 080236a0 f i ad_i486_gen.obj
 0001:000226a0       ?size_of@shlI_eReg_1Node@@UBEIXZ 080236a0 f i ad_i486_gen.obj
 0001:000226a0       ?size_of@divD_regNode@@UBEIXZ 080236a0 f i ad_i486_gen.obj
 0001:000226a0       ?size_of@cmpL_zero_flags_EQNENode@@UBEIXZ 080236a0 f i ad_i486_gen.obj
 0001:000226a0       ?size_of@mulF24_reg_immNode@@UBEIXZ 080236a0 f i ad_i486_gen.obj
 0001:000226a0       ?size_of@divX_memNode@@UBEIXZ 080236a0 f i ad_i486_gen.obj
 0001:000226a0       ?size_of@cmpL_zero_flags_LTGENode@@UBEIXZ 080236a0 f i ad_i486_gen.obj
 0001:000226a0       ?size_of@cmpF_0Node@@UBEIXZ 080236a0 f i ad_i486_gen.obj
 0001:000226a0       ?size_of@modI_eRegNode@@UBEIXZ 080236a0 f i ad_i486_gen.obj
 0001:000226a0       ?size_of@sarI_eReg_CLNode@@UBEIXZ 080236a0 f i ad_i486_gen.obj
 0001:000226a0       ?size_of@addL_eReg_memNode@@UBEIXZ 080236a0 f i ad_i486_gen.obj
 0001:000226a0       ?size_of@castL2PNode@@UBEIXZ 080236a0 f i ad_i486_gen.obj
 0001:000226a0       ?size_of@mulX_memNode@@UBEIXZ 080236a0 f i ad_i486_gen.obj
 0001:000226a0       ?size_of@castPPNode@@UBEIXZ 080236a0 f i ad_i486_gen.obj
 0001:000226a0       ?size_of@addF_reg_memNode@@UBEIXZ 080236a0 f i ad_i486_gen.obj
 0001:000226a0       ?size_of@modF_regNode@@UBEIXZ 080236a0 f i ad_i486_gen.obj
 0001:000226a0       ?size_of@orI_eReg_memNode@@UBEIXZ 080236a0 f i ad_i486_gen.obj
 0001:000226a0       ?size_of@divXD_memNode@@UBEIXZ 080236a0 f i ad_i486_gen.obj
 0001:000226a0       ?size_of@subXD_memNode@@UBEIXZ 080236a0 f i ad_i486_gen.obj
 0001:000226a0       ?size_of@addL_eReg_immNode@@UBEIXZ 080236a0 f i ad_i486_gen.obj
 0001:000226a0       ?size_of@mulINode@@UBEIXZ  080236a0 f i ad_i486_gen.obj
 0001:000226a0       ?size_of@zerox_longNode@@UBEIXZ 080236a0 f i ad_i486_gen.obj
 0001:000226a0       ?size_of@orI_eReg_immNode@@UBEIXZ 080236a0 f i ad_i486_gen.obj
 0001:000226a0       ?size_of@addF24_mem_memNode@@UBEIXZ 080236a0 f i ad_i486_gen.obj
 0001:000226a0       ?size_of@mulI_mem_immNode@@UBEIXZ 080236a0 f i ad_i486_gen.obj
 0001:000226a0       ?size_of@loadPLockedNode@@UBEIXZ 080236a0 f i ad_i486_gen.obj
 0001:000226a0       ?size_of@mulD_regNode@@UBEIXZ 080236a0 f i ad_i486_gen.obj
 0001:000226a0       ?size_of@cmpLTMask0Node@@UBEIXZ 080236a0 f i ad_i486_gen.obj
 0001:000226a0       ?size_of@cmpL_reg_flags_LTGENode@@UBEIXZ 080236a0 f i ad_i486_gen.obj
 0001:000226a0       ?size_of@shrI_eReg_immNode@@UBEIXZ 080236a0 f i ad_i486_gen.obj
 0001:000226a0       ?size_of@addF_reg_immNode@@UBEIXZ 080236a0 f i ad_i486_gen.obj
 0001:000226a0       ?size_of@mulF24_reg_memNode@@UBEIXZ 080236a0 f i ad_i486_gen.obj
 0001:000226a0       ?size_of@checkCastPPNode@@UBEIXZ 080236a0 f i ad_i486_gen.obj
 0001:000226a0       ?ideal_Opcode@cmpX_ccNode@@EBEHXZ 080236a0 f i ad_i486_gen.obj
 0001:000226a0       ?size_of@modD_regNode@@UBEIXZ 080236a0 f i ad_i486_gen.obj
 0001:000226a0       ?size_of@cmpX_ccmemNode@@UBEIXZ 080236a0 f i ad_i486_gen.obj
 0001:000226a0       ?size_of@maxI_eRegNode@@UBEIXZ 080236a0 f i ad_i486_gen.obj
 0001:000226a0       ?size_of@subD_reg_roundNode@@UBEIXZ 080236a0 f i ad_i486_gen.obj
 0001:000226a0       ?size_of@RetNode@@UBEIXZ   080236a0 f i ad_i486_gen.obj
 0001:000226a0       ?size_of@convI2XD_regNode@@UBEIXZ 080236a0 f i ad_i486_gen.obj
 0001:000226a0       ?size_of@cmpL_reg_flags_EQNENode@@UBEIXZ 080236a0 f i ad_i486_gen.obj
 0001:000226a0       ?size_of@addD_reg_roundNode@@UBEIXZ 080236a0 f i ad_i486_gen.obj
 0001:000226a0       ?size_of@cmpD_cc_P6Node@@UBEIXZ 080236a0 f i ad_i486_gen.obj
 0001:000226a0       ?size_of@MachSpillCopyNode@@UBEIXZ 080236a0 f i ad_i486_gen.obj
 0001:000226a0       ?size_of@addI_eReg_immNode@@UBEIXZ 080236a0 f i ad_i486_gen.obj
 0001:000226a0       ?size_of@addXD_immNode@@UBEIXZ 080236a0 f i ad_i486_gen.obj
 0001:000226a0       ?size_of@cmpLTMaskNode@@UBEIXZ 080236a0 f i ad_i486_gen.obj
 0001:000226a0       ?size_of@sqrtXD_regNode@@UBEIXZ 080236a0 f i ad_i486_gen.obj
 0001:000226a0       ?size_of@andI_eReg_immNode@@UBEIXZ 080236a0 f i ad_i486_gen.obj
 0001:000226a0       ?ideal_Opcode@cmpF_ccNode@@EBEHXZ 080236a0 f i ad_i486_gen.obj
 0001:000226a0       ?size_of@incI_eRegNode@@UBEIXZ 080236a0 f i ad_i486_gen.obj
 0001:000226a0       ?size_of@shrL_eReg_CLNode@@UBEIXZ 080236a0 f i ad_i486_gen.obj
 0001:000226a0       ?size_of@subX_immNode@@UBEIXZ 080236a0 f i ad_i486_gen.obj
 0001:000226a0       ?size_of@strictfp_divD_regNode@@UBEIXZ 080236a0 f i ad_i486_gen.obj
 0001:000226a0       ?size_of@mulD_reg_immNode@@UBEIXZ 080236a0 f i ad_i486_gen.obj
 0001:000226a0       ?size_of@testI_regNode@@UBEIXZ 080236a0 f i ad_i486_gen.obj
 0001:000226a0       ?size_of@addD_reg_imm_roundNode@@UBEIXZ 080236a0 f i ad_i486_gen.obj
 0001:000226a0       ?size_of@mulL_eReg_conNode@@UBEIXZ 080236a0 f i ad_i486_gen.obj
 0001:000226a0       ?size_of@compU_eReg_immNode@@UBEIXZ 080236a0 f i ad_i486_gen.obj
 0001:000226a0       ?size_of@cmpD_0Node@@UBEIXZ 080236a0 f i ad_i486_gen.obj
 0001:000226a0       ?size_of@cmpF_ccNode@@UBEIXZ 080236a0 f i ad_i486_gen.obj
 0001:000226a0       ?size_of@modF24_regNode@@UBEIXZ 080236a0 f i ad_i486_gen.obj
 0001:000226a0       ?size_of@shrL_eReg_1_31Node@@UBEIXZ 080236a0 f i ad_i486_gen.obj
 0001:000226a0       ?size_of@salI_eReg_immNode@@UBEIXZ 080236a0 f i ad_i486_gen.obj
 0001:000226a0       ?size_of@subI_eReg_immNode@@UBEIXZ 080236a0 f i ad_i486_gen.obj
 0001:000226a0       ?size_of@addP_eRegNode@@UBEIXZ 080236a0 f i ad_i486_gen.obj
 0001:000226a0       ?size_of@cmpL_reg_flags_LEGTNode@@UBEIXZ 080236a0 f i ad_i486_gen.obj
 0001:000226a0       ?size_of@xorl_eReg_memNode@@UBEIXZ 080236a0 f i ad_i486_gen.obj
 0001:000226a0       ?size_of@atanXD_regNode@@UBEIXZ 080236a0 f i ad_i486_gen.obj
 0001:000226a0       ?size_of@sarL_eReg_32_63Node@@UBEIXZ 080236a0 f i ad_i486_gen.obj
 0001:000226a0       ?size_of@mulXD_memNode@@UBEIXZ 080236a0 f i ad_i486_gen.obj
 0001:000226a0       ?size_of@divF24_regNode@@UBEIXZ 080236a0 f i ad_i486_gen.obj
 0001:000226a0       ?size_of@orl_eReg_memNode@@UBEIXZ 080236a0 f i ad_i486_gen.obj
 0001:000226a0       ?size_of@andL_eReg_memNode@@UBEIXZ 080236a0 f i ad_i486_gen.obj
 0001:000226a0       ?size_of@partialSubtypeCheck_vs_ZeroNode@@UBEIXZ 080236a0 f i ad_i486_gen.obj
 0001:000226a0       ?size_of@subXD_immNode@@UBEIXZ 080236a0 f i ad_i486_gen.obj
 0001:000226a0       ?size_of@cmpF_regNode@@UBEIXZ 080236a0 f i ad_i486_gen.obj
 0001:000226a0       ?size_of@cmpL_zero_flags_LEGTNode@@UBEIXZ 080236a0 f i ad_i486_gen.obj
 0001:000226a0       ?size_of@addD_reg_imm1Node@@UBEIXZ 080236a0 f i ad_i486_gen.obj
 0001:000226a0       ?size_of@mulF_reg_load1Node@@UBEIXZ 080236a0 f i ad_i486_gen.obj
 0001:000226a0       ?size_of@andI_eReg_memNode@@UBEIXZ 080236a0 f i ad_i486_gen.obj
 0001:000226a0       ?size_of@modX_regNode@@UBEIXZ 080236a0 f i ad_i486_gen.obj
 0001:000226a0       ?size_of@divD_reg_roundNode@@UBEIXZ 080236a0 f i ad_i486_gen.obj
 0001:000226a0       ?size_of@minI_eRegNode@@UBEIXZ 080236a0 f i ad_i486_gen.obj
 0001:000226a0       ?size_of@shlL_eReg_1_31Node@@UBEIXZ 080236a0 f i ad_i486_gen.obj
 0001:000226a0       ?size_of@compP_mem_eRegNode@@UBEIXZ 080236a0 f i ad_i486_gen.obj
 0001:000226a0       ?size_of@subD_reg_memNode@@UBEIXZ 080236a0 f i ad_i486_gen.obj
 0001:000226a0       ?size_of@negL_eRegNode@@UBEIXZ 080236a0 f i ad_i486_gen.obj
 0001:000226a0       ?size_of@loadPNode@@UBEIXZ 080236a0 f i ad_i486_gen.obj
 0001:000226a0       ?size_of@modL_eRegNode@@UBEIXZ 080236a0 f i ad_i486_gen.obj
 0001:000226a0       ?ideal_Opcode@cmpX_ccmemNode@@EBEHXZ 080236a0 f i ad_i486_gen.obj
 0001:000226a0       ?size_of@compP_eReg_memNode@@UBEIXZ 080236a0 f i ad_i486_gen.obj
 0001:000226a0       ?size_of@cmpX_regmemNode@@UBEIXZ 080236a0 f i ad_i486_gen.obj
 0001:000226a0       ?size_of@cmpFastUnlockNode@@UBEIXZ 080236a0 f i ad_i486_gen.obj
 0001:000226a0       ?size_of@mulD_reg_mem_ciscNode@@UBEIXZ 080236a0 f i ad_i486_gen.obj
 0001:000226a0       ?size_of@divI_eRegNode@@UBEIXZ 080236a0 f i ad_i486_gen.obj
 0001:000226a0       ?size_of@subF24_regNode@@UBEIXZ 080236a0 f i ad_i486_gen.obj
 0001:000226a0       ?size_of@leaI_eReg_immINode@@UBEIXZ 080236a0 f i ad_i486_gen.obj
 0001:000226a0       ?opcode@nadxRegIOper@@UBEIXZ 080236a0 f i ad_i486_gen.obj
 0001:000226a0       ?size_of@sarL_eReg_1_31Node@@UBEIXZ 080236a0 f i ad_i486_gen.obj
 0001:000226b0       ??0addI_eReg_memNode@@QAE@XZ 080236b0 f i ad_i486_gen.obj
 0001:000226d0       ??0addI_mem_eRegNode@@QAE@XZ 080236d0 f i ad_i486_gen.obj
 0001:000226f0       ?num_opnds@testI_reg_memNode@@EBEIXZ 080236f0 f i ad_i486_gen.obj
 0001:000226f0       ?ideal_reg@RoundFloatNode@@UBEIXZ 080236f0 f i ad_i486_gen.obj
 0001:000226f0       ?ideal_reg@AbsFNode@@UBEIXZ 080236f0 f i ad_i486_gen.obj
 0001:000226f0       ?cisc_operand@cmovLL_reg_EQNENode@@EBEHXZ 080236f0 f i ad_i486_gen.obj
 0001:000226f0       ?num_opnds@cmpL_LEGTNode@@EBEIXZ 080236f0 f i ad_i486_gen.obj
 0001:000226f0       ?minimum_free_block_size@CompactibleFreeListSpace@@UBEIXZ 080236f0 f i ad_i486_gen.obj
 0001:000226f0       ?num_opnds@storePConditionalNode@@EBEIXZ 080236f0 f i ad_i486_gen.obj
 0001:000226f0       ?cisc_operand@cmovII_reg_LTGENode@@EBEHXZ 080236f0 f i ad_i486_gen.obj
 0001:000226f0       ?num_opnds@jmpConU_shortNode@@EBEIXZ 080236f0 f i ad_i486_gen.obj
 0001:000226f0       ?num_opnds@sarI_mem_immNode@@EBEIXZ 080236f0 f i ad_i486_gen.obj
 0001:000226f0       ?num_opnds@mulI_imm_highNode@@EBEIXZ 080236f0 f i ad_i486_gen.obj
 0001:000226f0       ?num_opnds@addF_mulF_reg_load1Node@@EBEIXZ 080236f0 f i ad_i486_gen.obj
 0001:000226f0       ?num_opnds@addD_mem_regNode@@EBEIXZ 080236f0 f i ad_i486_gen.obj
 0001:000226f0       ?ideal_reg@ConvI2FNode@@UBEIXZ 080236f0 f i ad_i486_gen.obj
 0001:000226f0       ?cisc_operand@cmovI_regUNode@@EBEHXZ 080236f0 f i ad_i486_gen.obj
 0001:000226f0       ?equal@cmpOp_commuteOper@@UBEHXZ 080236f0 f i ad_i486_gen.obj
 0001:000226f0       ?equal@cmpOpUOper@@UBEHXZ  080236f0 f i ad_i486_gen.obj
 0001:000226f0       ?num_opnds@orI_mem_immNode@@EBEIXZ 080236f0 f i ad_i486_gen.obj
 0001:000226f0       ?num_opnds@decI_memNode@@EBEIXZ 080236f0 f i ad_i486_gen.obj
 0001:000226f0       ?alignment_required@CallDynamicJavaDirectNode@@EBEHXZ 080236f0 f i ad_i486_gen.obj
 0001:000226f0       ?num_opnds@andI_mem_immNode@@EBEIXZ 080236f0 f i ad_i486_gen.obj
 0001:000226f0       ?num_opnds@subI_mem_eRegNode@@EBEIXZ 080236f0 f i ad_i486_gen.obj
 0001:000226f0       ?ideal_reg@AddFNode@@UBEIXZ 080236f0 f i ad_i486_gen.obj
 0001:000226f0       ?ideal_reg@LoadFNode@@UBEIXZ 080236f0 f i ad_i486_gen.obj
 0001:000226f0       ?kind@ConcurrentMarkSweepGeneration@@UAE?AW4Name@Generation@@XZ 080236f0 f i ad_i486_gen.obj
 0001:000226f0       ?num_opnds@cmpL_EQNENode@@EBEIXZ 080236f0 f i ad_i486_gen.obj
 0001:000226f0       ?num_opnds@i2bNode@@EBEIXZ 080236f0 f i ad_i486_gen.obj
 0001:000226f0       ?cisc_operand@cmovLL_reg_LEGTNode@@EBEHXZ 080236f0 f i ad_i486_gen.obj
 0001:000226f0       ?num_opnds@jmpLoopEnd_shortNode@@EBEIXZ 080236f0 f i ad_i486_gen.obj
 0001:000226f0       ?num_opnds@testI_reg_immNode@@EBEIXZ 080236f0 f i ad_i486_gen.obj
 0001:000226f0       ?num_opnds@orI_mem_eRegNode@@EBEIXZ 080236f0 f i ad_i486_gen.obj
 0001:000226f0       ?num_opnds@jmpCon_shortNode@@EBEIXZ 080236f0 f i ad_i486_gen.obj
 0001:000226f0       ?num_opnds@addI_mem_immNode@@EBEIXZ 080236f0 f i ad_i486_gen.obj
 0001:000226f0       ?num_opnds@cmpL_LTGENode@@EBEIXZ 080236f0 f i ad_i486_gen.obj
 0001:000226f0       ?ideal_reg@DivFNode@@UBEIXZ 080236f0 f i ad_i486_gen.obj
 0001:000226f0       ?alignment_required@CallStaticJavaDirectNode@@EBEHXZ 080236f0 f i ad_i486_gen.obj
 0001:000226f0       ?num_opnds@addF_mulF_regNode@@EBEIXZ 080236f0 f i ad_i486_gen.obj
 0001:000226f0       ?num_opnds@jmpConNode@@EBEIXZ 080236f0 f i ad_i486_gen.obj
 0001:000226f0       ?ideal_reg@SubFNode@@UBEIXZ 080236f0 f i ad_i486_gen.obj
 0001:000226f0       ?num_opnds@incI_memNode@@EBEIXZ 080236f0 f i ad_i486_gen.obj
 0001:000226f0       ?cisc_operand@cmovII_reg_LEGTNode@@EBEHXZ 080236f0 f i ad_i486_gen.obj
 0001:000226f0       ?num_opnds@andI_mem_eRegNode@@EBEIXZ 080236f0 f i ad_i486_gen.obj
 0001:000226f0       ?num_opnds@addI_mem_eRegNode@@EBEIXZ 080236f0 f i ad_i486_gen.obj
 0001:000226f0       ?cisc_operand@cmovI_regNode@@EBEHXZ 080236f0 f i ad_i486_gen.obj
 0001:000226f0       ?cisc_operand@cmovII_reg_EQNENode@@EBEHXZ 080236f0 f i ad_i486_gen.obj
 0001:000226f0       ?num_opnds@subP_eRegNode@@EBEIXZ 080236f0 f i ad_i486_gen.obj
 0001:000226f0       ?alignment_required@CallInterpreterDirectNode@@EBEHXZ 080236f0 f i ad_i486_gen.obj
 0001:000226f0       ?ideal_reg@NegFNode@@UBEIXZ 080236f0 f i ad_i486_gen.obj
 0001:000226f0       ?num_opnds@storeLConditionalNode@@EBEIXZ 080236f0 f i ad_i486_gen.obj
 0001:000226f0       ?num_opnds@jmpLoopEndNode@@EBEIXZ 080236f0 f i ad_i486_gen.obj
 0001:000226f0       ?ideal_reg@MulFNode@@UBEIXZ 080236f0 f i ad_i486_gen.obj
 0001:000226f0       ?num_opnds@subF_divF_regNode@@EBEIXZ 080236f0 f i ad_i486_gen.obj
 0001:000226f0       ?num_opnds@addD_mulD_regNode@@EBEIXZ 080236f0 f i ad_i486_gen.obj
 0001:000226f0       ?ideal_reg@ConvD2FNode@@UBEIXZ 080236f0 f i ad_i486_gen.obj
 0001:000226f0       ?num_opnds@jmpConUNode@@EBEIXZ 080236f0 f i ad_i486_gen.obj
 0001:000226f0       ?opcode@sRegFOper@@UBEIXZ  080236f0 f i ad_i486_gen.obj
 0001:000226f0       ?num_opnds@xorI_mem_eRegNode@@EBEIXZ 080236f0 f i ad_i486_gen.obj
 0001:000226f0       ?num_opnds@xorI_mem_immNode@@EBEIXZ 080236f0 f i ad_i486_gen.obj
 0001:000226f0       ?num_opnds@sarI_mem_1Node@@EBEIXZ 080236f0 f i ad_i486_gen.obj
 0001:000226f0       ?cisc_operand@cmovLL_reg_LTGENode@@EBEHXZ 080236f0 f i ad_i486_gen.obj
 0001:000226f0       ?num_opnds@subD_mulD_regNode@@EBEIXZ 080236f0 f i ad_i486_gen.obj
 0001:000226f0       ?num_opnds@i2sNode@@EBEIXZ 080236f0 f i ad_i486_gen.obj
 0001:000226f0       ?ideal_reg@ConvL2FNode@@UBEIXZ 080236f0 f i ad_i486_gen.obj
 0001:000226f0       ?num_opnds@mulI_imm_RShift_highNode@@EBEIXZ 080236f0 f i ad_i486_gen.obj
 0001:000226f0       ?equal@cmpOpOper@@UBEHXZ   080236f0 f i ad_i486_gen.obj
 0001:000226f0       ?num_opnds@jmpLoopEndUNode@@EBEIXZ 080236f0 f i ad_i486_gen.obj
 0001:000226f0       ?ideal_reg@ModFNode@@UBEIXZ 080236f0 f i ad_i486_gen.obj
 0001:000226f0       ?num_opnds@jmpLoopEndU_shortNode@@EBEIXZ 080236f0 f i ad_i486_gen.obj
 0001:000226f0       ?type@static_call_Relocation@@EAE?AW4relocType@relocInfo@@XZ 080236f0 f i ad_i486_gen.obj
 0001:00022700       ?rule@addI_mem_eRegNode@@EBEIXZ 08023700 f i ad_i486_gen.obj
 0001:00022710       ??0addI_mem_immNode@@QAE@XZ 08023710 f i ad_i486_gen.obj
 0001:00022730       ?rule@addI_mem_immNode@@EBEIXZ 08023730 f i ad_i486_gen.obj
 0001:00022740       ?ideal_Opcode@xorI_mem_immNode@@EBEHXZ 08023740 f i ad_i486_gen.obj
 0001:00022740       ?ideal_Opcode@orI_mem_immNode@@EBEHXZ 08023740 f i ad_i486_gen.obj
 0001:00022740       ?ideal_Opcode@andI_mem_immNode@@EBEHXZ 08023740 f i ad_i486_gen.obj
 0001:00022740       ?ideal_Opcode@sarI_mem_immNode@@EBEHXZ 08023740 f i ad_i486_gen.obj
 0001:00022740       ?ideal_Opcode@andI_mem_eRegNode@@EBEHXZ 08023740 f i ad_i486_gen.obj
 0001:00022740       ?ideal_Opcode@addI_mem_immNode@@EBEHXZ 08023740 f i ad_i486_gen.obj
 0001:00022740       ?ideal_Opcode@sarI_mem_1Node@@EBEHXZ 08023740 f i ad_i486_gen.obj
 0001:00022740       ?ideal_Opcode@addI_mem_eRegNode@@EBEHXZ 08023740 f i ad_i486_gen.obj
 0001:00022740       ?ideal_Opcode@subI_mem_eRegNode@@EBEHXZ 08023740 f i ad_i486_gen.obj
 0001:00022740       ?ideal_Opcode@decI_memNode@@EBEHXZ 08023740 f i ad_i486_gen.obj
 0001:00022740       ?store_Opcode@LoadINode@@UBEHXZ 08023740 f i ad_i486_gen.obj
 0001:00022740       ?ideal_Opcode@storeINode@@EBEHXZ 08023740 f i ad_i486_gen.obj
 0001:00022740       ?ideal_Opcode@storeImmINode@@EBEHXZ 08023740 f i ad_i486_gen.obj
 0001:00022740       ?ideal_Opcode@xorI_mem_eRegNode@@EBEHXZ 08023740 f i ad_i486_gen.obj
 0001:00022740       ?ideal_Opcode@orI_mem_eRegNode@@EBEHXZ 08023740 f i ad_i486_gen.obj
 0001:00022740       ?ideal_Opcode@incI_memNode@@EBEHXZ 08023740 f i ad_i486_gen.obj
 0001:00022750       ??0incI_memNode@@QAE@XZ    08023750 f i ad_i486_gen.obj
 0001:00022770       ?rule@incI_memNode@@EBEIXZ 08023770 f i ad_i486_gen.obj
 0001:00022780       ?size_of@sarI_mem_immNode@@UBEIXZ 08023780 f i ad_i486_gen.obj
 0001:00022780       ?size_of@cmovI_memuNode@@UBEIXZ 08023780 f i ad_i486_gen.obj
 0001:00022780       ?size_of@cmovII_mem_LEGTNode@@UBEIXZ 08023780 f i ad_i486_gen.obj
 0001:00022780       ?size_of@cmovP_regUNode@@UBEIXZ 08023780 f i ad_i486_gen.obj
 0001:00022780       ?size_of@cmovL_regUNode@@UBEIXZ 08023780 f i ad_i486_gen.obj
 0001:00022780       ?size_of@fcmovF_regUNode@@UBEIXZ 08023780 f i ad_i486_gen.obj
 0001:00022780       ?size_of@decI_memNode@@UBEIXZ 08023780 f i ad_i486_gen.obj
 0001:00022780       ?size_of@fcmovF_regSNode@@UBEIXZ 08023780 f i ad_i486_gen.obj
 0001:00022780       ?size_of@incI_memNode@@UBEIXZ 08023780 f i ad_i486_gen.obj
 0001:00022780       ?size_of@cmovFF_reg_LTGENode@@UBEIXZ 08023780 f i ad_i486_gen.obj
 0001:00022780       ?size_of@addF_mulF_regNode@@UBEIXZ 08023780 f i ad_i486_gen.obj
 0001:00022780       ?size_of@cmovXDD_reg_LEGTNode@@UBEIXZ 08023780 f i ad_i486_gen.obj
 0001:00022780       ?size_of@cmovXDD_reg_LTGENode@@UBEIXZ 08023780 f i ad_i486_gen.obj
 0001:00022780       ?size_of@orI_mem_eRegNode@@UBEIXZ 08023780 f i ad_i486_gen.obj
 0001:00022780       ?size_of@cmovFF_reg_EQNENode@@UBEIXZ 08023780 f i ad_i486_gen.obj
 0001:00022780       ?size_of@cmovXX_reg_LEGTNode@@UBEIXZ 08023780 f i ad_i486_gen.obj
 0001:00022780       ?size_of@cmovII_mem_EQNENode@@UBEIXZ 08023780 f i ad_i486_gen.obj
 0001:00022780       ?size_of@cmovLL_mem_LTGENode@@UBEIXZ 08023780 f i ad_i486_gen.obj
 0001:00022780       ?size_of@subI_mem_eRegNode@@UBEIXZ 08023780 f i ad_i486_gen.obj
 0001:00022780       ?size_of@cmovPP_reg_EQNENode@@UBEIXZ 08023780 f i ad_i486_gen.obj
 0001:00022780       ?size_of@fcmovX_regSNode@@UBEIXZ 08023780 f i ad_i486_gen.obj
 0001:00022780       ?size_of@addI_mem_eRegNode@@UBEIXZ 08023780 f i ad_i486_gen.obj
 0001:00022780       ?size_of@TailCalljmpIndNode@@UBEIXZ 08023780 f i ad_i486_gen.obj
 0001:00022780       ?size_of@orI_mem_immNode@@UBEIXZ 08023780 f i ad_i486_gen.obj
 0001:00022780       ?size_of@cmovLL_mem_LEGTNode@@UBEIXZ 08023780 f i ad_i486_gen.obj
 0001:00022780       ?size_of@xorI_mem_immNode@@UBEIXZ 08023780 f i ad_i486_gen.obj
 0001:00022780       ?size_of@xorI_mem_eRegNode@@UBEIXZ 08023780 f i ad_i486_gen.obj
 0001:00022780       ?size_of@cmovI_memNode@@UBEIXZ 08023780 f i ad_i486_gen.obj
 0001:00022780       ?size_of@cmovDD_reg_EQNENode@@UBEIXZ 08023780 f i ad_i486_gen.obj
 0001:00022780       ?opcode@pRegPOper@@UBEIXZ  08023780 f i ad_i486_gen.obj
 0001:00022780       ?size_of@cmovL_regNode@@UBEIXZ 08023780 f i ad_i486_gen.obj
 0001:00022780       ?size_of@storeLConditional_flagsNode@@UBEIXZ 08023780 f i ad_i486_gen.obj
 0001:00022780       ?size_of@tailjmpIndNode@@UBEIXZ 08023780 f i ad_i486_gen.obj
 0001:00022780       ?size_of@cmovPP_reg_LTGENode@@UBEIXZ 08023780 f i ad_i486_gen.obj
 0001:00022780       ?size_of@cmovP_regNode@@UBEIXZ 08023780 f i ad_i486_gen.obj
 0001:00022780       ?size_of@cmovDD_reg_LEGTNode@@UBEIXZ 08023780 f i ad_i486_gen.obj
 0001:00022780       ?size_of@addD_mem_regNode@@UBEIXZ 08023780 f i ad_i486_gen.obj
 0001:00022780       ?size_of@cmovFF_reg_LEGTNode@@UBEIXZ 08023780 f i ad_i486_gen.obj
 0001:00022780       ?size_of@cmovII_mem_LTGENode@@UBEIXZ 08023780 f i ad_i486_gen.obj
 0001:00022780       ?size_of@cmovXX_reg_EQNENode@@UBEIXZ 08023780 f i ad_i486_gen.obj
 0001:00022780       ?size_of@cmovPP_reg_LEGTNode@@UBEIXZ 08023780 f i ad_i486_gen.obj
 0001:00022780       ?size_of@cmovXX_reg_LTGENode@@UBEIXZ 08023780 f i ad_i486_gen.obj
 0001:00022780       ?size_of@cmovXDD_reg_EQNENode@@UBEIXZ 08023780 f i ad_i486_gen.obj
 0001:00022780       ?size_of@sarI_mem_1Node@@UBEIXZ 08023780 f i ad_i486_gen.obj
 0001:00022780       ?size_of@fcmovD_regSNode@@UBEIXZ 08023780 f i ad_i486_gen.obj
 0001:00022780       ?size_of@andI_mem_eRegNode@@UBEIXZ 08023780 f i ad_i486_gen.obj
 0001:00022780       ?size_of@fcmovXD_regUNode@@UBEIXZ 08023780 f i ad_i486_gen.obj
 0001:00022780       ?size_of@fcmovXD_regSNode@@UBEIXZ 08023780 f i ad_i486_gen.obj
 0001:00022780       ?size_of@addI_mem_immNode@@UBEIXZ 08023780 f i ad_i486_gen.obj
 0001:00022780       ?size_of@cmovP_reg_nonP6Node@@UBEIXZ 08023780 f i ad_i486_gen.obj
 0001:00022780       ?size_of@andI_mem_immNode@@UBEIXZ 08023780 f i ad_i486_gen.obj
 0001:00022780       ?size_of@fcmovX_regUNode@@UBEIXZ 08023780 f i ad_i486_gen.obj
 0001:00022780       ?size_of@cmovDD_reg_LTGENode@@UBEIXZ 08023780 f i ad_i486_gen.obj
 0001:00022780       ?size_of@cmovLL_mem_EQNENode@@UBEIXZ 08023780 f i ad_i486_gen.obj
 0001:00022780       ?size_of@fcmovD_regUNode@@UBEIXZ 08023780 f i ad_i486_gen.obj
 0001:00022780       ?ideal_Opcode@MachNopNode@@UBEHXZ 08023780 f i ad_i486_gen.obj
 0001:00022790       ??0decI_memNode@@QAE@XZ    08023790 f i ad_i486_gen.obj
 0001:000227b0       ?rule@decI_memNode@@EBEIXZ 080237b0 f i ad_i486_gen.obj
 0001:000227c0       ??0checkCastPPNode@@QAE@XZ 080237c0 f i ad_i486_gen.obj
 0001:000227e0       ?rule@checkCastPPNode@@EBEIXZ 080237e0 f i ad_i486_gen.obj
 0001:000227f0       ??0castPPNode@@QAE@XZ      080237f0 f i ad_i486_gen.obj
 0001:00022810       ??0loadPLockedNode@@QAE@XZ 08023810 f i ad_i486_gen.obj
 0001:00022830       ?rule@loadPLockedNode@@EBEIXZ 08023830 f i ad_i486_gen.obj
 0001:00022840       ?ideal_Opcode@loadPLockedNode@@EBEHXZ 08023840 f i ad_i486_gen.obj
 0001:00022850       ??0loadLLockedNode@@QAE@XZ 08023850 f i ad_i486_gen.obj
 0001:00022870       ??0storePConditionalNode@@QAE@XZ 08023870 f i ad_i486_gen.obj
 0001:00022890       ?rule@storePConditionalNode@@EBEIXZ 08023890 f i ad_i486_gen.obj
 0001:000228a0       ??0storeLConditionalNode@@QAE@XZ 080238a0 f i ad_i486_gen.obj
 0001:000228c0       ?rule@storeLConditionalNode@@EBEIXZ 080238c0 f i ad_i486_gen.obj
 0001:000228d0       ?ideal_Opcode@storeLConditionalNode@@EBEHXZ 080238d0 f i ad_i486_gen.obj
 0001:000228d0       ?store_Opcode@LoadLLockedNode@@UBEHXZ 080238d0 f i ad_i486_gen.obj
 0001:000228e0       ?size_of@subF_divF_regNode@@UBEIXZ 080238e0 f i ad_i486_gen.obj
 0001:000228e0       ?size_of@andL_eRegNode@@UBEIXZ 080238e0 f i ad_i486_gen.obj
 0001:000228e0       ?size_of@i2bNode@@UBEIXZ   080238e0 f i ad_i486_gen.obj
 0001:000228e0       ?size_of@addI_eRegNode@@UBEIXZ 080238e0 f i ad_i486_gen.obj
 0001:000228e0       ?size_of@storeF_immNode@@UBEIXZ 080238e0 f i ad_i486_gen.obj
 0001:000228e0       ?size_of@mulI_imm_RShift_highNode@@UBEIXZ 080238e0 f i ad_i486_gen.obj
 0001:000228e0       ?size_of@storeImmINode@@UBEIXZ 080238e0 f i ad_i486_gen.obj
 0001:000228e0       ?size_of@subP_eRegNode@@UBEIXZ 080238e0 f i ad_i486_gen.obj
 0001:000228e0       ?size_of@addX_regNode@@UBEIXZ 080238e0 f i ad_i486_gen.obj
 0001:000228e0       ?size_of@divX_regNode@@UBEIXZ 080238e0 f i ad_i486_gen.obj
 0001:000228e0       ?size_of@storeLNode@@UBEIXZ 080238e0 f i ad_i486_gen.obj
 0001:000228e0       ?size_of@storeDNode@@UBEIXZ 080238e0 f i ad_i486_gen.obj
 0001:000228e0       ?size_of@xorI_eRegNode@@UBEIXZ 080238e0 f i ad_i486_gen.obj
 0001:000228e0       ?size_of@addF24_mem_regNode@@UBEIXZ 080238e0 f i ad_i486_gen.obj
 0001:000228e0       ?size_of@storeF_DroundedNode@@UBEIXZ 080238e0 f i ad_i486_gen.obj
 0001:000228e0       ?size_of@cmpX_regNode@@UBEIXZ 080238e0 f i ad_i486_gen.obj
 0001:000228e0       ?size_of@compP_eRegNode@@UBEIXZ 080238e0 f i ad_i486_gen.obj
 0001:000228e0       ?size_of@storeImmI16Node@@UBEIXZ 080238e0 f i ad_i486_gen.obj
 0001:000228e0       ?size_of@storeLConditionalNode@@UBEIXZ 080238e0 f i ad_i486_gen.obj
 0001:000228e0       ?size_of@storePConditionalNode@@UBEIXZ 080238e0 f i ad_i486_gen.obj
 0001:000228e0       ?size_of@storePNode@@UBEIXZ 080238e0 f i ad_i486_gen.obj
 0001:000228e0       ?size_of@storeImmCMNode@@UBEIXZ 080238e0 f i ad_i486_gen.obj
 0001:000228e0       ?size_of@storeL_volatileNode@@UBEIXZ 080238e0 f i ad_i486_gen.obj
 0001:000228e0       ?size_of@storeImmBNode@@UBEIXZ 080238e0 f i ad_i486_gen.obj
 0001:000228e0       ?size_of@storeXNode@@UBEIXZ 080238e0 f i ad_i486_gen.obj
 0001:000228e0       ?size_of@subD_mulD_regNode@@UBEIXZ 080238e0 f i ad_i486_gen.obj
 0001:000228e0       ?size_of@mulF24_regNode@@UBEIXZ 080238e0 f i ad_i486_gen.obj
 0001:000228e0       ?size_of@cmpXD_regNode@@UBEIXZ 080238e0 f i ad_i486_gen.obj
 0001:000228e0       ?size_of@mulXD_regNode@@UBEIXZ 080238e0 f i ad_i486_gen.obj
 0001:000228e0       ?opcode@eRegPOper@@UBEIXZ  080238e0 f i ad_i486_gen.obj
 0001:000228e0       ?size_of@cmpXD_ccNode@@UBEIXZ 080238e0 f i ad_i486_gen.obj
 0001:000228e0       ?ideal_Opcode@cmpL3_reg_regNode@@EBEHXZ 080238e0 f i ad_i486_gen.obj
 0001:000228e0       ?size_of@storeFNode@@UBEIXZ 080238e0 f i ad_i486_gen.obj
 0001:000228e0       ?size_of@addF24_regNode@@UBEIXZ 080238e0 f i ad_i486_gen.obj
 0001:000228e0       ?size_of@addF_mulF_reg_load1Node@@UBEIXZ 080238e0 f i ad_i486_gen.obj
 0001:000228e0       ?size_of@testI_reg_immNode@@UBEIXZ 080238e0 f i ad_i486_gen.obj
 0001:000228e0       ?size_of@subX_regNode@@UBEIXZ 080238e0 f i ad_i486_gen.obj
 0001:000228e0       ?size_of@addD_mulD_regNode@@UBEIXZ 080238e0 f i ad_i486_gen.obj
 0001:000228e0       ?size_of@addL_eRegNode@@UBEIXZ 080238e0 f i ad_i486_gen.obj
 0001:000228e0       ?size_of@compU_eRegNode@@UBEIXZ 080238e0 f i ad_i486_gen.obj
 0001:000228e0       ?size_of@orI_eRegNode@@UBEIXZ 080238e0 f i ad_i486_gen.obj
 0001:000228e0       ?size_of@cmpX_ccNode@@UBEIXZ 080238e0 f i ad_i486_gen.obj
 0001:000228e0       ?size_of@addD_regNode@@UBEIXZ 080238e0 f i ad_i486_gen.obj
 0001:000228e0       ?size_of@addF_regNode@@UBEIXZ 080238e0 f i ad_i486_gen.obj
 0001:000228e0       ?size_of@storeINode@@UBEIXZ 080238e0 f i ad_i486_gen.obj
 0001:000228e0       ?size_of@subXD_regNode@@UBEIXZ 080238e0 f i ad_i486_gen.obj
 0001:000228e0       ?size_of@storeImmPNode@@UBEIXZ 080238e0 f i ad_i486_gen.obj
 0001:000228e0       ?size_of@mulI_eRegNode@@UBEIXZ 080238e0 f i ad_i486_gen.obj
 0001:000228e0       ?size_of@xorl_eRegNode@@UBEIXZ 080238e0 f i ad_i486_gen.obj
 0001:000228e0       ?size_of@subD_regNode@@UBEIXZ 080238e0 f i ad_i486_gen.obj
 0001:000228e0       ?size_of@andI_eRegNode@@UBEIXZ 080238e0 f i ad_i486_gen.obj
 0001:000228e0       ?size_of@storeD_roundedNode@@UBEIXZ 080238e0 f i ad_i486_gen.obj
 0001:000228e0       ?size_of@storeF_roundedNode@@UBEIXZ 080238e0 f i ad_i486_gen.obj
 0001:000228e0       ?size_of@addXD_regNode@@UBEIXZ 080238e0 f i ad_i486_gen.obj
 0001:000228e0       ?size_of@subI_eRegNode@@UBEIXZ 080238e0 f i ad_i486_gen.obj
 0001:000228e0       ?size_of@mulF_regNode@@UBEIXZ 080238e0 f i ad_i486_gen.obj
 0001:000228e0       ?size_of@mulI_imm_highNode@@UBEIXZ 080238e0 f i ad_i486_gen.obj
 0001:000228e0       ?size_of@orl_eRegNode@@UBEIXZ 080238e0 f i ad_i486_gen.obj
 0001:000228e0       ?size_of@mulX_regNode@@UBEIXZ 080238e0 f i ad_i486_gen.obj
 0001:000228e0       ?size_of@i2sNode@@UBEIXZ   080238e0 f i ad_i486_gen.obj
 0001:000228e0       ?size_of@storeCNode@@UBEIXZ 080238e0 f i ad_i486_gen.obj
 0001:000228e0       ?size_of@storeXDNode@@UBEIXZ 080238e0 f i ad_i486_gen.obj
 0001:000228e0       ?size_of@testI_reg_memNode@@UBEIXZ 080238e0 f i ad_i486_gen.obj
 0001:000228e0       ?size_of@compI_eRegNode@@UBEIXZ 080238e0 f i ad_i486_gen.obj
 0001:000228e0       ?size_of@mulI_eReg_immNode@@UBEIXZ 080238e0 f i ad_i486_gen.obj
 0001:000228e0       ?size_of@storeBNode@@UBEIXZ 080238e0 f i ad_i486_gen.obj
 0001:000228e0       ?size_of@subL_eRegNode@@UBEIXZ 080238e0 f i ad_i486_gen.obj
 0001:000228e0       ?size_of@addF24_reg_memNode@@UBEIXZ 080238e0 f i ad_i486_gen.obj
 0001:000228e0       ?size_of@divXD_regNode@@UBEIXZ 080238e0 f i ad_i486_gen.obj
 0001:000228f0       ??0storeLConditional_flagsNode@@QAE@XZ 080238f0 f i ad_i486_gen.obj
 0001:00022910       ?rule@storeLConditional_flagsNode@@EBEIXZ 08023910 f i ad_i486_gen.obj
 0001:00022920       ??0subI_eRegNode@@QAE@XZ   08023920 f i ad_i486_gen.obj
 0001:00022940       ?rule@subI_eRegNode@@EBEIXZ 08023940 f i ad_i486_gen.obj
 0001:00022950       ??0subI_eReg_immNode@@QAE@XZ 08023950 f i ad_i486_gen.obj
 0001:00022970       ?rule@subI_eReg_immNode@@EBEIXZ 08023970 f i ad_i486_gen.obj
 0001:00022980       ??0subI_eReg_memNode@@QAE@XZ 08023980 f i ad_i486_gen.obj
 0001:000229a0       ??0subI_mem_eRegNode@@QAE@XZ 080239a0 f i ad_i486_gen.obj
 0001:000229c0       ?rule@subI_mem_eRegNode@@EBEIXZ 080239c0 f i ad_i486_gen.obj
 0001:000229d0       ??0subP_eRegNode@@QAE@XZ   080239d0 f i ad_i486_gen.obj
 0001:000229f0       ?rule@subP_eRegNode@@EBEIXZ 080239f0 f i ad_i486_gen.obj
 0001:00022a00       ??0negI_eRegNode@@QAE@XZ   08023a00 f i ad_i486_gen.obj
 0001:00022a20       ?rule@negI_eRegNode@@EBEIXZ 08023a20 f i ad_i486_gen.obj
 0001:00022a30       ??0mulI_eRegNode@@QAE@XZ   08023a30 f i ad_i486_gen.obj
 0001:00022a50       ?rule@mulI_eRegNode@@EBEIXZ 08023a50 f i ad_i486_gen.obj
 0001:00022a60       ??0mulI_eReg_immNode@@QAE@XZ 08023a60 f i ad_i486_gen.obj
 0001:00022a80       ?rule@mulI_eReg_immNode@@EBEIXZ 08023a80 f i ad_i486_gen.obj
 0001:00022a90       ??0loadConL_low_onlyNode@@QAE@XZ 08023a90 f i ad_i486_gen.obj
 0001:00022ab0       ?rule@loadConL_low_onlyNode@@EBEIXZ 08023ab0 f i ad_i486_gen.obj
 0001:00022ac0       ?bottom_type@loadConL_low_onlyNode@@UBEPBVType@@XZ 08023ac0 f i ad_i486_gen.obj
 0001:00022ac0       ?bottom_type@loadConL0Node@@UBEPBVType@@XZ 08023ac0 f i ad_i486_gen.obj
 0001:00022ac0       ?bottom_type@loadConLNode@@UBEPBVType@@XZ 08023ac0 f i ad_i486_gen.obj
 0001:00022ae0       ??0mulI_imm_highNode@@QAE@XZ 08023ae0 f i ad_i486_gen.obj
 0001:00022b00       ?rule@mulI_imm_highNode@@EBEIXZ 08023b00 f i ad_i486_gen.obj
 0001:00022b10       ??0mulI_imm_RShift_highNode@@QAE@XZ 08023b10 f i ad_i486_gen.obj
 0001:00022b30       ?rule@mulI_imm_RShift_highNode@@EBEIXZ 08023b30 f i ad_i486_gen.obj
 0001:00022b40       ??0mulI_mem_immNode@@QAE@XZ 08023b40 f i ad_i486_gen.obj
 0001:00022b60       ??0mulINode@@QAE@XZ        08023b60 f i ad_i486_gen.obj
 0001:00022b80       ??0mulL_eRegNode@@QAE@XZ   08023b80 f i ad_i486_gen.obj
 0001:00022ba0       ?rule@mulL_eRegNode@@EBEIXZ 08023ba0 f i ad_i486_gen.obj
 0001:00022bb0       ??0mulL_eReg_conNode@@QAE@XZ 08023bb0 f i ad_i486_gen.obj
 0001:00022bd0       ?rule@mulL_eReg_conNode@@EBEIXZ 08023bd0 f i ad_i486_gen.obj
 0001:00022be0       ?ideal_Opcode@mulL_eRegNode@@EBEHXZ 08023be0 f i ad_i486_gen.obj
 0001:00022be0       ?ideal_Opcode@mulL_eReg_conNode@@EBEHXZ 08023be0 f i ad_i486_gen.obj
 0001:00022be0       ?mul_opcode@MulLNode@@UBEHXZ 08023be0 f i ad_i486_gen.obj
 0001:00022bf0       ??0divI_eRegNode@@QAE@XZ   08023bf0 f i ad_i486_gen.obj
 0001:00022c10       ?rule@divI_eRegNode@@EBEIXZ 08023c10 f i ad_i486_gen.obj
 0001:00022c20       ??0divL_eRegNode@@QAE@XZ   08023c20 f i ad_i486_gen.obj
 0001:00022c40       ?rule@divL_eRegNode@@EBEIXZ 08023c40 f i ad_i486_gen.obj
 0001:00022c50       ??0modI_eRegNode@@QAE@XZ   08023c50 f i ad_i486_gen.obj
 0001:00022c70       ?rule@modI_eRegNode@@EBEIXZ 08023c70 f i ad_i486_gen.obj
 0001:00022c80       ?ideal_Opcode@modI_eRegNode@@EBEHXZ 08023c80 f i ad_i486_gen.obj
 0001:00022c90       ??0modL_eRegNode@@QAE@XZ   08023c90 f i ad_i486_gen.obj
 0001:00022cb0       ?rule@modL_eRegNode@@EBEIXZ 08023cb0 f i ad_i486_gen.obj
 0001:00022cc0       ?ideal_Opcode@modL_eRegNode@@EBEHXZ 08023cc0 f i ad_i486_gen.obj
 0001:00022cd0       ??0shlI_eReg_1Node@@QAE@XZ 08023cd0 f i ad_i486_gen.obj
 0001:00022cf0       ?rule@shlI_eReg_1Node@@EBEIXZ 08023cf0 f i ad_i486_gen.obj
 0001:00022d00       ??0salI_eReg_immNode@@QAE@XZ 08023d00 f i ad_i486_gen.obj
 0001:00022d20       ?rule@salI_eReg_immNode@@EBEIXZ 08023d20 f i ad_i486_gen.obj
 0001:00022d30       ??0salI_eReg_CLNode@@QAE@XZ 08023d30 f i ad_i486_gen.obj
 0001:00022d50       ?rule@salI_eReg_CLNode@@EBEIXZ 08023d50 f i ad_i486_gen.obj
 0001:00022d60       ??0sarI_eReg_1Node@@QAE@XZ 08023d60 f i ad_i486_gen.obj
 0001:00022d80       ?rule@sarI_eReg_1Node@@EBEIXZ 08023d80 f i ad_i486_gen.obj
 0001:00022d90       ?ideal_Opcode@sarI_eReg_immNode@@EBEHXZ 08023d90 f i ad_i486_gen.obj
 0001:00022d90       ?ideal_Opcode@i2sNode@@EBEHXZ 08023d90 f i ad_i486_gen.obj
 0001:00022d90       ?ideal_Opcode@sarI_eReg_1Node@@EBEHXZ 08023d90 f i ad_i486_gen.obj
 0001:00022d90       ?ideal_Opcode@sarI_eReg_CLNode@@EBEHXZ 08023d90 f i ad_i486_gen.obj
 0001:00022d90       ?ideal_Opcode@i2bNode@@EBEHXZ 08023d90 f i ad_i486_gen.obj
 0001:00022da0       ??0sarI_mem_1Node@@QAE@XZ  08023da0 f i ad_i486_gen.obj
 0001:00022dc0       ?rule@sarI_mem_1Node@@EBEIXZ 08023dc0 f i ad_i486_gen.obj
 0001:00022dd0       ??0sarI_eReg_immNode@@QAE@XZ 08023dd0 f i ad_i486_gen.obj
 0001:00022df0       ?rule@sarI_eReg_immNode@@EBEIXZ 08023df0 f i ad_i486_gen.obj
 0001:00022e00       ??0sarI_mem_immNode@@QAE@XZ 08023e00 f i ad_i486_gen.obj
 0001:00022e20       ?rule@sarI_mem_immNode@@EBEIXZ 08023e20 f i ad_i486_gen.obj
 0001:00022e30       ??0sarI_eReg_CLNode@@QAE@XZ 08023e30 f i ad_i486_gen.obj
 0001:00022e50       ?rule@sarI_eReg_CLNode@@EBEIXZ 08023e50 f i ad_i486_gen.obj
 0001:00022e60       ??0shrI_eReg_1Node@@QAE@XZ 08023e60 f i ad_i486_gen.obj
 0001:00022e80       ?rule@shrI_eReg_1Node@@EBEIXZ 08023e80 f i ad_i486_gen.obj
 0001:00022e90       ??0shrI_eReg_immNode@@QAE@XZ 08023e90 f i ad_i486_gen.obj
 0001:00022eb0       ?rule@shrI_eReg_immNode@@EBEIXZ 08023eb0 f i ad_i486_gen.obj
 0001:00022ec0       ?ideal_Opcode@shrI_eReg_CLNode@@EBEHXZ 08023ec0 f i ad_i486_gen.obj
 0001:00022ec0       ?ideal_Opcode@shrI_eReg_immNode@@EBEHXZ 08023ec0 f i ad_i486_gen.obj
 0001:00022ec0       ?rule@storeSSLNode@@EBEIXZ 08023ec0 f i ad_i486_gen.obj
 0001:00022ec0       ?ideal_Opcode@shrI_eReg_1Node@@EBEHXZ 08023ec0 f i ad_i486_gen.obj
 0001:00022ed0       ??0i2bNode@@QAE@XZ         08023ed0 f i ad_i486_gen.obj
 0001:00022ef0       ?rule@i2bNode@@EBEIXZ      08023ef0 f i ad_i486_gen.obj
 0001:00022f00       ??0i2sNode@@QAE@XZ         08023f00 f i ad_i486_gen.obj
 0001:00022f20       ?rule@i2sNode@@EBEIXZ      08023f20 f i ad_i486_gen.obj
 0001:00022f30       ??0shrI_eReg_CLNode@@QAE@XZ 08023f30 f i ad_i486_gen.obj
 0001:00022f50       ?rule@shrI_eReg_CLNode@@EBEIXZ 08023f50 f i ad_i486_gen.obj
 0001:00022f60       ??0andI_eRegNode@@QAE@XZ   08023f60 f i ad_i486_gen.obj
 0001:00022f80       ?rule@andI_eRegNode@@EBEIXZ 08023f80 f i ad_i486_gen.obj
 0001:00022f90       ??0andI_eReg_immNode@@QAE@XZ 08023f90 f i ad_i486_gen.obj
 0001:00022fb0       ?rule@andI_eReg_immNode@@EBEIXZ 08023fb0 f i ad_i486_gen.obj
 0001:00022fc0       ??0andI_eReg_memNode@@QAE@XZ 08023fc0 f i ad_i486_gen.obj
 0001:00022fe0       ??0andI_mem_eRegNode@@QAE@XZ 08023fe0 f i ad_i486_gen.obj
 0001:00023000       ?rule@andI_mem_eRegNode@@EBEIXZ 08024000 f i ad_i486_gen.obj
 0001:00023010       ??0andI_mem_immNode@@QAE@XZ 08024010 f i ad_i486_gen.obj
 0001:00023030       ?rule@andI_mem_immNode@@EBEIXZ 08024030 f i ad_i486_gen.obj
 0001:00023040       ??0orI_eRegNode@@QAE@XZ    08024040 f i ad_i486_gen.obj
 0001:00023060       ?rule@orI_eRegNode@@EBEIXZ 08024060 f i ad_i486_gen.obj
 0001:00023070       ??0orI_eReg_immNode@@QAE@XZ 08024070 f i ad_i486_gen.obj
 0001:00023090       ?rule@orI_eReg_immNode@@EBEIXZ 08024090 f i ad_i486_gen.obj
 0001:000230a0       ??0orI_eReg_memNode@@QAE@XZ 080240a0 f i ad_i486_gen.obj
 0001:000230c0       ??0orI_mem_eRegNode@@QAE@XZ 080240c0 f i ad_i486_gen.obj
 0001:000230e0       ?rule@orI_mem_eRegNode@@EBEIXZ 080240e0 f i ad_i486_gen.obj
 0001:000230f0       ??0orI_mem_immNode@@QAE@XZ 080240f0 f i ad_i486_gen.obj
 0001:00023110       ?rule@orI_mem_immNode@@EBEIXZ 08024110 f i ad_i486_gen.obj
 0001:00023120       ??0xorI_eRegNode@@QAE@XZ   08024120 f i ad_i486_gen.obj
 0001:00023140       ?rule@xorI_eRegNode@@EBEIXZ 08024140 f i ad_i486_gen.obj
 0001:00023150       ??0xorI_eReg_immNode@@QAE@XZ 08024150 f i ad_i486_gen.obj
 0001:00023170       ?rule@xorI_eReg_immNode@@EBEIXZ 08024170 f i ad_i486_gen.obj
 0001:00023180       ??0xorI_eReg_memNode@@QAE@XZ 08024180 f i ad_i486_gen.obj
 0001:000231a0       ??0xorI_mem_eRegNode@@QAE@XZ 080241a0 f i ad_i486_gen.obj
 0001:000231c0       ?rule@xorI_mem_eRegNode@@EBEIXZ 080241c0 f i ad_i486_gen.obj
 0001:000231d0       ??0xorI_mem_immNode@@QAE@XZ 080241d0 f i ad_i486_gen.obj
 0001:000231f0       ?rule@xorI_mem_immNode@@EBEIXZ 080241f0 f i ad_i486_gen.obj
 0001:00023200       ??0convI2BNode@@QAE@XZ     08024200 f i ad_i486_gen.obj
 0001:00023220       ?rule@convI2BNode@@EBEIXZ  08024220 f i ad_i486_gen.obj
 0001:00023230       ??0convP2BNode@@QAE@XZ     08024230 f i ad_i486_gen.obj
 0001:00023250       ?rule@convP2BNode@@EBEIXZ  08024250 f i ad_i486_gen.obj
 0001:00023260       ??0cmpLTMaskNode@@QAE@XZ   08024260 f i ad_i486_gen.obj
 0001:00023280       ?rule@cmpLTMaskNode@@EBEIXZ 08024280 f i ad_i486_gen.obj
 0001:00023290       ??0cmpLTMask0Node@@QAE@XZ  08024290 f i ad_i486_gen.obj
 0001:000232b0       ?rule@cmpLTMask0Node@@EBEIXZ 080242b0 f i ad_i486_gen.obj
 0001:000232c0       ??0cadd_cmpLTMask1Node@@QAE@XZ 080242c0 f i ad_i486_gen.obj
 0001:000232e0       ?rule@cadd_cmpLTMask1Node@@EBEIXZ 080242e0 f i ad_i486_gen.obj
 0001:000232f0       ??0cadd_cmpLTMask2Node@@QAE@XZ 080242f0 f i ad_i486_gen.obj
 0001:00023310       ?rule@cadd_cmpLTMask2Node@@EBEIXZ 08024310 f i ad_i486_gen.obj
 0001:00023320       ??0addL_eRegNode@@QAE@XZ   08024320 f i ad_i486_gen.obj
 0001:00023340       ?rule@addL_eRegNode@@EBEIXZ 08024340 f i ad_i486_gen.obj
 0001:00023350       ??0addL_eReg_immNode@@QAE@XZ 08024350 f i ad_i486_gen.obj
 0001:00023370       ?rule@addL_eReg_immNode@@EBEIXZ 08024370 f i ad_i486_gen.obj
 0001:00023380       ??0addL_eReg_memNode@@QAE@XZ 08024380 f i ad_i486_gen.obj
 0001:000233a0       ??0subL_eRegNode@@QAE@XZ   080243a0 f i ad_i486_gen.obj
 0001:000233c0       ?rule@subL_eRegNode@@EBEIXZ 080243c0 f i ad_i486_gen.obj
 0001:000233d0       ??0subL_eReg_immNode@@QAE@XZ 080243d0 f i ad_i486_gen.obj
 0001:000233f0       ?rule@subL_eReg_immNode@@EBEIXZ 080243f0 f i ad_i486_gen.obj
 0001:00023400       ??0subL_eReg_memNode@@QAE@XZ 08024400 f i ad_i486_gen.obj
 0001:00023420       ??0negL_eRegNode@@QAE@XZ   08024420 f i ad_i486_gen.obj
 0001:00023440       ?rule@negL_eRegNode@@EBEIXZ 08024440 f i ad_i486_gen.obj
 0001:00023450       ?two_adr@negI_eRegNode@@EBEIXZ 08024450 f i ad_i486_gen.obj
 0001:00023450       ?two_adr@negL_eRegNode@@EBEIXZ 08024450 f i ad_i486_gen.obj
 0001:00023470       ??0andL_eRegNode@@QAE@XZ   08024470 f i ad_i486_gen.obj
 0001:00023490       ?rule@andL_eRegNode@@EBEIXZ 08024490 f i ad_i486_gen.obj
 0001:000234a0       ??0andL_eReg_immNode@@QAE@XZ 080244a0 f i ad_i486_gen.obj
 0001:000234c0       ?rule@andL_eReg_immNode@@EBEIXZ 080244c0 f i ad_i486_gen.obj
 0001:000234d0       ??0andL_eReg_memNode@@QAE@XZ 080244d0 f i ad_i486_gen.obj
 0001:000234f0       ??0orl_eRegNode@@QAE@XZ    080244f0 f i ad_i486_gen.obj
 0001:00023510       ?rule@orl_eRegNode@@EBEIXZ 08024510 f i ad_i486_gen.obj
 0001:00023520       ??0orl_eReg_immNode@@QAE@XZ 08024520 f i ad_i486_gen.obj
 0001:00023540       ?rule@orl_eReg_immNode@@EBEIXZ 08024540 f i ad_i486_gen.obj
 0001:00023550       ??0orl_eReg_memNode@@QAE@XZ 08024550 f i ad_i486_gen.obj
 0001:00023570       ??0xorl_eRegNode@@QAE@XZ   08024570 f i ad_i486_gen.obj
 0001:00023590       ?rule@xorl_eRegNode@@EBEIXZ 08024590 f i ad_i486_gen.obj
 0001:000235a0       ??0xorl_eReg_immNode@@QAE@XZ 080245a0 f i ad_i486_gen.obj
 0001:000235c0       ?rule@xorl_eReg_immNode@@EBEIXZ 080245c0 f i ad_i486_gen.obj
 0001:000235d0       ??0xorl_eReg_memNode@@QAE@XZ 080245d0 f i ad_i486_gen.obj
 0001:000235f0       ??0shlL_eReg_1_31Node@@QAE@XZ 080245f0 f i ad_i486_gen.obj
 0001:00023610       ?rule@shlL_eReg_1_31Node@@EBEIXZ 08024610 f i ad_i486_gen.obj
 0001:00023620       ??0shlL_eReg_32_63Node@@QAE@XZ 08024620 f i ad_i486_gen.obj
 0001:00023640       ?rule@shlL_eReg_32_63Node@@EBEIXZ 08024640 f i ad_i486_gen.obj
 0001:00023650       ??0salL_eReg_CLNode@@QAE@XZ 08024650 f i ad_i486_gen.obj
 0001:00023670       ?rule@salL_eReg_CLNode@@EBEIXZ 08024670 f i ad_i486_gen.obj
 0001:00023680       ??0shrL_eReg_1_31Node@@QAE@XZ 08024680 f i ad_i486_gen.obj
 0001:000236a0       ?rule@shrL_eReg_1_31Node@@EBEIXZ 080246a0 f i ad_i486_gen.obj
 0001:000236b0       ??0shrL_eReg_32_63Node@@QAE@XZ 080246b0 f i ad_i486_gen.obj
 0001:000236d0       ?rule@shrL_eReg_32_63Node@@EBEIXZ 080246d0 f i ad_i486_gen.obj
 0001:000236e0       ??0shrL_eReg_CLNode@@QAE@XZ 080246e0 f i ad_i486_gen.obj
 0001:00023700       ?rule@shrL_eReg_CLNode@@EBEIXZ 08024700 f i ad_i486_gen.obj
 0001:00023710       ??0sarL_eReg_1_31Node@@QAE@XZ 08024710 f i ad_i486_gen.obj
 0001:00023730       ?rule@sarL_eReg_1_31Node@@EBEIXZ 08024730 f i ad_i486_gen.obj
 0001:00023740       ?ideal_Opcode@sarL_eReg_CLNode@@EBEHXZ 08024740 f i ad_i486_gen.obj
 0001:00023740       ?ideal_Opcode@sarL_eReg_1_31Node@@EBEHXZ 08024740 f i ad_i486_gen.obj
 0001:00023740       ?ideal_Opcode@sarL_eReg_32_63Node@@EBEHXZ 08024740 f i ad_i486_gen.obj
 0001:00023750       ??0sarL_eReg_32_63Node@@QAE@XZ 08024750 f i ad_i486_gen.obj
 0001:00023770       ?rule@sarL_eReg_32_63Node@@EBEIXZ 08024770 f i ad_i486_gen.obj
 0001:00023780       ??0sarL_eReg_CLNode@@QAE@XZ 08024780 f i ad_i486_gen.obj
 0001:000237a0       ?rule@sarL_eReg_CLNode@@EBEIXZ 080247a0 f i ad_i486_gen.obj
 0001:000237b0       ??0cmpD_cc_P6Node@@QAE@XZ  080247b0 f i ad_i486_gen.obj
 0001:000237d0       ?rule@cmpD_cc_P6Node@@EBEIXZ 080247d0 f i ad_i486_gen.obj
 0001:000237e0       ??0cmpD_ccNode@@QAE@XZ     080247e0 f i ad_i486_gen.obj
 0001:00023800       ?rule@cmpD_ccNode@@EBEIXZ  08024800 f i ad_i486_gen.obj
 0001:00023810       ??0cmpD_0Node@@QAE@XZ      08024810 f i ad_i486_gen.obj
 0001:00023830       ?rule@cmpD_0Node@@EBEIXZ   08024830 f i ad_i486_gen.obj
 0001:00023840       ??0cmpD_regNode@@QAE@XZ    08024840 f i ad_i486_gen.obj
 0001:00023860       ?rule@cmpD_regNode@@EBEIXZ 08024860 f i ad_i486_gen.obj
 0001:00023870       ??0cmpXD_ccNode@@QAE@XZ    08024870 f i ad_i486_gen.obj
 0001:00023890       ?rule@cmpXD_ccNode@@EBEIXZ 08024890 f i ad_i486_gen.obj
 0001:000238a0       ??0cmpXD_ccmemNode@@QAE@XZ 080248a0 f i ad_i486_gen.obj
 0001:000238c0       ??0cmpXD_regNode@@QAE@XZ   080248c0 f i ad_i486_gen.obj
 0001:000238e0       ?rule@cmpXD_regNode@@EBEIXZ 080248e0 f i ad_i486_gen.obj
 0001:000238f0       ??0cmpXD_regmemNode@@QAE@XZ 080248f0 f i ad_i486_gen.obj
 0001:00023910       ??0subD_regNode@@QAE@XZ    08024910 f i ad_i486_gen.obj
 0001:00023930       ?rule@subD_regNode@@EBEIXZ 08024930 f i ad_i486_gen.obj
 0001:00023940       ??0subD_reg_roundNode@@QAE@XZ 08024940 f i ad_i486_gen.obj
 0001:00023960       ?rule@subD_reg_roundNode@@EBEIXZ 08024960 f i ad_i486_gen.obj
 0001:00023970       ?ideal_Opcode@addD_reg_imm_roundNode@@EBEHXZ 08024970 f i ad_i486_gen.obj
 0001:00023970       ?ideal_Opcode@roundDouble_mem_regNode@@EBEHXZ 08024970 f i ad_i486_gen.obj
 0001:00023970       ?ideal_Opcode@divD_reg_roundNode@@EBEHXZ 08024970 f i ad_i486_gen.obj
 0001:00023970       ?ideal_Opcode@addD_reg_roundNode@@EBEHXZ 08024970 f i ad_i486_gen.obj
 0001:00023970       ?ideal_Opcode@subD_reg_roundNode@@EBEHXZ 08024970 f i ad_i486_gen.obj
 0001:00023980       ??0subD_reg_memNode@@QAE@XZ 08024980 f i ad_i486_gen.obj
 0001:000239a0       ??0absD_regNode@@QAE@XZ    080249a0 f i ad_i486_gen.obj
 0001:000239c0       ?rule@absD_regNode@@EBEIXZ 080249c0 f i ad_i486_gen.obj
 0001:000239d0       ??0absXD_regNode@@QAE@XZ   080249d0 f i ad_i486_gen.obj
 0001:000239f0       ?rule@absXD_regNode@@EBEIXZ 080249f0 f i ad_i486_gen.obj
 0001:00023a00       ??0negD_regNode@@QAE@XZ    08024a00 f i ad_i486_gen.obj
 0001:00023a20       ?rule@negD_regNode@@EBEIXZ 08024a20 f i ad_i486_gen.obj
 0001:00023a30       ??0negXD_regNode@@QAE@XZ   08024a30 f i ad_i486_gen.obj
 0001:00023a50       ?rule@negXD_regNode@@EBEIXZ 08024a50 f i ad_i486_gen.obj
 0001:00023a60       ?ideal_Opcode@negD_regNode@@EBEHXZ 08024a60 f i ad_i486_gen.obj
 0001:00023a60       ?ideal_Opcode@negXD_regNode@@EBEHXZ 08024a60 f i ad_i486_gen.obj
 0001:00023a70       ??0addD_regNode@@QAE@XZ    08024a70 f i ad_i486_gen.obj
 0001:00023a90       ?rule@addD_regNode@@EBEIXZ 08024a90 f i ad_i486_gen.obj
 0001:00023aa0       ??0addD_reg_roundNode@@QAE@XZ 08024aa0 f i ad_i486_gen.obj
 0001:00023ac0       ?rule@addD_reg_roundNode@@EBEIXZ 08024ac0 f i ad_i486_gen.obj
 0001:00023ad0       ??0addD_reg_memNode@@QAE@XZ 08024ad0 f i ad_i486_gen.obj
 0001:00023af0       ??0addD_mem_regNode@@QAE@XZ 08024af0 f i ad_i486_gen.obj
 0001:00023b10       ?rule@addD_mem_regNode@@EBEIXZ 08024b10 f i ad_i486_gen.obj
 0001:00023b20       ??0addD_reg_imm1Node@@QAE@XZ 08024b20 f i ad_i486_gen.obj
 0001:00023b40       ?rule@addD_reg_imm1Node@@EBEIXZ 08024b40 f i ad_i486_gen.obj
 0001:00023b50       ??0addD_reg_immNode@@QAE@XZ 08024b50 f i ad_i486_gen.obj
 0001:00023b70       ?rule@addD_reg_immNode@@EBEIXZ 08024b70 f i ad_i486_gen.obj
 0001:00023b80       ??0addD_reg_imm_roundNode@@QAE@XZ 08024b80 f i ad_i486_gen.obj
 0001:00023ba0       ?rule@addD_reg_imm_roundNode@@EBEIXZ 08024ba0 f i ad_i486_gen.obj
 0001:00023bb0       ??0addXD_regNode@@QAE@XZ   08024bb0 f i ad_i486_gen.obj
 0001:00023bd0       ?rule@addXD_regNode@@EBEIXZ 08024bd0 f i ad_i486_gen.obj
 0001:00023be0       ??0addXD_immNode@@QAE@XZ   08024be0 f i ad_i486_gen.obj
 0001:00023c00       ?rule@addXD_immNode@@EBEIXZ 08024c00 f i ad_i486_gen.obj
 0001:00023c10       ??0addXD_memNode@@QAE@XZ   08024c10 f i ad_i486_gen.obj
 0001:00023c30       ??0subXD_regNode@@QAE@XZ   08024c30 f i ad_i486_gen.obj
 0001:00023c50       ?rule@subXD_regNode@@EBEIXZ 08024c50 f i ad_i486_gen.obj
 0001:00023c60       ??0subXD_immNode@@QAE@XZ   08024c60 f i ad_i486_gen.obj
 0001:00023c80       ?rule@subXD_immNode@@EBEIXZ 08024c80 f i ad_i486_gen.obj
 0001:00023c90       ??0subXD_memNode@@QAE@XZ   08024c90 f i ad_i486_gen.obj
 0001:00023cb0       ??0mulXD_regNode@@QAE@XZ   08024cb0 f i ad_i486_gen.obj
 0001:00023cd0       ?rule@mulXD_regNode@@EBEIXZ 08024cd0 f i ad_i486_gen.obj
 0001:00023ce0       ??0mulXD_immNode@@QAE@XZ   08024ce0 f i ad_i486_gen.obj
 0001:00023d00       ?rule@mulXD_immNode@@EBEIXZ 08024d00 f i ad_i486_gen.obj
 0001:00023d10       ??0mulXD_memNode@@QAE@XZ   08024d10 f i ad_i486_gen.obj
 0001:00023d30       ??0divXD_regNode@@QAE@XZ   08024d30 f i ad_i486_gen.obj
 0001:00023d50       ?rule@divXD_regNode@@EBEIXZ 08024d50 f i ad_i486_gen.obj
 0001:00023d60       ??0divXD_immNode@@QAE@XZ   08024d60 f i ad_i486_gen.obj
 0001:00023d80       ?rule@divXD_immNode@@EBEIXZ 08024d80 f i ad_i486_gen.obj
 0001:00023d90       ??0divXD_memNode@@QAE@XZ   08024d90 f i ad_i486_gen.obj
 0001:00023db0       ??0mulD_regNode@@QAE@XZ    08024db0 f i ad_i486_gen.obj
 0001:00023dd0       ?rule@mulD_regNode@@EBEIXZ 08024dd0 f i ad_i486_gen.obj
 0001:00023de0       ??0strictfp_mulD_regNode@@QAE@XZ 08024de0 f i ad_i486_gen.obj
 0001:00023e00       ?rule@strictfp_mulD_regNode@@EBEIXZ 08024e00 f i ad_i486_gen.obj
 0001:00023e10       ??0mulD_reg_immNode@@QAE@XZ 08024e10 f i ad_i486_gen.obj
 0001:00023e30       ?rule@mulD_reg_immNode@@EBEIXZ 08024e30 f i ad_i486_gen.obj
 0001:00023e40       ??0mulD_reg_memNode@@QAE@XZ 08024e40 f i ad_i486_gen.obj
 0001:00023e60       ?rule@mulD_reg_memNode@@EBEIXZ 08024e60 f i ad_i486_gen.obj
 0001:00023e70       ??0mulD_reg_mem_ciscNode@@QAE@XZ 08024e70 f i ad_i486_gen.obj
 0001:00023e90       ?rule@mulD_reg_mem_ciscNode@@EBEIXZ 08024e90 f i ad_i486_gen.obj
 0001:00023ea0       ??0addD_mulD_regNode@@QAE@XZ 08024ea0 f i ad_i486_gen.obj
 0001:00023ec0       ?rule@addD_mulD_regNode@@EBEIXZ 08024ec0 f i ad_i486_gen.obj
 0001:00023ed0       ??0subD_mulD_regNode@@QAE@XZ 08024ed0 f i ad_i486_gen.obj
 0001:00023ef0       ?rule@subD_mulD_regNode@@EBEIXZ 08024ef0 f i ad_i486_gen.obj
 0001:00023f00       ??0divD_regNode@@QAE@XZ    08024f00 f i ad_i486_gen.obj
 0001:00023f20       ?rule@divD_regNode@@EBEIXZ 08024f20 f i ad_i486_gen.obj
 0001:00023f30       ??0strictfp_divD_regNode@@QAE@XZ 08024f30 f i ad_i486_gen.obj
 0001:00023f50       ??0divD_reg_roundNode@@QAE@XZ 08024f50 f i ad_i486_gen.obj
 0001:00023f70       ?rule@divD_reg_roundNode@@EBEIXZ 08024f70 f i ad_i486_gen.obj
 0001:00023f80       ??0modD_regNode@@QAE@XZ    08024f80 f i ad_i486_gen.obj
 0001:00023fa0       ?rule@modD_regNode@@EBEIXZ 08024fa0 f i ad_i486_gen.obj
 0001:00023fb0       ?ideal_Opcode@modXD_regNode@@EBEHXZ 08024fb0 f i ad_i486_gen.obj
 0001:00023fb0       ?ideal_Opcode@modD_regNode@@EBEHXZ 08024fb0 f i ad_i486_gen.obj
 0001:00023fc0       ??0modXD_regNode@@QAE@XZ   08024fc0 f i ad_i486_gen.obj
 0001:00023fe0       ?rule@modXD_regNode@@EBEIXZ 08024fe0 f i ad_i486_gen.obj
 0001:00023ff0       ??0sinD_regNode@@QAE@XZ    08024ff0 f i ad_i486_gen.obj
 0001:00024010       ?rule@sinD_regNode@@EBEIXZ 08025010 f i ad_i486_gen.obj
 0001:00024020       ?ideal_Opcode@sinXD_regNode@@EBEHXZ 08025020 f i ad_i486_gen.obj
 0001:00024020       ?ideal_Opcode@sinD_regNode@@EBEHXZ 08025020 f i ad_i486_gen.obj
 0001:00024030       ??0sinXD_regNode@@QAE@XZ   08025030 f i ad_i486_gen.obj
 0001:00024050       ?rule@sinXD_regNode@@EBEIXZ 08025050 f i ad_i486_gen.obj
 0001:00024060       ??0cosD_regNode@@QAE@XZ    08025060 f i ad_i486_gen.obj
 0001:00024080       ?rule@cosD_regNode@@EBEIXZ 08025080 f i ad_i486_gen.obj
 0001:00024090       ?opcode@indirectOper@@UBEIXZ 08025090 f i ad_i486_gen.obj
 0001:00024090       ?size_of@CallNativeDirectNode@@UBEIXZ 08025090 f i ad_i486_gen.obj
 0001:00024090       ?ideal_Opcode@cosD_regNode@@EBEHXZ 08025090 f i ad_i486_gen.obj
 0001:00024090       ?size_of@CallRuntimeDirectNode@@UBEIXZ 08025090 f i ad_i486_gen.obj
 0001:00024090       ?size_of@CallLeafDirectNode@@UBEIXZ 08025090 f i ad_i486_gen.obj
 0001:00024090       ?ideal_Opcode@cosXD_regNode@@EBEHXZ 08025090 f i ad_i486_gen.obj
 0001:000240a0       ??0cosXD_regNode@@QAE@XZ   080250a0 f i ad_i486_gen.obj
 0001:000240c0       ?rule@cosXD_regNode@@EBEIXZ 080250c0 f i ad_i486_gen.obj
 0001:000240d0       ??0tanD_regNode@@QAE@XZ    080250d0 f i ad_i486_gen.obj
 0001:000240f0       ?rule@storeSSINode@@EBEIXZ 080250f0 f i ad_i486_gen.obj
 0001:000240f0       ?ideal_Opcode@tanXD_regNode@@EBEHXZ 080250f0 f i ad_i486_gen.obj
 0001:000240f0       ?ideal_Opcode@tanD_regNode@@EBEHXZ 080250f0 f i ad_i486_gen.obj
 0001:00024100       ??0tanXD_regNode@@QAE@XZ   08025100 f i ad_i486_gen.obj
 0001:00024120       ?rule@tanXD_regNode@@EBEIXZ 08025120 f i ad_i486_gen.obj
 0001:00024130       ??0atanD_regNode@@QAE@XZ   08025130 f i ad_i486_gen.obj
 0001:00024150       ?rule@atanD_regNode@@EBEIXZ 08025150 f i ad_i486_gen.obj
 0001:00024160       ??0atanXD_regNode@@QAE@XZ  08025160 f i ad_i486_gen.obj
 0001:00024180       ?rule@atanXD_regNode@@EBEIXZ 08025180 f i ad_i486_gen.obj
 0001:00024190       ??0sqrtD_regNode@@QAE@XZ   08025190 f i ad_i486_gen.obj
 0001:000241b0       ?rule@sqrtD_regNode@@EBEIXZ 080251b0 f i ad_i486_gen.obj
 0001:000241c0       ??0powD_regNode@@QAE@XZ    080251c0 f i ad_i486_gen.obj
 0001:000241e0       ?rule@powD_regNode@@EBEIXZ 080251e0 f i ad_i486_gen.obj
 0001:000241f0       ?ideal_Opcode@powD_regNode@@EBEHXZ 080251f0 f i ad_i486_gen.obj
 0001:00024200       ??0cmpF_cc_P6Node@@QAE@XZ  08025200 f i ad_i486_gen.obj
 0001:00024220       ?rule@cmpF_cc_P6Node@@EBEIXZ 08025220 f i ad_i486_gen.obj
 0001:00024230       ??0cmpF_ccNode@@QAE@XZ     08025230 f i ad_i486_gen.obj
 0001:00024250       ?rule@cmpF_ccNode@@EBEIXZ  08025250 f i ad_i486_gen.obj
 0001:00024260       ??0cmpF_0Node@@QAE@XZ      08025260 f i ad_i486_gen.obj
 0001:00024280       ?rule@cmpF_0Node@@EBEIXZ   08025280 f i ad_i486_gen.obj
 0001:00024290       ??0cmpF_regNode@@QAE@XZ    08025290 f i ad_i486_gen.obj
 0001:000242b0       ?rule@cmpF_regNode@@EBEIXZ 080252b0 f i ad_i486_gen.obj
 0001:000242c0       ??0cmpX_ccNode@@QAE@XZ     080252c0 f i ad_i486_gen.obj
 0001:000242e0       ?rule@cmpX_ccNode@@EBEIXZ  080252e0 f i ad_i486_gen.obj
 0001:000242f0       ??0cmpX_ccmemNode@@QAE@XZ  080252f0 f i ad_i486_gen.obj
 0001:00024310       ??0cmpX_regNode@@QAE@XZ    08025310 f i ad_i486_gen.obj
 0001:00024330       ??0cmpX_regmemNode@@QAE@XZ 08025330 f i ad_i486_gen.obj
 0001:00024350       ??0subF24_regNode@@QAE@XZ  08025350 f i ad_i486_gen.obj
 0001:00024370       ?rule@subF24_regNode@@EBEIXZ 08025370 f i ad_i486_gen.obj
 0001:00024380       ??0subF_regNode@@QAE@XZ    08025380 f i ad_i486_gen.obj
 0001:000243a0       ?rule@subF_regNode@@EBEIXZ 080253a0 f i ad_i486_gen.obj
 0001:000243b0       ??0addF24_regNode@@QAE@XZ  080253b0 f i ad_i486_gen.obj
 0001:000243d0       ?rule@addF24_regNode@@EBEIXZ 080253d0 f i ad_i486_gen.obj
 0001:000243e0       ??0addF_regNode@@QAE@XZ    080253e0 f i ad_i486_gen.obj
 0001:00024400       ?rule@addF_regNode@@EBEIXZ 08025400 f i ad_i486_gen.obj
 0001:00024410       ??0addX_regNode@@QAE@XZ    08025410 f i ad_i486_gen.obj
 0001:00024430       ?rule@addX_regNode@@EBEIXZ 08025430 f i ad_i486_gen.obj
 0001:00024440       ??0addX_immNode@@QAE@XZ    08025440 f i ad_i486_gen.obj
 0001:00024460       ?rule@addX_immNode@@EBEIXZ 08025460 f i ad_i486_gen.obj
 0001:00024470       ??0addX_memNode@@QAE@XZ    08025470 f i ad_i486_gen.obj
 0001:00024490       ??0subX_regNode@@QAE@XZ    08025490 f i ad_i486_gen.obj
 0001:000244b0       ?rule@subX_regNode@@EBEIXZ 080254b0 f i ad_i486_gen.obj
 0001:000244c0       ??0subX_immNode@@QAE@XZ    080254c0 f i ad_i486_gen.obj
 0001:000244e0       ?rule@subX_immNode@@EBEIXZ 080254e0 f i ad_i486_gen.obj
 0001:000244f0       ??0subX_memNode@@QAE@XZ    080254f0 f i ad_i486_gen.obj
 0001:00024510       ??0mulX_regNode@@QAE@XZ    08025510 f i ad_i486_gen.obj
 0001:00024530       ?rule@mulX_regNode@@EBEIXZ 08025530 f i ad_i486_gen.obj
 0001:00024540       ??0mulX_immNode@@QAE@XZ    08025540 f i ad_i486_gen.obj
 0001:00024560       ?rule@mulX_immNode@@EBEIXZ 08025560 f i ad_i486_gen.obj
 0001:00024570       ??0mulX_memNode@@QAE@XZ    08025570 f i ad_i486_gen.obj
 0001:00024590       ??0divX_regNode@@QAE@XZ    08025590 f i ad_i486_gen.obj
 0001:000245b0       ?rule@divX_regNode@@EBEIXZ 080255b0 f i ad_i486_gen.obj
 0001:000245c0       ??0divX_immNode@@QAE@XZ    080255c0 f i ad_i486_gen.obj
 0001:000245e0       ?rule@divX_immNode@@EBEIXZ 080255e0 f i ad_i486_gen.obj
 0001:000245f0       ??0divX_memNode@@QAE@XZ    080255f0 f i ad_i486_gen.obj
 0001:00024610       ??0sqrtXD_regNode@@QAE@XZ  08025610 f i ad_i486_gen.obj
 0001:00024630       ?rule@sqrtXD_regNode@@EBEIXZ 08025630 f i ad_i486_gen.obj
 0001:00024640       ??0sqrtXD_memNode@@QAE@XZ  08025640 f i ad_i486_gen.obj
 0001:00024660       ??0absF_regNode@@QAE@XZ    08025660 f i ad_i486_gen.obj
 0001:00024680       ?rule@absF_regNode@@EBEIXZ 08025680 f i ad_i486_gen.obj
 0001:00024690       ??0absX_regNode@@QAE@XZ    08025690 f i ad_i486_gen.obj
 0001:000246b0       ?rule@absX_regNode@@EBEIXZ 080256b0 f i ad_i486_gen.obj
 0001:000246c0       ??0negF_regNode@@QAE@XZ    080256c0 f i ad_i486_gen.obj
 0001:000246e0       ?rule@negF_regNode@@EBEIXZ 080256e0 f i ad_i486_gen.obj
 0001:000246f0       ?ideal_Opcode@negX_regNode@@EBEHXZ 080256f0 f i ad_i486_gen.obj
 0001:000246f0       ?ideal_Opcode@negF_regNode@@EBEHXZ 080256f0 f i ad_i486_gen.obj
 0001:00024700       ??0negX_regNode@@QAE@XZ    08025700 f i ad_i486_gen.obj
 0001:00024720       ?rule@negX_regNode@@EBEIXZ 08025720 f i ad_i486_gen.obj
 0001:00024730       ??0addF24_reg_memNode@@QAE@XZ 08025730 f i ad_i486_gen.obj
 0001:00024750       ??0addF_reg_memNode@@QAE@XZ 08025750 f i ad_i486_gen.obj
 0001:00024770       ??0addF24_mem_regNode@@QAE@XZ 08025770 f i ad_i486_gen.obj
 0001:00024790       ?rule@addF24_mem_regNode@@EBEIXZ 08025790 f i ad_i486_gen.obj
 0001:000247a0       ??0addF24_mem_ciscNode@@QAE@XZ 080257a0 f i ad_i486_gen.obj
 0001:000247c0       ??0addF24_mem_memNode@@QAE@XZ 080257c0 f i ad_i486_gen.obj
 0001:000247e0       ?rule@addF24_mem_memNode@@EBEIXZ 080257e0 f i ad_i486_gen.obj
 0001:000247f0       ??0addF24_reg_immNode@@QAE@XZ 080257f0 f i ad_i486_gen.obj
 0001:00024810       ?rule@addF24_reg_immNode@@EBEIXZ 08025810 f i ad_i486_gen.obj
 0001:00024820       ??0addF_reg_immNode@@QAE@XZ 08025820 f i ad_i486_gen.obj
 0001:00024840       ?rule@addF_reg_immNode@@EBEIXZ 08025840 f i ad_i486_gen.obj
 0001:00024850       ??0mulF24_regNode@@QAE@XZ  08025850 f i ad_i486_gen.obj
 0001:00024870       ?rule@mulF24_regNode@@EBEIXZ 08025870 f i ad_i486_gen.obj
 0001:00024880       ??0mulF_regNode@@QAE@XZ    08025880 f i ad_i486_gen.obj
 0001:000248a0       ?rule@mulF_regNode@@EBEIXZ 080258a0 f i ad_i486_gen.obj
 0001:000248b0       ??0mulF24_reg_memNode@@QAE@XZ 080258b0 f i ad_i486_gen.obj
 0001:000248d0       ??0mulF_reg_memNode@@QAE@XZ 080258d0 f i ad_i486_gen.obj
 0001:000248f0       ??0mulF24_mem_memNode@@QAE@XZ 080258f0 f i ad_i486_gen.obj
 0001:00024910       ?rule@mulF24_mem_memNode@@EBEIXZ 08025910 f i ad_i486_gen.obj
 0001:00024920       ??0mulF24_reg_immNode@@QAE@XZ 08025920 f i ad_i486_gen.obj
 0001:00024940       ?rule@mulF24_reg_immNode@@EBEIXZ 08025940 f i ad_i486_gen.obj
 0001:00024950       ??0mulF_reg_immNode@@QAE@XZ 08025950 f i ad_i486_gen.obj
 0001:00024970       ?rule@mulF_reg_immNode@@EBEIXZ 08025970 f i ad_i486_gen.obj
 0001:00024980       ??0mulF_reg_load1Node@@QAE@XZ 08025980 f i ad_i486_gen.obj
 0001:000249a0       ?rule@mulF_reg_load1Node@@EBEIXZ 080259a0 f i ad_i486_gen.obj
 0001:000249b0       ??0addF_mulF_reg_load1Node@@QAE@XZ 080259b0 f i ad_i486_gen.obj
 0001:000249d0       ??0addF_mulF_regNode@@QAE@XZ 080259d0 f i ad_i486_gen.obj
 0001:000249f0       ?rule@addF_mulF_regNode@@EBEIXZ 080259f0 f i ad_i486_gen.obj
 0001:00024a00       ??0subF_divF_regNode@@QAE@XZ 08025a00 f i ad_i486_gen.obj
 0001:00024a20       ?rule@subF_divF_regNode@@EBEIXZ 08025a20 f i ad_i486_gen.obj
 0001:00024a30       ??0divF24_regNode@@QAE@XZ  08025a30 f i ad_i486_gen.obj
 0001:00024a50       ?rule@divF24_regNode@@EBEIXZ 08025a50 f i ad_i486_gen.obj
 0001:00024a60       ??0divF_regNode@@QAE@XZ    08025a60 f i ad_i486_gen.obj
 0001:00024a80       ?rule@divF_regNode@@EBEIXZ 08025a80 f i ad_i486_gen.obj
 0001:00024a90       ??0modF24_regNode@@QAE@XZ  08025a90 f i ad_i486_gen.obj
 0001:00024ab0       ?rule@modF24_regNode@@EBEIXZ 08025ab0 f i ad_i486_gen.obj
 0001:00024ac0       ??0modF_regNode@@QAE@XZ    08025ac0 f i ad_i486_gen.obj
 0001:00024ae0       ?rule@modF_regNode@@EBEIXZ 08025ae0 f i ad_i486_gen.obj
 0001:00024af0       ?ideal_Opcode@modX_regNode@@EBEHXZ 08025af0 f i ad_i486_gen.obj
 0001:00024af0       ?ideal_Opcode@modF24_regNode@@EBEHXZ 08025af0 f i ad_i486_gen.obj
 0001:00024af0       ?ideal_Opcode@modF_regNode@@EBEHXZ 08025af0 f i ad_i486_gen.obj
 0001:00024b00       ??0modX_regNode@@QAE@XZ    08025b00 f i ad_i486_gen.obj
 0001:00024b20       ?rule@modX_regNode@@EBEIXZ 08025b20 f i ad_i486_gen.obj
 0001:00024b30       ??0roundFloat_mem_regNode@@QAE@XZ 08025b30 f i ad_i486_gen.obj
 0001:00024b50       ??0roundDouble_mem_regNode@@QAE@XZ 08025b50 f i ad_i486_gen.obj
 0001:00024b70       ?rule@roundDouble_mem_regNode@@EBEIXZ 08025b70 f i ad_i486_gen.obj
 0001:00024b80       ??0convD2F_regNode@@QAE@XZ 08025b80 f i ad_i486_gen.obj
 0001:00024ba0       ?rule@convD2F_regNode@@EBEIXZ 08025ba0 f i ad_i486_gen.obj
 0001:00024bb0       ??0convD2X_regNode@@QAE@XZ 08025bb0 f i ad_i486_gen.obj
 0001:00024bd0       ?rule@convD2X_regNode@@EBEIXZ 08025bd0 f i ad_i486_gen.obj
 0001:00024be0       ?size_of@loadL_volatileNode@@UBEIXZ 08025be0 f i ad_i486_gen.obj
 0001:00024be0       ?size_of@tanD_regNode@@UBEIXZ 08025be0 f i ad_i486_gen.obj
 0001:00024be0       ?ideal_Opcode@cmovL_regNode@@EBEHXZ 08025be0 f i ad_i486_gen.obj
 0001:00024be0       ?size_of@loadConL_low_onlyNode@@UBEIXZ 08025be0 f i ad_i486_gen.obj
 0001:00024be0       ?size_of@sinXD_regNode@@UBEIXZ 08025be0 f i ad_i486_gen.obj
 0001:00024be0       ?size_of@movDNode@@UBEIXZ  08025be0 f i ad_i486_gen.obj
 0001:00024be0       ?size_of@loadConDNode@@UBEIXZ 08025be0 f i ad_i486_gen.obj
 0001:00024be0       ?size_of@loadXDNode@@UBEIXZ 08025be0 f i ad_i486_gen.obj
 0001:00024be0       ?size_of@convP2BNode@@UBEIXZ 08025be0 f i ad_i486_gen.obj
 0001:00024be0       ?size_of@convI2X_regNode@@UBEIXZ 08025be0 f i ad_i486_gen.obj
 0001:00024be0       ?size_of@convI2XD_memNode@@UBEIXZ 08025be0 f i ad_i486_gen.obj
 0001:00024be0       ?size_of@convXD2I_reg_regNode@@UBEIXZ 08025be0 f i ad_i486_gen.obj
 0001:00024be0       ?size_of@movP_nocopyNode@@UBEIXZ 08025be0 f i ad_i486_gen.obj
 0001:00024be0       ?size_of@loadDNode@@UBEIXZ 08025be0 f i ad_i486_gen.obj
 0001:00024be0       ?size_of@loadFNode@@UBEIXZ 08025be0 f i ad_i486_gen.obj
 0001:00024be0       ?size_of@leaPIdxScaleOffNode@@UBEIXZ 08025be0 f i ad_i486_gen.obj
 0001:00024be0       ?ideal_Opcode@cmovLL_mem_LTGENode@@EBEHXZ 08025be0 f i ad_i486_gen.obj
 0001:00024be0       ?size_of@convI2F_memNode@@UBEIXZ 08025be0 f i ad_i486_gen.obj
 0001:00024be0       ?size_of@CreateExceptionNode@@UBEIXZ 08025be0 f i ad_i486_gen.obj
 0001:00024be0       ?size_of@loadSSINode@@UBEIXZ 08025be0 f i ad_i486_gen.obj
 0001:00024be0       ?ideal_Opcode@cmovLL_mem_LEGTNode@@EBEHXZ 08025be0 f i ad_i486_gen.obj
 0001:00024be0       ?ideal_Opcode@cmovLL_reg_EQNENode@@EBEHXZ 08025be0 f i ad_i486_gen.obj
 0001:00024be0       ?size_of@loadSSPNode@@UBEIXZ 08025be0 f i ad_i486_gen.obj
 0001:00024be0       ?size_of@tanXD_regNode@@UBEIXZ 08025be0 f i ad_i486_gen.obj
 0001:00024be0       ?ideal_Opcode@cmovLL_reg_LEGTNode@@EBEHXZ 08025be0 f i ad_i486_gen.obj
 0001:00024be0       ?size_of@tlsLoadPNode@@UBEIXZ 08025be0 f i ad_i486_gen.obj
 0001:00024be0       ?size_of@convD2I_reg_regNode@@UBEIXZ 08025be0 f i ad_i486_gen.obj
 0001:00024be0       ?size_of@convI2L_regNode@@UBEIXZ 08025be0 f i ad_i486_gen.obj
 0001:00024be0       ?size_of@convI2D_regNode@@UBEIXZ 08025be0 f i ad_i486_gen.obj
 0001:00024be0       ?size_of@movLNode@@UBEIXZ  08025be0 f i ad_i486_gen.obj
 0001:00024be0       ?size_of@convF2D_regNode@@UBEIXZ 08025be0 f i ad_i486_gen.obj
 0001:00024be0       ?size_of@convX2I_regNode@@UBEIXZ 08025be0 f i ad_i486_gen.obj
 0001:00024be0       ?ideal_Opcode@cmovL_regUNode@@EBEHXZ 08025be0 f i ad_i486_gen.obj
 0001:00024be0       ?size_of@loadBNode@@UBEIXZ 08025be0 f i ad_i486_gen.obj
 0001:00024be0       ?size_of@convXD2X_regNode@@UBEIXZ 08025be0 f i ad_i486_gen.obj
 0001:00024be0       ?size_of@convXD2L_reg_regNode@@UBEIXZ 08025be0 f i ad_i486_gen.obj
 0001:00024be0       ?size_of@convF2I_reg_regNode@@UBEIXZ 08025be0 f i ad_i486_gen.obj
 0001:00024be0       ?size_of@leaPIdxOffNode@@UBEIXZ 08025be0 f i ad_i486_gen.obj
 0001:00024be0       ?size_of@sinD_regNode@@UBEIXZ 08025be0 f i ad_i486_gen.obj
 0001:00024be0       ?size_of@loadConX0Node@@UBEIXZ 08025be0 f i ad_i486_gen.obj
 0001:00024be0       ?size_of@cosD_regNode@@UBEIXZ 08025be0 f i ad_i486_gen.obj
 0001:00024be0       ?size_of@absD_regNode@@UBEIXZ 08025be0 f i ad_i486_gen.obj
 0001:00024be0       ?size_of@loadRangeNode@@UBEIXZ 08025be0 f i ad_i486_gen.obj
 0001:00024be0       ?size_of@convX2XD_regNode@@UBEIXZ 08025be0 f i ad_i486_gen.obj
 0001:00024be0       ?size_of@sqrtD_regNode@@UBEIXZ 08025be0 f i ad_i486_gen.obj
 0001:00024be0       ?size_of@convL2F_regNode@@UBEIXZ 08025be0 f i ad_i486_gen.obj
 0001:00024be0       ?size_of@castP2INode@@UBEIXZ 08025be0 f i ad_i486_gen.obj
 0001:00024be0       ?size_of@movXNode@@UBEIXZ  08025be0 f i ad_i486_gen.obj
 0001:00024be0       ?size_of@convL2D_regNode@@UBEIXZ 08025be0 f i ad_i486_gen.obj
 0001:00024be0       ?size_of@negD_regNode@@UBEIXZ 08025be0 f i ad_i486_gen.obj
 0001:00024be0       ?size_of@jmpDirNode@@UBEIXZ 08025be0 f i ad_i486_gen.obj
 0001:00024be0       ?size_of@loadConXDNode@@UBEIXZ 08025be0 f i ad_i486_gen.obj
 0001:00024be0       ?size_of@loadSSFNode@@UBEIXZ 08025be0 f i ad_i486_gen.obj
 0001:00024be0       ?size_of@loadConPcNode@@UBEIXZ 08025be0 f i ad_i486_gen.obj
 0001:00024be0       ?size_of@roundDouble_mem_regNode@@UBEIXZ 08025be0 f i ad_i486_gen.obj
 0001:00024be0       ?size_of@leaPIdxScaleNode@@UBEIXZ 08025be0 f i ad_i486_gen.obj
 0001:00024be0       ?size_of@convL2XD_regNode@@UBEIXZ 08025be0 f i ad_i486_gen.obj
 0001:00024be0       ?ideal_Opcode@cmovLL_reg_LTGENode@@EBEHXZ 08025be0 f i ad_i486_gen.obj
 0001:00024be0       ?size_of@convF2L_reg_regNode@@UBEIXZ 08025be0 f i ad_i486_gen.obj
 0001:00024be0       ?size_of@loadConL0Node@@UBEIXZ 08025be0 f i ad_i486_gen.obj
 0001:00024be0       ?size_of@absXD_regNode@@UBEIXZ 08025be0 f i ad_i486_gen.obj
 0001:00024be0       ?size_of@loadLNode@@UBEIXZ 08025be0 f i ad_i486_gen.obj
 0001:00024be0       ?size_of@convI2F_SSFNode@@UBEIXZ 08025be0 f i ad_i486_gen.obj
 0001:00024be0       ?size_of@movI_nocopyNode@@UBEIXZ 08025be0 f i ad_i486_gen.obj
 0001:00024be0       ?size_of@loadCNode@@UBEIXZ 08025be0 f i ad_i486_gen.obj
 0001:00024be0       ?size_of@convX2L_reg_regNode@@UBEIXZ 08025be0 f i ad_i486_gen.obj
 0001:00024be0       ?size_of@negX_regNode@@UBEIXZ 08025be0 f i ad_i486_gen.obj
 0001:00024be0       ?size_of@storeSSPNode@@UBEIXZ 08025be0 f i ad_i486_gen.obj
 0001:00024be0       ?ideal_Opcode@cmovLL_mem_EQNENode@@EBEHXZ 08025be0 f i ad_i486_gen.obj
 0001:00024be0       ?opcode@eCXRegIOper@@UBEIXZ 08025be0 f i ad_i486_gen.obj
 0001:00024be0       ?size_of@loadConXD0Node@@UBEIXZ 08025be0 f i ad_i486_gen.obj
 0001:00024be0       ?size_of@leaP32Node@@UBEIXZ 08025be0 f i ad_i486_gen.obj
 0001:00024be0       ?size_of@loadConFNode@@UBEIXZ 08025be0 f i ad_i486_gen.obj
 0001:00024be0       ?size_of@loadConINode@@UBEIXZ 08025be0 f i ad_i486_gen.obj
 0001:00024be0       ?size_of@box_handleNode@@UBEIXZ 08025be0 f i ad_i486_gen.obj
 0001:00024be0       ?size_of@loadINode@@UBEIXZ 08025be0 f i ad_i486_gen.obj
 0001:00024be0       ?size_of@convI2F_regNode@@UBEIXZ 08025be0 f i ad_i486_gen.obj
 0001:00024be0       ?size_of@castP2LNode@@UBEIXZ 08025be0 f i ad_i486_gen.obj
 0001:00024be0       ?size_of@negF_regNode@@UBEIXZ 08025be0 f i ad_i486_gen.obj
 0001:00024be0       ?size_of@movINode@@UBEIXZ  08025be0 f i ad_i486_gen.obj
 0001:00024be0       ?size_of@convX2D_regNode@@UBEIXZ 08025be0 f i ad_i486_gen.obj
 0001:00024be0       ?size_of@convD2F_regNode@@UBEIXZ 08025be0 f i ad_i486_gen.obj
 0001:00024be0       ?size_of@convD2L_reg_regNode@@UBEIXZ 08025be0 f i ad_i486_gen.obj
 0001:00024be0       ?size_of@loadConLNode@@UBEIXZ 08025be0 f i ad_i486_gen.obj
 0001:00024be0       ?size_of@roundFloat_mem_regNode@@UBEIXZ 08025be0 f i ad_i486_gen.obj
 0001:00024be0       ?size_of@conv24I2F_regNode@@UBEIXZ 08025be0 f i ad_i486_gen.obj
 0001:00024be0       ?size_of@loadConPNode@@UBEIXZ 08025be0 f i ad_i486_gen.obj
 0001:00024be0       ?size_of@convI2BNode@@UBEIXZ 08025be0 f i ad_i486_gen.obj
 0001:00024be0       ?size_of@leaP8Node@@UBEIXZ 08025be0 f i ad_i486_gen.obj
 0001:00024be0       ?size_of@storeSSINode@@UBEIXZ 08025be0 f i ad_i486_gen.obj
 0001:00024be0       ?size_of@loadSNode@@UBEIXZ 08025be0 f i ad_i486_gen.obj
 0001:00024be0       ?size_of@convD2X_regNode@@UBEIXZ 08025be0 f i ad_i486_gen.obj
 0001:00024be0       ?size_of@prefetch0Node@@UBEIXZ 08025be0 f i ad_i486_gen.obj
 0001:00024be0       ?size_of@loadConXNode@@UBEIXZ 08025be0 f i ad_i486_gen.obj
 0001:00024be0       ?size_of@absF_regNode@@UBEIXZ 08025be0 f i ad_i486_gen.obj
 0001:00024be0       ?size_of@movPNode@@UBEIXZ  08025be0 f i ad_i486_gen.obj
 0001:00024be0       ?size_of@sqrtXD_memNode@@UBEIXZ 08025be0 f i ad_i486_gen.obj
 0001:00024be0       ?size_of@convI2F_SSF_memNode@@UBEIXZ 08025be0 f i ad_i486_gen.obj
 0001:00024be0       ?size_of@movFNode@@UBEIXZ  08025be0 f i ad_i486_gen.obj
 0001:00024be0       ?size_of@loadXNode@@UBEIXZ 08025be0 f i ad_i486_gen.obj
 0001:00024be0       ?size_of@convL2X_regNode@@UBEIXZ 08025be0 f i ad_i486_gen.obj
 0001:00024be0       ?size_of@cosXD_regNode@@UBEIXZ 08025be0 f i ad_i486_gen.obj
 0001:00024be0       ?size_of@loadConI0Node@@UBEIXZ 08025be0 f i ad_i486_gen.obj
 0001:00024be0       ?size_of@loadSSDNode@@UBEIXZ 08025be0 f i ad_i486_gen.obj
 0001:00024be0       ?size_of@negXD_regNode@@UBEIXZ 08025be0 f i ad_i486_gen.obj
 0001:00024be0       ?size_of@convI2D_memNode@@UBEIXZ 08025be0 f i ad_i486_gen.obj
 0001:00024be0       ?size_of@absX_regNode@@UBEIXZ 08025be0 f i ad_i486_gen.obj
 0001:00024be0       ?size_of@convL2I_regNode@@UBEIXZ 08025be0 f i ad_i486_gen.obj
 0001:00024be0       ?size_of@loadLLockedNode@@UBEIXZ 08025be0 f i ad_i486_gen.obj
 0001:00024be0       ?size_of@prefetch1Node@@UBEIXZ 08025be0 f i ad_i486_gen.obj
 0001:00024be0       ?size_of@jmpDir_shortNode@@UBEIXZ 08025be0 f i ad_i486_gen.obj
 0001:00024bf0       ??0convXD2X_regNode@@QAE@XZ 08025bf0 f i ad_i486_gen.obj
 0001:00024c10       ?cisc_operand@addD_regNode@@EBEHXZ 08025c10 f i ad_i486_gen.obj
 0001:00024c10       ?ideal_reg@XorINode@@UBEIXZ 08025c10 f i ad_i486_gen.obj
 0001:00024c10       ?oper_input_base@andI_mem_immNode@@EBEIXZ 08025c10 f i ad_i486_gen.obj
 0001:00024c10       ?cisc_operand@andI_eRegNode@@EBEHXZ 08025c10 f i ad_i486_gen.obj
 0001:00024c10       ?num_opnds@leaP8Node@@EBEIXZ 08025c10 f i ad_i486_gen.obj
 0001:00024c10       ?num_opnds@loadDNode@@EBEIXZ 08025c10 f i ad_i486_gen.obj
 0001:00024c10       ?oper_input_base@andI_mem_eRegNode@@EBEIXZ 08025c10 f i ad_i486_gen.obj
 0001:00024c10       ?number_of_generations@TwoGenerationCollectorPolicy@@UAEHXZ 08025c10 f i ad_i486_gen.obj
 0001:00024c10       ?num_opnds@loadSSINode@@EBEIXZ 08025c10 f i ad_i486_gen.obj
 0001:00024c10       ?num_opnds@prefetch0Node@@EBEIXZ 08025c10 f i ad_i486_gen.obj
 0001:00024c10       ?num_opnds@convI2D_memNode@@EBEIXZ 08025c10 f i ad_i486_gen.obj
 0001:00024c10       ?num_opnds@loadConL_low_onlyNode@@EBEIXZ 08025c10 f i ad_i486_gen.obj
 0001:00024c10       ?num_edges@indIndexScale_win95_safeOper@@EBEIXZ 08025c10 f i ad_i486_gen.obj
 0001:00024c10       ?cisc_operand@subL_eRegNode@@EBEHXZ 08025c10 f i ad_i486_gen.obj
 0001:00024c10       ?oper_input_base@cmovI_memuNode@@EBEIXZ 08025c10 f i ad_i486_gen.obj
 0001:00024c10       ?num_opnds@convI2F_regNode@@EBEIXZ 08025c10 f i ad_i486_gen.obj
 0001:00024c10       ?cisc_operand@mulF_regNode@@EBEHXZ 08025c10 f i ad_i486_gen.obj
 0001:00024c10       ?num_edges@indIndexOffsetOper@@EBEIXZ 08025c10 f i ad_i486_gen.obj
 0001:00024c10       ?cisc_operand@addF24_mem_regNode@@EBEHXZ 08025c10 f i ad_i486_gen.obj
 0001:00024c10       ?num_opnds@loadConINode@@EBEIXZ 08025c10 f i ad_i486_gen.obj
 0001:00024c10       ?ideal_reg@DivINode@@UBEIXZ 08025c10 f i ad_i486_gen.obj
 0001:00024c10       ?oper_input_base@orI_mem_immNode@@EBEIXZ 08025c10 f i ad_i486_gen.obj
 0001:00024c10       ?num_opnds@movFNode@@EBEIXZ 08025c10 f i ad_i486_gen.obj
 0001:00024c10       ?num_edges@indIndexOffset_win95_safeOper@@EBEIXZ 08025c10 f i ad_i486_gen.obj
 0001:00024c10       ?num_opnds@CallInterpreterDirectNode@@EBEIXZ 08025c10 f i ad_i486_gen.obj
 0001:00024c10       ?num_opnds@loadXNode@@EBEIXZ 08025c10 f i ad_i486_gen.obj
 0001:00024c10       ?oper_input_base@cmpXD_ccmemNode@@EBEIXZ 08025c10 f i ad_i486_gen.obj
 0001:00024c10       ?oper_input_base@addL_eReg_memNode@@EBEIXZ 08025c10 f i ad_i486_gen.obj
 0001:00024c10       ?ideal_reg@SubINode@@UBEIXZ 08025c10 f i ad_i486_gen.obj
 0001:00024c10       ?cisc_operand@addF_regNode@@EBEHXZ 08025c10 f i ad_i486_gen.obj
 0001:00024c10       ?ideal_reg@Conv2BNode@@UBEIXZ 08025c10 f i ad_i486_gen.obj
 0001:00024c10       ?num_opnds@tanXD_regNode@@EBEIXZ 08025c10 f i ad_i486_gen.obj
 0001:00024c10       ?ideal_reg@CmpF3Node@@UBEIXZ 08025c10 f i ad_i486_gen.obj
 0001:00024c10       ?num_opnds@sqrtXD_memNode@@EBEIXZ 08025c10 f i ad_i486_gen.obj
 0001:00024c10       ?cisc_operand@cmpXD_ccNode@@EBEHXZ 08025c10 f i ad_i486_gen.obj
 0001:00024c10       ?num_opnds@loadLLockedNode@@EBEIXZ 08025c10 f i ad_i486_gen.obj
 0001:00024c10       ?ideal_reg@BoolNode@@UBEIXZ 08025c10 f i ad_i486_gen.obj
 0001:00024c10       ?oper_input_base@leaP8Node@@EBEIXZ 08025c10 f i ad_i486_gen.obj
 0001:00024c10       ?num_opnds@convD2X_regNode@@EBEIXZ 08025c10 f i ad_i486_gen.obj
 0001:00024c10       ?num_opnds@loadConFNode@@EBEIXZ 08025c10 f i ad_i486_gen.obj
 0001:00024c10       ?num_opnds@loadINode@@EBEIXZ 08025c10 f i ad_i486_gen.obj
 0001:00024c10       ?cisc_operand@mulXD_regNode@@EBEHXZ 08025c10 f i ad_i486_gen.obj
 0001:00024c10       ?oper_input_base@loadPLockedNode@@EBEIXZ 08025c10 f i ad_i486_gen.obj
 0001:00024c10       ?cisc_operand@divX_regNode@@EBEHXZ 08025c10 f i ad_i486_gen.obj
 0001:00024c10       ?num_opnds@convI2L_regNode@@EBEIXZ 08025c10 f i ad_i486_gen.obj
 0001:00024c10       ?oper_input_base@xorI_eReg_memNode@@EBEIXZ 08025c10 f i ad_i486_gen.obj
 0001:00024c10       ?oper_input_base@xorl_eReg_memNode@@EBEIXZ 08025c10 f i ad_i486_gen.obj
 0001:00024c10       ?num_opnds@convL2I_regNode@@EBEIXZ 08025c10 f i ad_i486_gen.obj
 0001:00024c10       ?num_opnds@loadConXNode@@EBEIXZ 08025c10 f i ad_i486_gen.obj
 0001:00024c10       ?oper_input_base@subD_reg_memNode@@EBEIXZ 08025c10 f i ad_i486_gen.obj
 0001:00024c10       ?oper_input_base@storeCNode@@EBEIXZ 08025c10 f i ad_i486_gen.obj
 0001:00024c10       ?ideal_reg@CmpLTMaskNode@@UBEIXZ 08025c10 f i ad_i486_gen.obj
 0001:00024c10       ?ideal_reg@StrCompNode@@UBEIXZ 08025c10 f i ad_i486_gen.obj
 0001:00024c10       ?oper_input_base@storeINode@@EBEIXZ 08025c10 f i ad_i486_gen.obj
 0001:00024c10       ?oper_input_base@decI_memNode@@EBEIXZ 08025c10 f i ad_i486_gen.obj
 0001:00024c10       ?num_opnds@loadPLockedNode@@EBEIXZ 08025c10 f i ad_i486_gen.obj
 0001:00024c10       ?cisc_operand@addL_eRegNode@@EBEHXZ 08025c10 f i ad_i486_gen.obj
 0001:00024c10       ?num_opnds@box_handleNode@@EBEIXZ 08025c10 f i ad_i486_gen.obj
 0001:00024c10       ?oper_input_base@addD_reg_memNode@@EBEIXZ 08025c10 f i ad_i486_gen.obj
 0001:00024c10       ?num_opnds@convF2L_reg_regNode@@EBEIXZ 08025c10 f i ad_i486_gen.obj
 0001:00024c10       ?num_opnds@loadXDNode@@EBEIXZ 08025c10 f i ad_i486_gen.obj
 0001:00024c10       ?num_edges@indIndexOper@@EBEIXZ 08025c10 f i ad_i486_gen.obj
 0001:00024c10       ?num_opnds@movXNode@@EBEIXZ 08025c10 f i ad_i486_gen.obj
 0001:00024c10       ?oper_input_base@cmovII_mem_LEGTNode@@EBEIXZ 08025c10 f i ad_i486_gen.obj
 0001:00024c10       ?num_opnds@convXD2X_regNode@@EBEIXZ 08025c10 f i ad_i486_gen.obj
 0001:00024c10       ?num_opnds@convF2I_reg_regNode@@EBEIXZ 08025c10 f i ad_i486_gen.obj
 0001:00024c10       ?less@cmpOpUOper@@UBEHXZ   08025c10 f i ad_i486_gen.obj
 0001:00024c10       ?oper_input_base@subL_eReg_memNode@@EBEIXZ 08025c10 f i ad_i486_gen.obj
 0001:00024c10       ?cell_count@JumpData@@UAEHXZ 08025c10 f i ad_i486_gen.obj
 0001:00024c10       ?num_opnds@convI2F_memNode@@EBEIXZ 08025c10 f i ad_i486_gen.obj
 0001:00024c10       ?num_opnds@roundDouble_mem_regNode@@EBEIXZ 08025c10 f i ad_i486_gen.obj
 0001:00024c10       ?num_opnds@roundFloat_mem_regNode@@EBEIXZ 08025c10 f i ad_i486_gen.obj
 0001:00024c10       ?oper_input_base@divX_memNode@@EBEIXZ 08025c10 f i ad_i486_gen.obj
 0001:00024c10       ?oper_input_base@addI_mem_immNode@@EBEIXZ 08025c10 f i ad_i486_gen.obj
 0001:00024c10       ?oper_input_base@storeDNode@@EBEIXZ 08025c10 f i ad_i486_gen.obj
 0001:00024c10       ?oper_input_base@orl_eReg_memNode@@EBEIXZ 08025c10 f i ad_i486_gen.obj
 0001:00024c10       ?oper_input_base@storeLConditionalNode@@EBEIXZ 08025c10 f i ad_i486_gen.obj
 0001:00024c10       ?oper_input_base@subI_mem_eRegNode@@EBEIXZ 08025c10 f i ad_i486_gen.obj
 0001:00024c10       ?oper_input_base@loadLLockedNode@@EBEIXZ 08025c10 f i ad_i486_gen.obj
 0001:00024c10       ?num_opnds@loadBNode@@EBEIXZ 08025c10 f i ad_i486_gen.obj
 0001:00024c10       ?ideal_reg@ConvF2INode@@UBEIXZ 08025c10 f i ad_i486_gen.obj
 0001:00024c10       ?num_opnds@storeSSINode@@EBEIXZ 08025c10 f i ad_i486_gen.obj
 0001:00024c10       ?oper_input_base@convI2F_memNode@@EBEIXZ 08025c10 f i ad_i486_gen.obj
 0001:00024c10       ?oper_input_base@loadCNode@@EBEIXZ 08025c10 f i ad_i486_gen.obj
 0001:00024c10       ?cisc_operand@mulI_eRegNode@@EBEHXZ 08025c10 f i ad_i486_gen.obj
 0001:00024c10       ?oper_input_base@storeF_DroundedNode@@EBEIXZ 08025c10 f i ad_i486_gen.obj
 0001:00024c10       ?oper_input_base@storeLConditional_flagsNode@@EBEIXZ 08025c10 f i ad_i486_gen.obj
 0001:00024c10       ?oper_input_base@addP_eRegNode@@EBEIXZ 08025c10 f i ad_i486_gen.obj
 0001:00024c10       ?num_opnds@loadSNode@@EBEIXZ 08025c10 f i ad_i486_gen.obj
 0001:00024c10       ?oper_input_base@convI2F_SSF_memNode@@EBEIXZ 08025c10 f i ad_i486_gen.obj
 0001:00024c10       ?ideal_reg@CastP2INode@@UBEIXZ 08025c10 f i ad_i486_gen.obj
 0001:00024c10       ?cisc_operand@cmpX_regNode@@EBEHXZ 08025c10 f i ad_i486_gen.obj
 0001:00024c10       ?oper_input_base@xorI_mem_eRegNode@@EBEIXZ 08025c10 f i ad_i486_gen.obj
 0001:00024c10       ?num_opnds@loadKlassNode@@EBEIXZ 08025c10 f i ad_i486_gen.obj
 0001:00024c10       ?oper_input_base@cmpX_regmemNode@@EBEIXZ 08025c10 f i ad_i486_gen.obj
 0001:00024c10       ?oper_input_base@storeLNode@@EBEIXZ 08025c10 f i ad_i486_gen.obj
 0001:00024c10       ?oper_input_base@mulF24_reg_memNode@@EBEIXZ 08025c10 f i ad_i486_gen.obj
 0001:00024c10       ?ideal_reg@PartialSubtypeCheckNode@@UBEIXZ 08025c10 f i ad_i486_gen.obj
 0001:00024c10       ?cisc_operand@xorl_eRegNode@@EBEHXZ 08025c10 f i ad_i486_gen.obj
 0001:00024c10       ?num_opnds@loadConL0Node@@EBEIXZ 08025c10 f i ad_i486_gen.obj
 0001:00024c10       ?num_opnds@absF_regNode@@EBEIXZ 08025c10 f i ad_i486_gen.obj
 0001:00024c10       ?cisc_operand@subX_regNode@@EBEHXZ 08025c10 f i ad_i486_gen.obj
 0001:00024c10       ?num_edges@indIndexScaleOffsetOper@@EBEIXZ 08025c10 f i ad_i486_gen.obj
 0001:00024c10       ?ideal_reg@ModINode@@UBEIXZ 08025c10 f i ad_i486_gen.obj
 0001:00024c10       ?num_opnds@convL2XD_regNode@@EBEIXZ 08025c10 f i ad_i486_gen.obj
 0001:00024c10       ?oper_input_base@loadSNode@@EBEIXZ 08025c10 f i ad_i486_gen.obj
 0001:00024c10       ?oper_input_base@loadINode@@EBEIXZ 08025c10 f i ad_i486_gen.obj
 0001:00024c10       ?cisc_operand@andL_eRegNode@@EBEHXZ 08025c10 f i ad_i486_gen.obj
 0001:00024c10       ?oper_input_base@storePConditionalNode@@EBEIXZ 08025c10 f i ad_i486_gen.obj
 0001:00024c10       ?cisc_operand@xorI_eRegNode@@EBEHXZ 08025c10 f i ad_i486_gen.obj
 0001:00024c10       ?num_opnds@convF2D_regNode@@EBEIXZ 08025c10 f i ad_i486_gen.obj
 0001:00024c10       ?oper_input_base@storeImmCMNode@@EBEIXZ 08025c10 f i ad_i486_gen.obj
 0001:00024c10       ?num_opnds@convX2XD_regNode@@EBEIXZ 08025c10 f i ad_i486_gen.obj
 0001:00024c10       ?num_opnds@convXD2I_reg_regNode@@EBEIXZ 08025c10 f i ad_i486_gen.obj
 0001:00024c10       ?num_opnds@negD_regNode@@EBEIXZ 08025c10 f i ad_i486_gen.obj
 0001:00024c10       ?ideal_reg@URShiftINode@@UBEIXZ 08025c10 f i ad_i486_gen.obj
 0001:00024c10       ?num_opnds@convX2D_regNode@@EBEIXZ 08025c10 f i ad_i486_gen.obj
 0001:00024c10       ?oper_input_base@mulI_mem_immNode@@EBEIXZ 08025c10 f i ad_i486_gen.obj
 0001:00024c10       ?oper_input_base@cmpXD_regmemNode@@EBEIXZ 08025c10 f i ad_i486_gen.obj
 0001:00024c10       ?oper_input_base@leaPIdxScaleNode@@EBEIXZ 08025c10 f i ad_i486_gen.obj
 0001:00024c10       ?oper_input_base@addI_mem_eRegNode@@EBEIXZ 08025c10 f i ad_i486_gen.obj
 0001:00024c10       ?oper_input_base@rep_stosNode@@EBEIXZ 08025c10 f i ad_i486_gen.obj
 0001:00024c10       ?num_opnds@negX_regNode@@EBEIXZ 08025c10 f i ad_i486_gen.obj
 0001:00024c10       ?num_opnds@loadL_volatileNode@@EBEIXZ 08025c10 f i ad_i486_gen.obj
 0001:00024c10       ?oper_input_base@loadLNode@@EBEIXZ 08025c10 f i ad_i486_gen.obj
 0001:00024c10       ?num_opnds@CallCompiledJavaDirectNode@@EBEIXZ 08025c10 f i ad_i486_gen.obj
 0001:00024c10       ?num_opnds@sqrtXD_regNode@@EBEIXZ 08025c10 f i ad_i486_gen.obj
 0001:00024c10       ?num_opnds@cosD_regNode@@EBEIXZ 08025c10 f i ad_i486_gen.obj
 0001:00024c10       ?num_opnds@castPPNode@@EBEIXZ 08025c10 f i ad_i486_gen.obj
 0001:00024c10       ?cisc_operand@mulX_regNode@@EBEHXZ 08025c10 f i ad_i486_gen.obj
 0001:00024c10       ?num_opnds@negXD_regNode@@EBEIXZ 08025c10 f i ad_i486_gen.obj
 0001:00024c10       ?num_edges@indIndexScaleOffset_win95_safeOper@@EBEIXZ 08025c10 f i ad_i486_gen.obj
 0001:00024c10       ?num_opnds@convL2D_regNode@@EBEIXZ 08025c10 f i ad_i486_gen.obj
 0001:00024c10       ?cisc_operand@orI_eRegNode@@EBEHXZ 08025c10 f i ad_i486_gen.obj
 0001:00024c10       ?oper_input_base@storeF_roundedNode@@EBEIXZ 08025c10 f i ad_i486_gen.obj
 0001:00024c10       ?ideal_reg@StoreLConditionalNode@@UBEIXZ 08025c10 f i ad_i486_gen.obj
 0001:00024c10       ?num_opnds@prefetch1Node@@EBEIXZ 08025c10 f i ad_i486_gen.obj
 0001:00024c10       ?num_opnds@sqrtD_regNode@@EBEIXZ 08025c10 f i ad_i486_gen.obj
 0001:00024c10       ?oper_input_base@leaPIdxScaleOffNode@@EBEIXZ 08025c10 f i ad_i486_gen.obj
 0001:00024c10       ?oper_input_base@andI_eReg_memNode@@EBEIXZ 08025c10 f i ad_i486_gen.obj
 0001:00024c10       ?oper_input_base@addP_eReg_immNode@@EBEIXZ 08025c10 f i ad_i486_gen.obj
 0001:00024c10       ?type@virtual_call_Relocation@@EAE?AW4relocType@relocInfo@@XZ 08025c10 f i ad_i486_gen.obj
 0001:00024c10       ?cisc_operand@mulF24_regNode@@EBEHXZ 08025c10 f i ad_i486_gen.obj
 0001:00024c10       ?oper_input_base@loadDNode@@EBEIXZ 08025c10 f i ad_i486_gen.obj
 0001:00024c10       ?num_opnds@leaPIdxScaleOffNode@@EBEIXZ 08025c10 f i ad_i486_gen.obj
 0001:00024c10       ?oper_input_base@storeFNode@@EBEIXZ 08025c10 f i ad_i486_gen.obj
 0001:00024c10       ?num_opnds@absXD_regNode@@EBEIXZ 08025c10 f i ad_i486_gen.obj
 0001:00024c10       ?num_opnds@movPNode@@EBEIXZ 08025c10 f i ad_i486_gen.obj
 0001:00024c10       ?ideal_reg@OrINode@@UBEIXZ 08025c10 f i ad_i486_gen.obj
 0001:00024c10       ?oper_input_base@convI2XD_memNode@@EBEIXZ 08025c10 f i ad_i486_gen.obj
 0001:00024c10       ?oper_input_base@loadFNode@@EBEIXZ 08025c10 f i ad_i486_gen.obj
 0001:00024c10       ?num_opnds@convXD2L_reg_regNode@@EBEIXZ 08025c10 f i ad_i486_gen.obj
 0001:00024c10       ?ideal_reg@LShiftINode@@UBEIXZ 08025c10 f i ad_i486_gen.obj
 0001:00024c10       ?num_opnds@CallDynamicJavaDirectNode@@EBEIXZ 08025c10 f i ad_i486_gen.obj
 0001:00024c10       ?oper_input_base@addF24_mem_ciscNode@@EBEIXZ 08025c10 f i ad_i486_gen.obj
 0001:00024c10       ?cisc_operand@subXD_regNode@@EBEHXZ 08025c10 f i ad_i486_gen.obj
 0001:00024c10       ?cisc_operand@cmpXD_regNode@@EBEHXZ 08025c10 f i ad_i486_gen.obj
 0001:00024c10       ?num_opnds@convL2X_regNode@@EBEIXZ 08025c10 f i ad_i486_gen.obj
 0001:00024c10       ?num_opnds@castP2INode@@EBEIXZ 08025c10 f i ad_i486_gen.obj
 0001:00024c10       ?oper_input_base@storeXNode@@EBEIXZ 08025c10 f i ad_i486_gen.obj
 0001:00024c10       ?cisc_operand@compI_eRegNode@@EBEHXZ 08025c10 f i ad_i486_gen.obj
 0001:00024c10       ?num_opnds@loadFNode@@EBEIXZ 08025c10 f i ad_i486_gen.obj
 0001:00024c10       ?num_opnds@leaPIdxOffNode@@EBEIXZ 08025c10 f i ad_i486_gen.obj
 0001:00024c10       ?num_opnds@checkCastPPNode@@EBEIXZ 08025c10 f i ad_i486_gen.obj
 0001:00024c10       ?num_opnds@storeSSPNode@@EBEIXZ 08025c10 f i ad_i486_gen.obj
 0001:00024c10       ?oper_input_base@cmovLL_mem_LEGTNode@@EBEIXZ 08025c10 f i ad_i486_gen.obj
 0001:00024c10       ?oper_input_base@cmovI_memNode@@EBEIXZ 08025c10 f i ad_i486_gen.obj
 0001:00024c10       ?oper_input_base@loadKlassNode@@EBEIXZ 08025c10 f i ad_i486_gen.obj
 0001:00024c10       ?oper_input_base@subI_eReg_memNode@@EBEIXZ 08025c10 f i ad_i486_gen.obj
 0001:00024c10       ?num_opnds@movP_nocopyNode@@EBEIXZ 08025c10 f i ad_i486_gen.obj
 0001:00024c10       ?num_opnds@jmpDir_shortNode@@EBEIXZ 08025c10 f i ad_i486_gen.obj
 0001:00024c10       ?num_opnds@movI_nocopyNode@@EBEIXZ 08025c10 f i ad_i486_gen.obj
 0001:00024c10       ?oper_input_base@storeImmBNode@@EBEIXZ 08025c10 f i ad_i486_gen.obj
 0001:00024c10       ?cisc_operand@subI_eRegNode@@EBEHXZ 08025c10 f i ad_i486_gen.obj
 0001:00024c10       ?oper_input_base@loadUBNode@@EBEIXZ 08025c10 f i ad_i486_gen.obj
 0001:00024c10       ?oper_input_base@convI2D_memNode@@EBEIXZ 08025c10 f i ad_i486_gen.obj
 0001:00024c10       ?num_opnds@convD2I_reg_regNode@@EBEIXZ 08025c10 f i ad_i486_gen.obj
 0001:00024c10       ?num_opnds@loadConPNode@@EBEIXZ 08025c10 f i ad_i486_gen.obj
 0001:00024c10       ?oper_input_base@mulINode@@EBEIXZ 08025c10 f i ad_i486_gen.obj
 0001:00024c10       ?oper_input_base@loadXDNode@@EBEIXZ 08025c10 f i ad_i486_gen.obj
 0001:00024c10       ?oper_input_base@storeImmINode@@EBEIXZ 08025c10 f i ad_i486_gen.obj
 0001:00024c10       ?ideal_reg@ConvL2INode@@UBEIXZ 08025c10 f i ad_i486_gen.obj
 0001:00024c10       ?oper_input_base@prefetch1Node@@EBEIXZ 08025c10 f i ad_i486_gen.obj
 0001:00024c10       ?num_opnds@movINode@@EBEIXZ 08025c10 f i ad_i486_gen.obj
 0001:00024c10       ?oper_input_base@divXD_memNode@@EBEIXZ 08025c10 f i ad_i486_gen.obj
 0001:00024c10       ?oper_input_base@mulF_reg_load1Node@@EBEIXZ 08025c10 f i ad_i486_gen.obj
 0001:00024c10       ?opcode@sRegIOper@@UBEIXZ  08025c10 f i ad_i486_gen.obj
 0001:00024c10       ?oper_input_base@loadRangeNode@@EBEIXZ 08025c10 f i ad_i486_gen.obj
 0001:00024c10       ?oper_input_base@cmovLL_mem_LTGENode@@EBEIXZ 08025c10 f i ad_i486_gen.obj
 0001:00024c10       ?num_opnds@convD2L_reg_regNode@@EBEIXZ 08025c10 f i ad_i486_gen.obj
 0001:00024c10       ?cisc_operand@addF24_regNode@@EBEHXZ 08025c10 f i ad_i486_gen.obj
 0001:00024c10       ?num_opnds@loadCNode@@EBEIXZ 08025c10 f i ad_i486_gen.obj
 0001:00024c10       ?oper_input_base@storeL_volatileNode@@EBEIXZ 08025c10 f i ad_i486_gen.obj
 0001:00024c10       ?ideal_reg@MaxINode@@UBEIXZ 08025c10 f i ad_i486_gen.obj
 0001:00024c10       ?oper_input_base@loadL_volatileNode@@EBEIXZ 08025c10 f i ad_i486_gen.obj
 0001:00024c10       ?num_opnds@absX_regNode@@EBEIXZ 08025c10 f i ad_i486_gen.obj
 0001:00024c10       ?oper_input_base@loadPNode@@EBEIXZ 08025c10 f i ad_i486_gen.obj
 0001:00024c10       ?oper_input_base@addD_mem_regNode@@EBEIXZ 08025c10 f i ad_i486_gen.obj
 0001:00024c10       ?num_opnds@convX2I_regNode@@EBEIXZ 08025c10 f i ad_i486_gen.obj
 0001:00024c10       ?num_opnds@loadConXDNode@@EBEIXZ 08025c10 f i ad_i486_gen.obj
 0001:00024c10       ?cisc_operand@subD_regNode@@EBEHXZ 08025c10 f i ad_i486_gen.obj
 0001:00024c10       ?oper_input_base@cmovII_mem_EQNENode@@EBEIXZ 08025c10 f i ad_i486_gen.obj
 0001:00024c10       ?cisc_operand@addX_regNode@@EBEHXZ 08025c10 f i ad_i486_gen.obj
 0001:00024c10       ?oper_input_base@addF_mulF_reg_load1Node@@EBEIXZ 08025c10 f i ad_i486_gen.obj
 0001:00024c10       ?ideal_reg@LoadBNode@@UBEIXZ 08025c10 f i ad_i486_gen.obj
 0001:00024c10       ?oper_input_base@sarI_mem_1Node@@EBEIXZ 08025c10 f i ad_i486_gen.obj
 0001:00024c10       ?oper_input_base@storeF_immNode@@EBEIXZ 08025c10 f i ad_i486_gen.obj
 0001:00024c10       ?ideal_Opcode@storeSSINode@@EBEHXZ 08025c10 f i ad_i486_gen.obj
 0001:00024c10       ?num_opnds@convI2XD_regNode@@EBEIXZ 08025c10 f i ad_i486_gen.obj
 0001:00024c10       ?num_opnds@loadConX0Node@@EBEIXZ 08025c10 f i ad_i486_gen.obj
 0001:00024c10       ?num_opnds@movDNode@@EBEIXZ 08025c10 f i ad_i486_gen.obj
 0001:00024c10       ?num_opnds@tlsLoadPNode@@EBEIXZ 08025c10 f i ad_i486_gen.obj
 0001:00024c10       ?cisc_operand@compU_eRegNode@@EBEHXZ 08025c10 f i ad_i486_gen.obj
 0001:00024c10       ?oper_input_base@cmovII_mem_LTGENode@@EBEIXZ 08025c10 f i ad_i486_gen.obj
 0001:00024c10       ?ideal_reg@MulINode@@UBEIXZ 08025c10 f i ad_i486_gen.obj
 0001:00024c10       ?num_opnds@convX2L_reg_regNode@@EBEIXZ 08025c10 f i ad_i486_gen.obj
 0001:00024c10       ?oper_input_base@subX_memNode@@EBEIXZ 08025c10 f i ad_i486_gen.obj
 0001:00024c10       ?num_opnds@convL2F_regNode@@EBEIXZ 08025c10 f i ad_i486_gen.obj
 0001:00024c10       ?kind@GenCollectedHeap@@UAE?AW4Name@CollectedHeap@@XZ 08025c10 f i ad_i486_gen.obj
 0001:00024c10       ?num_opnds@CallRuntimeDirectNode@@EBEIXZ 08025c10 f i ad_i486_gen.obj
 0001:00024c10       ?num_opnds@loadConDNode@@EBEIXZ 08025c10 f i ad_i486_gen.obj
 0001:00024c10       ?num_opnds@loadSSPNode@@EBEIXZ 08025c10 f i ad_i486_gen.obj
 0001:00024c10       ?oper_input_base@loadXNode@@EBEIXZ 08025c10 f i ad_i486_gen.obj
 0001:00024c10       ?num_opnds@convI2X_regNode@@EBEIXZ 08025c10 f i ad_i486_gen.obj
 0001:00024c10       ?ideal_reg@CmpD3Node@@UBEIXZ 08025c10 f i ad_i486_gen.obj
 0001:00024c10       ?num_opnds@jmpDirNode@@EBEIXZ 08025c10 f i ad_i486_gen.obj
 0001:00024c10       ?kind@TenuredGeneration@@UAE?AW4Name@Generation@@XZ 08025c10 f i ad_i486_gen.obj
 0001:00024c10       ?num_opnds@convD2F_regNode@@EBEIXZ 08025c10 f i ad_i486_gen.obj
 0001:00024c10       ?cisc_operand@addXD_regNode@@EBEHXZ 08025c10 f i ad_i486_gen.obj
 0001:00024c10       ?oper_input_base@testP_Reg_memNode@@EBEIXZ 08025c10 f i ad_i486_gen.obj
 0001:00024c10       ?oper_input_base@storeImmPNode@@EBEIXZ 08025c10 f i ad_i486_gen.obj
 0001:00024c10       ?oper_input_base@compU_eReg_memNode@@EBEIXZ 08025c10 f i ad_i486_gen.obj
 0001:00024c10       ?oper_input_base@storeXDNode@@EBEIXZ 08025c10 f i ad_i486_gen.obj
 0001:00024c10       ?num_opnds@cosXD_regNode@@EBEIXZ 08025c10 f i ad_i486_gen.obj
 0001:00024c10       ?cisc_operand@cmpX_ccNode@@EBEHXZ 08025c10 f i ad_i486_gen.obj
 0001:00024c10       ?num_opnds@castL2PNode@@EBEIXZ 08025c10 f i ad_i486_gen.obj
 0001:00024c10       ?ideal_reg@CmpL3Node@@UBEIXZ 08025c10 f i ad_i486_gen.obj
 0001:00024c10       ?oper_input_base@leaP_eReg_immINode@@EBEIXZ 08025c10 f i ad_i486_gen.obj
 0001:00024c10       ?oper_input_base@compP_mem_eRegNode@@EBEIXZ 08025c10 f i ad_i486_gen.obj
 0001:00024c10       ?num_opnds@sinXD_regNode@@EBEIXZ 08025c10 f i ad_i486_gen.obj
 0001:00024c10       ?num_opnds@CallNativeDirectNode@@EBEIXZ 08025c10 f i ad_i486_gen.obj
 0001:00024c10       ?num_opnds@absD_regNode@@EBEIXZ 08025c10 f i ad_i486_gen.obj
 0001:00024c10       ?cisc_operand@orl_eRegNode@@EBEHXZ 08025c10 f i ad_i486_gen.obj
 0001:00024c10       ?oper_input_base@leaPIdxOffNode@@EBEIXZ 08025c10 f i ad_i486_gen.obj
 0001:00024c10       ?ideal_reg@AndINode@@UBEIXZ 08025c10 f i ad_i486_gen.obj
 0001:00024c10       ?oper_input_base@compI_eReg_memNode@@EBEIXZ 08025c10 f i ad_i486_gen.obj
 0001:00024c10       ?num_opnds@loadSSDNode@@EBEIXZ 08025c10 f i ad_i486_gen.obj
 0001:00024c10       ?ideal_reg@RShiftINode@@UBEIXZ 08025c10 f i ad_i486_gen.obj
 0001:00024c10       ?oper_input_base@subXD_memNode@@EBEIXZ 08025c10 f i ad_i486_gen.obj
 0001:00024c10       ?oper_input_base@addF24_reg_memNode@@EBEIXZ 08025c10 f i ad_i486_gen.obj
 0001:00024c10       ?num_opnds@loadConPcNode@@EBEIXZ 08025c10 f i ad_i486_gen.obj
 0001:00024c10       ?num_opnds@leaPIdxScaleNode@@EBEIXZ 08025c10 f i ad_i486_gen.obj
 0001:00024c10       ?ideal_reg@LoadINode@@UBEIXZ 08025c10 f i ad_i486_gen.obj
 0001:00024c10       ?num_opnds@convI2XD_memNode@@EBEIXZ 08025c10 f i ad_i486_gen.obj
 0001:00024c10       ?oper_input_base@addX_memNode@@EBEIXZ 08025c10 f i ad_i486_gen.obj
 0001:00024c10       ?cisc_operand@compP_eRegNode@@EBEHXZ 08025c10 f i ad_i486_gen.obj
 0001:00024c10       ?num_opnds@negF_regNode@@EBEIXZ 08025c10 f i ad_i486_gen.obj
 0001:00024c10       ?oper_input_base@cmovLL_mem_EQNENode@@EBEIXZ 08025c10 f i ad_i486_gen.obj
 0001:00024c10       ?oper_input_base@prefetch0Node@@EBEIXZ 08025c10 f i ad_i486_gen.obj
 0001:00024c10       ?oper_input_base@mulD_reg_mem_ciscNode@@EBEIXZ 08025c10 f i ad_i486_gen.obj
 0001:00024c10       ?oper_input_base@compP_eReg_memNode@@EBEIXZ 08025c10 f i ad_i486_gen.obj
 0001:00024c10       ?oper_input_base@subP_eRegNode@@EBEIXZ 08025c10 f i ad_i486_gen.obj
 0001:00024c10       ?ideal_reg@MinINode@@UBEIXZ 08025c10 f i ad_i486_gen.obj
 0001:00024c10       ?num_opnds@loadConLNode@@EBEIXZ 08025c10 f i ad_i486_gen.obj
 0001:00024c10       ?oper_input_base@orI_mem_eRegNode@@EBEIXZ 08025c10 f i ad_i486_gen.obj
 0001:00024c10       ?oper_input_base@addXD_memNode@@EBEIXZ 08025c10 f i ad_i486_gen.obj
 0001:00024c10       ?num_opnds@convI2BNode@@EBEIXZ 08025c10 f i ad_i486_gen.obj
 0001:00024c10       ?oper_input_base@incI_memNode@@EBEIXZ 08025c10 f i ad_i486_gen.obj
 0001:00024c10       ?num_edges@indIndexScaleOper@@EBEIXZ 08025c10 f i ad_i486_gen.obj
 0001:00024c10       ?ideal_reg@LoadCNode@@UBEIXZ 08025c10 f i ad_i486_gen.obj
 0001:00024c10       ?oper_input_base@andL_eReg_memNode@@EBEIXZ 08025c10 f i ad_i486_gen.obj
 0001:00024c10       ?oper_input_base@mulD_reg_memNode@@EBEIXZ 08025c10 f i ad_i486_gen.obj
 0001:00024c10       ?num_opnds@loadPNode@@EBEIXZ 08025c10 f i ad_i486_gen.obj
 0001:00024c10       ?cisc_operand@divXD_regNode@@EBEHXZ 08025c10 f i ad_i486_gen.obj
 0001:00024c10       ?num_opnds@loadConI0Node@@EBEIXZ 08025c10 f i ad_i486_gen.obj
 0001:00024c10       ?oper_input_base@xorI_mem_immNode@@EBEIXZ 08025c10 f i ad_i486_gen.obj
 0001:00024c10       ?num_opnds@CallLeafDirectNode@@EBEIXZ 08025c10 f i ad_i486_gen.obj
 0001:00024c10       ?oper_input_base@sqrtXD_memNode@@EBEIXZ 08025c10 f i ad_i486_gen.obj
 0001:00024c10       ?oper_input_base@addI_eReg_memNode@@EBEIXZ 08025c10 f i ad_i486_gen.obj
 0001:00024c10       ?ideal_reg@ConvD2INode@@UBEIXZ 08025c10 f i ad_i486_gen.obj
 0001:00024c10       ?ideal_reg@LoadSNode@@UBEIXZ 08025c10 f i ad_i486_gen.obj
 0001:00024c10       ?oper_input_base@storeImmI16Node@@EBEIXZ 08025c10 f i ad_i486_gen.obj
 0001:00024c10       ?oper_input_base@cmpX_ccmemNode@@EBEIXZ 08025c10 f i ad_i486_gen.obj
 0001:00024c10       ?num_opnds@castP2LNode@@EBEIXZ 08025c10 f i ad_i486_gen.obj
 0001:00024c10       ?oper_input_base@loadBNode@@EBEIXZ 08025c10 f i ad_i486_gen.obj
 0001:00024c10       ?oper_input_base@leaP32Node@@EBEIXZ 08025c10 f i ad_i486_gen.obj
 0001:00024c10       ?oper_input_base@mulX_memNode@@EBEIXZ 08025c10 f i ad_i486_gen.obj
 0001:00024c10       ?num_opnds@sinD_regNode@@EBEIXZ 08025c10 f i ad_i486_gen.obj
 0001:00024c10       ?num_opnds@loadSSFNode@@EBEIXZ 08025c10 f i ad_i486_gen.obj
 0001:00024c10       ?oper_input_base@storePNode@@EBEIXZ 08025c10 f i ad_i486_gen.obj
 0001:00024c10       ?oper_input_base@storeD_roundedNode@@EBEIXZ 08025c10 f i ad_i486_gen.obj
 0001:00024c10       ?oper_input_base@orI_eReg_memNode@@EBEIXZ 08025c10 f i ad_i486_gen.obj
 0001:00024c10       ?num_opnds@loadLNode@@EBEIXZ 08025c10 f i ad_i486_gen.obj
 0001:00024c10       ?cisc_operand@addI_eRegNode@@EBEHXZ 08025c10 f i ad_i486_gen.obj
 0001:00024c10       ?num_opnds@movLNode@@EBEIXZ 08025c10 f i ad_i486_gen.obj
 0001:00024c10       ?oper_input_base@addF_reg_memNode@@EBEIXZ 08025c10 f i ad_i486_gen.obj
 0001:00024c10       ?num_opnds@tanD_regNode@@EBEIXZ 08025c10 f i ad_i486_gen.obj
 0001:00024c10       ?oper_input_base@mulXD_memNode@@EBEIXZ 08025c10 f i ad_i486_gen.obj
 0001:00024c10       ?num_opnds@CallStaticJavaDirectNode@@EBEIXZ 08025c10 f i ad_i486_gen.obj
 0001:00024c10       ?num_opnds@conv24I2F_regNode@@EBEIXZ 08025c10 f i ad_i486_gen.obj
 0001:00024c10       ?num_opnds@convI2F_SSF_memNode@@EBEIXZ 08025c10 f i ad_i486_gen.obj
 0001:00024c10       ?oper_input_base@sarI_mem_immNode@@EBEIXZ 08025c10 f i ad_i486_gen.obj
 0001:00024c10       ?num_opnds@convI2D_regNode@@EBEIXZ 08025c10 f i ad_i486_gen.obj
 0001:00024c10       ?num_opnds@convI2F_SSFNode@@EBEIXZ 08025c10 f i ad_i486_gen.obj
 0001:00024c10       ?oper_input_base@mulF_reg_memNode@@EBEIXZ 08025c10 f i ad_i486_gen.obj
 0001:00024c10       ?oper_input_base@storeBNode@@EBEIXZ 08025c10 f i ad_i486_gen.obj
 0001:00024c10       ?ideal_reg@AddINode@@UBEIXZ 08025c10 f i ad_i486_gen.obj
 0001:00024c10       ?num_opnds@leaP32Node@@EBEIXZ 08025c10 f i ad_i486_gen.obj
 0001:00024c10       ?num_opnds@convP2BNode@@EBEIXZ 08025c10 f i ad_i486_gen.obj
 0001:00024c10       ?num_opnds@loadConXD0Node@@EBEIXZ 08025c10 f i ad_i486_gen.obj
 0001:00024c10       ?num_opnds@storeSSLNode@@EBEIXZ 08025c10 f i ad_i486_gen.obj
 0001:00024c10       ?num_opnds@loadRangeNode@@EBEIXZ 08025c10 f i ad_i486_gen.obj
 0001:00024c20       ?rule@convXD2X_regNode@@EBEIXZ 08025c20 f i ad_i486_gen.obj
 0001:00024c30       ??0convX2D_regNode@@QAE@XZ 08025c30 f i ad_i486_gen.obj
 0001:00024c50       ?rule@convX2D_regNode@@EBEIXZ 08025c50 f i ad_i486_gen.obj
 0001:00024c60       ??0convX2XD_regNode@@QAE@XZ 08025c60 f i ad_i486_gen.obj
 0001:00024c80       ?rule@convX2XD_regNode@@EBEIXZ 08025c80 f i ad_i486_gen.obj
 0001:00024c90       ??0convD2I_reg_regNode@@QAE@XZ 08025c90 f i ad_i486_gen.obj
 0001:00024cb0       ?rule@convD2I_reg_regNode@@EBEIXZ 08025cb0 f i ad_i486_gen.obj
 0001:00024cc0       ??0convXD2I_reg_regNode@@QAE@XZ 08025cc0 f i ad_i486_gen.obj
 0001:00024ce0       ?rule@convXD2I_reg_regNode@@EBEIXZ 08025ce0 f i ad_i486_gen.obj
 0001:00024cf0       ??0convD2L_reg_regNode@@QAE@XZ 08025cf0 f i ad_i486_gen.obj
 0001:00024d10       ?rule@convD2L_reg_regNode@@EBEIXZ 08025d10 f i ad_i486_gen.obj
 0001:00024d20       ??0convXD2L_reg_regNode@@QAE@XZ 08025d20 f i ad_i486_gen.obj
 0001:00024d40       ?rule@convXD2L_reg_regNode@@EBEIXZ 08025d40 f i ad_i486_gen.obj
 0001:00024d50       ??0convF2D_regNode@@QAE@XZ 08025d50 f i ad_i486_gen.obj
 0001:00024d70       ?rule@convF2D_regNode@@EBEIXZ 08025d70 f i ad_i486_gen.obj
 0001:00024d80       ??0convF2I_reg_regNode@@QAE@XZ 08025d80 f i ad_i486_gen.obj
 0001:00024da0       ?rule@convF2I_reg_regNode@@EBEIXZ 08025da0 f i ad_i486_gen.obj
 0001:00024db0       ??0convF2L_reg_regNode@@QAE@XZ 08025db0 f i ad_i486_gen.obj
 0001:00024dd0       ?rule@convF2L_reg_regNode@@EBEIXZ 08025dd0 f i ad_i486_gen.obj
 0001:00024de0       ??0convX2L_reg_regNode@@QAE@XZ 08025de0 f i ad_i486_gen.obj
 0001:00024e00       ?rule@convX2L_reg_regNode@@EBEIXZ 08025e00 f i ad_i486_gen.obj
 0001:00024e10       ??0convI2D_regNode@@QAE@XZ 08025e10 f i ad_i486_gen.obj
 0001:00024e30       ?rule@convI2D_regNode@@EBEIXZ 08025e30 f i ad_i486_gen.obj
 0001:00024e40       ??0convI2XD_regNode@@QAE@XZ 08025e40 f i ad_i486_gen.obj
 0001:00024e60       ?rule@convI2XD_regNode@@EBEIXZ 08025e60 f i ad_i486_gen.obj
 0001:00024e70       ??0convI2XD_memNode@@QAE@XZ 08025e70 f i ad_i486_gen.obj
 0001:00024e90       ??0convI2D_memNode@@QAE@XZ 08025e90 f i ad_i486_gen.obj
 0001:00024eb0       ?rule@convI2D_memNode@@EBEIXZ 08025eb0 f i ad_i486_gen.obj
 0001:00024ec0       ??0conv24I2F_regNode@@QAE@XZ 08025ec0 f i ad_i486_gen.obj
 0001:00024ee0       ?rule@conv24I2F_regNode@@EBEIXZ 08025ee0 f i ad_i486_gen.obj
 0001:00024ef0       ??0convI2F_SSFNode@@QAE@XZ 08025ef0 f i ad_i486_gen.obj
 0001:00024f10       ?rule@convI2F_SSFNode@@EBEIXZ 08025f10 f i ad_i486_gen.obj
 0001:00024f20       ??0convI2F_SSF_memNode@@QAE@XZ 08025f20 f i ad_i486_gen.obj
 0001:00024f40       ?rule@convI2F_SSF_memNode@@EBEIXZ 08025f40 f i ad_i486_gen.obj
 0001:00024f50       ??0convI2F_regNode@@QAE@XZ 08025f50 f i ad_i486_gen.obj
 0001:00024f70       ?rule@convI2F_regNode@@EBEIXZ 08025f70 f i ad_i486_gen.obj
 0001:00024f80       ??0convI2F_memNode@@QAE@XZ 08025f80 f i ad_i486_gen.obj
 0001:00024fa0       ?rule@convI2F_memNode@@EBEIXZ 08025fa0 f i ad_i486_gen.obj
 0001:00024fb0       ??0convI2X_regNode@@QAE@XZ 08025fb0 f i ad_i486_gen.obj
 0001:00024fd0       ?rule@convI2X_regNode@@EBEIXZ 08025fd0 f i ad_i486_gen.obj
 0001:00024fe0       ??0convX2I_regNode@@QAE@XZ 08025fe0 f i ad_i486_gen.obj
 0001:00025000       ?rule@convX2I_regNode@@EBEIXZ 08026000 f i ad_i486_gen.obj
 0001:00025010       ??0convI2L_regNode@@QAE@XZ 08026010 f i ad_i486_gen.obj
 0001:00025030       ?rule@convI2L_regNode@@EBEIXZ 08026030 f i ad_i486_gen.obj
 0001:00025040       ??0convI2L_reg_zexNode@@QAE@XZ 08026040 f i ad_i486_gen.obj
 0001:00025060       ?rule@convI2L_reg_zexNode@@EBEIXZ 08026060 f i ad_i486_gen.obj
 0001:00025070       ??0zerox_longNode@@QAE@XZ  08026070 f i ad_i486_gen.obj
 0001:00025090       ?rule@zerox_longNode@@EBEIXZ 08026090 f i ad_i486_gen.obj
 0001:000250a0       ??0convL2D_regNode@@QAE@XZ 080260a0 f i ad_i486_gen.obj
 0001:000250c0       ?rule@convL2D_regNode@@EBEIXZ 080260c0 f i ad_i486_gen.obj
 0001:000250d0       ??0convL2XD_regNode@@QAE@XZ 080260d0 f i ad_i486_gen.obj
 0001:000250f0       ?rule@convL2XD_regNode@@EBEIXZ 080260f0 f i ad_i486_gen.obj
 0001:00025100       ??0convL2X_regNode@@QAE@XZ 08026100 f i ad_i486_gen.obj
 0001:00025120       ?rule@convL2X_regNode@@EBEIXZ 08026120 f i ad_i486_gen.obj
 0001:00025130       ??0convL2F_regNode@@QAE@XZ 08026130 f i ad_i486_gen.obj
 0001:00025150       ?rule@convL2F_regNode@@EBEIXZ 08026150 f i ad_i486_gen.obj
 0001:00025160       ??0convL2I_regNode@@QAE@XZ 08026160 f i ad_i486_gen.obj
 0001:00025180       ?rule@convL2I_regNode@@EBEIXZ 08026180 f i ad_i486_gen.obj
 0001:00025190       ??0rep_stosNode@@QAE@XZ    08026190 f i ad_i486_gen.obj
 0001:000251b0       ?rule@rep_stosNode@@EBEIXZ 080261b0 f i ad_i486_gen.obj
 0001:000251c0       ??0string_compareNode@@QAE@XZ 080261c0 f i ad_i486_gen.obj
 0001:000251e0       ?rule@string_compareNode@@EBEIXZ 080261e0 f i ad_i486_gen.obj
 0001:000251f0       ?ideal_Opcode@string_compareNode@@EBEHXZ 080261f0 f i ad_i486_gen.obj
 0001:00025200       ?check_for_anti_dependence@loadSSPNode@@UBEHXZ 08026200 f i ad_i486_gen.obj
 0001:00025200       ?check_for_anti_dependence@mulF24_reg_memNode@@UBEHXZ 08026200 f i ad_i486_gen.obj
 0001:00025200       ?check_for_anti_dependence@prefetch1Node@@UBEHXZ 08026200 f i ad_i486_gen.obj
 0001:00025200       ?check_for_anti_dependence@convI2F_memNode@@UBEHXZ 08026200 f i ad_i486_gen.obj
 0001:00025200       ?check_for_anti_dependence@convI2F_SSF_memNode@@UBEHXZ 08026200 f i ad_i486_gen.obj
 0001:00025200       ?check_for_anti_dependence@sqrtXD_memNode@@UBEHXZ 08026200 f i ad_i486_gen.obj
 0001:00025200       ?check_for_anti_dependence@loadCNode@@UBEHXZ 08026200 f i ad_i486_gen.obj
 0001:00025200       ?check_for_anti_dependence@subL_eReg_memNode@@UBEHXZ 08026200 f i ad_i486_gen.obj
 0001:00025200       ?check_for_anti_dependence@loadSSINode@@UBEHXZ 08026200 f i ad_i486_gen.obj
 0001:00025200       ?check_for_anti_dependence@leaPIdxOffNode@@UBEHXZ 08026200 f i ad_i486_gen.obj
 0001:00025200       ?check_for_anti_dependence@addXD_memNode@@UBEHXZ 08026200 f i ad_i486_gen.obj
 0001:00025200       ?check_for_anti_dependence@compP_eReg_memNode@@UBEHXZ 08026200 f i ad_i486_gen.obj
 0001:00025200       ?check_for_anti_dependence@mulF_reg_memNode@@UBEHXZ 08026200 f i ad_i486_gen.obj
 0001:00025200       ?check_for_anti_dependence@addL_eReg_memNode@@UBEHXZ 08026200 f i ad_i486_gen.obj
 0001:00025200       ?check_for_anti_dependence@loadL_volatileNode@@UBEHXZ 08026200 f i ad_i486_gen.obj
 0001:00025200       ?check_for_anti_dependence@addF_mulF_reg_load1Node@@UBEHXZ 08026200 f i ad_i486_gen.obj
 0001:00025200       ?check_for_anti_dependence@subX_memNode@@UBEHXZ 08026200 f i ad_i486_gen.obj
 0001:00025200       ?check_for_anti_dependence@subXD_memNode@@UBEHXZ 08026200 f i ad_i486_gen.obj
 0001:00025200       ?check_for_anti_dependence@orl_eReg_memNode@@UBEHXZ 08026200 f i ad_i486_gen.obj
 0001:00025200       ?check_for_anti_dependence@mulF24_mem_memNode@@UBEHXZ 08026200 f i ad_i486_gen.obj
 0001:00025200       ?check_for_anti_dependence@addF24_mem_ciscNode@@UBEHXZ 08026200 f i ad_i486_gen.obj
 0001:00025200       ?check_for_anti_dependence@mulXD_memNode@@UBEHXZ 08026200 f i ad_i486_gen.obj
 0001:00025200       ?check_for_anti_dependence@box_handleNode@@UBEHXZ 08026200 f i ad_i486_gen.obj
 0001:00025200       ?check_for_anti_dependence@loadLNode@@UBEHXZ 08026200 f i ad_i486_gen.obj
 0001:00025200       ?check_for_anti_dependence@compP_mem_eRegNode@@UBEHXZ 08026200 f i ad_i486_gen.obj
 0001:00025200       ?check_for_anti_dependence@mulD_reg_memNode@@UBEHXZ 08026200 f i ad_i486_gen.obj
 0001:00025200       ?check_for_anti_dependence@loadXDNode@@UBEHXZ 08026200 f i ad_i486_gen.obj
 0001:00025200       ?check_for_anti_dependence@convI2D_regNode@@UBEHXZ 08026200 f i ad_i486_gen.obj
 0001:00025200       ?check_for_anti_dependence@loadLLockedNode@@UBEHXZ 08026200 f i ad_i486_gen.obj
 0001:00025200       ?check_for_anti_dependence@mulI_mem_immNode@@UBEHXZ 08026200 f i ad_i486_gen.obj
 0001:00025200       ?check_for_anti_dependence@mulD_reg_mem_ciscNode@@UBEHXZ 08026200 f i ad_i486_gen.obj
 0001:00025200       ?check_for_anti_dependence@leaPIdxScaleOffNode@@UBEHXZ 08026200 f i ad_i486_gen.obj
 0001:00025200       ?check_for_anti_dependence@mulF_reg_load1Node@@UBEHXZ 08026200 f i ad_i486_gen.obj
 0001:00025200       ?check_for_anti_dependence@cmovII_mem_LTGENode@@UBEHXZ 08026200 f i ad_i486_gen.obj
 0001:00025200       ?check_for_anti_dependence@cmpXD_regmemNode@@UBEHXZ 08026200 f i ad_i486_gen.obj
 0001:00025200       ?check_for_anti_dependence@loadSNode@@UBEHXZ 08026200 f i ad_i486_gen.obj
 0001:00025200       ?check_for_anti_dependence@addF24_mem_memNode@@UBEHXZ 08026200 f i ad_i486_gen.obj
 0001:00025200       ?check_for_anti_dependence@andI_eReg_memNode@@UBEHXZ 08026200 f i ad_i486_gen.obj
 0001:00025200       ?check_for_anti_dependence@leaPIdxScaleNode@@UBEHXZ 08026200 f i ad_i486_gen.obj
 0001:00025200       ?check_for_anti_dependence@loadFNode@@UBEHXZ 08026200 f i ad_i486_gen.obj
 0001:00025200       ?check_for_anti_dependence@cmovII_mem_EQNENode@@UBEHXZ 08026200 f i ad_i486_gen.obj
 0001:00025200       ?check_for_anti_dependence@cmovI_memNode@@UBEHXZ 08026200 f i ad_i486_gen.obj
 0001:00025200       ?check_for_anti_dependence@loadRangeNode@@UBEHXZ 08026200 f i ad_i486_gen.obj
 0001:00025200       ?check_for_anti_dependence@addF24_reg_memNode@@UBEHXZ 08026200 f i ad_i486_gen.obj
 0001:00025200       ?check_for_anti_dependence@testP_Reg_memNode@@UBEHXZ 08026200 f i ad_i486_gen.obj
 0001:00025200       ?check_for_anti_dependence@mulINode@@UBEHXZ 08026200 f i ad_i486_gen.obj
 0001:00025200       ?check_for_anti_dependence@conv24I2F_regNode@@UBEHXZ 08026200 f i ad_i486_gen.obj
 0001:00025200       ?check_for_anti_dependence@leaP8Node@@UBEHXZ 08026200 f i ad_i486_gen.obj
 0001:00025200       ?check_for_anti_dependence@cmovLL_mem_LTGENode@@UBEHXZ 08026200 f i ad_i486_gen.obj
 0001:00025200       ?check_for_anti_dependence@andL_eReg_memNode@@UBEHXZ 08026200 f i ad_i486_gen.obj
 0001:00025200       ?check_for_anti_dependence@divXD_memNode@@UBEHXZ 08026200 f i ad_i486_gen.obj
 0001:00025200       ?check_for_anti_dependence@loadSSDNode@@UBEHXZ 08026200 f i ad_i486_gen.obj
 0001:00025200       ?check_for_anti_dependence@xorI_eReg_memNode@@UBEHXZ 08026200 f i ad_i486_gen.obj
 0001:00025200       ?check_for_anti_dependence@storePConditionalNode@@UBEHXZ 08026200 f i ad_i486_gen.obj
 0001:00025200       ?check_for_anti_dependence@convI2F_SSFNode@@UBEHXZ 08026200 f i ad_i486_gen.obj
 0001:00025200       ?check_for_anti_dependence@addF_reg_memNode@@UBEHXZ 08026200 f i ad_i486_gen.obj
 0001:00025200       ?check_for_anti_dependence@addD_reg_memNode@@UBEHXZ 08026200 f i ad_i486_gen.obj
 0001:00025200       ?check_for_anti_dependence@convI2F_regNode@@UBEHXZ 08026200 f i ad_i486_gen.obj
 0001:00025200       ?check_for_anti_dependence@addF24_mem_regNode@@UBEHXZ 08026200 f i ad_i486_gen.obj
 0001:00025200       ?check_for_anti_dependence@testI_reg_memNode@@UBEHXZ 08026200 f i ad_i486_gen.obj
 0001:00025200       ?check_for_anti_dependence@cmovLL_mem_EQNENode@@UBEHXZ 08026200 f i ad_i486_gen.obj
 0001:00025200       ?check_for_anti_dependence@loadXNode@@UBEHXZ 08026200 f i ad_i486_gen.obj
 0001:00025200       ?check_for_anti_dependence@xorl_eReg_memNode@@UBEHXZ 08026200 f i ad_i486_gen.obj
 0001:00025200       ?check_for_anti_dependence@mulX_memNode@@UBEHXZ 08026200 f i ad_i486_gen.obj
 0001:00025200       ?check_for_anti_dependence@addX_memNode@@UBEHXZ 08026200 f i ad_i486_gen.obj
 0001:00025200       ?check_for_anti_dependence@loadKlassNode@@UBEHXZ 08026200 f i ad_i486_gen.obj
 0001:00025200       ?check_for_anti_dependence@compU_eReg_memNode@@UBEHXZ 08026200 f i ad_i486_gen.obj
 0001:00025200       ?check_for_anti_dependence@loadINode@@UBEHXZ 08026200 f i ad_i486_gen.obj
 0001:00025200       ?check_for_anti_dependence@subI_eReg_memNode@@UBEHXZ 08026200 f i ad_i486_gen.obj
 0001:00025200       ?check_for_anti_dependence@cmpX_ccmemNode@@UBEHXZ 08026200 f i ad_i486_gen.obj
 0001:00025200       ?check_for_anti_dependence@orI_eReg_memNode@@UBEHXZ 08026200 f i ad_i486_gen.obj
 0001:00025200       ?check_for_anti_dependence@leaP32Node@@UBEHXZ 08026200 f i ad_i486_gen.obj
 0001:00025200       ?check_for_anti_dependence@cmovII_mem_LEGTNode@@UBEHXZ 08026200 f i ad_i486_gen.obj
 0001:00025200       ?check_for_anti_dependence@convI2D_memNode@@UBEHXZ 08026200 f i ad_i486_gen.obj
 0001:00025200       ?check_for_anti_dependence@prefetch0Node@@UBEHXZ 08026200 f i ad_i486_gen.obj
 0001:00025200       ?check_for_anti_dependence@loadPNode@@UBEHXZ 08026200 f i ad_i486_gen.obj
 0001:00025200       ?check_for_anti_dependence@loadSSFNode@@UBEHXZ 08026200 f i ad_i486_gen.obj
 0001:00025200       ?check_for_anti_dependence@convI2XD_memNode@@UBEHXZ 08026200 f i ad_i486_gen.obj
 0001:00025200       ?check_for_anti_dependence@loadUBNode@@UBEHXZ 08026200 f i ad_i486_gen.obj
 0001:00025200       ?check_for_anti_dependence@compI_eReg_memNode@@UBEHXZ 08026200 f i ad_i486_gen.obj
 0001:00025200       ?check_for_anti_dependence@loadPLockedNode@@UBEHXZ 08026200 f i ad_i486_gen.obj
 0001:00025200       ?check_for_anti_dependence@string_compareNode@@UBEHXZ 08026200 f i ad_i486_gen.obj
 0001:00025200       ?check_for_anti_dependence@subD_reg_memNode@@UBEHXZ 08026200 f i ad_i486_gen.obj
 0001:00025200       ?check_for_anti_dependence@cmpX_regmemNode@@UBEHXZ 08026200 f i ad_i486_gen.obj
 0001:00025200       ?check_for_anti_dependence@loadDNode@@UBEHXZ 08026200 f i ad_i486_gen.obj
 0001:00025200       ?check_for_anti_dependence@cmovLL_mem_LEGTNode@@UBEHXZ 08026200 f i ad_i486_gen.obj
 0001:00025200       ?check_for_anti_dependence@cmovI_memuNode@@UBEHXZ 08026200 f i ad_i486_gen.obj
 0001:00025200       ?check_for_anti_dependence@divX_memNode@@UBEHXZ 08026200 f i ad_i486_gen.obj
 0001:00025200       ?check_for_anti_dependence@cmpXD_ccmemNode@@UBEHXZ 08026200 f i ad_i486_gen.obj
 0001:00025200       ?check_for_anti_dependence@loadBNode@@UBEHXZ 08026200 f i ad_i486_gen.obj
 0001:00025200       ?check_for_anti_dependence@addI_eReg_memNode@@UBEHXZ 08026200 f i ad_i486_gen.obj
 0001:00025220       ??0compI_eRegNode@@QAE@XZ  08026220 f i ad_i486_gen.obj
 0001:00025240       ?rule@compI_eRegNode@@EBEIXZ 08026240 f i ad_i486_gen.obj
 0001:00025250       ??0compI_eReg_immNode@@QAE@XZ 08026250 f i ad_i486_gen.obj
 0001:00025270       ?rule@compI_eReg_immNode@@EBEIXZ 08026270 f i ad_i486_gen.obj
 0001:00025280       ??0compI_eReg_memNode@@QAE@XZ 08026280 f i ad_i486_gen.obj
 0001:000252a0       ??0testI_regNode@@QAE@XZ   080262a0 f i ad_i486_gen.obj
 0001:000252c0       ?rule@testI_regNode@@EBEIXZ 080262c0 f i ad_i486_gen.obj
 0001:000252d0       ??0testI_reg_immNode@@QAE@XZ 080262d0 f i ad_i486_gen.obj
 0001:000252f0       ?rule@testI_reg_immNode@@EBEIXZ 080262f0 f i ad_i486_gen.obj
 0001:00025300       ??0testI_reg_memNode@@QAE@XZ 08026300 f i ad_i486_gen.obj
 0001:00025320       ?rule@testI_reg_memNode@@EBEIXZ 08026320 f i ad_i486_gen.obj
 0001:00025330       ??0compU_eRegNode@@QAE@XZ  08026330 f i ad_i486_gen.obj
 0001:00025350       ?rule@compU_eRegNode@@EBEIXZ 08026350 f i ad_i486_gen.obj
 0001:00025360       ??0compU_eReg_immNode@@QAE@XZ 08026360 f i ad_i486_gen.obj
 0001:00025380       ?rule@compU_eReg_immNode@@EBEIXZ 08026380 f i ad_i486_gen.obj
 0001:00025390       ??0compU_eReg_memNode@@QAE@XZ 08026390 f i ad_i486_gen.obj
 0001:000253b0       ??0testU_regNode@@QAE@XZ   080263b0 f i ad_i486_gen.obj
 0001:000253d0       ?rule@testU_regNode@@EBEIXZ 080263d0 f i ad_i486_gen.obj
 0001:000253e0       ??0compP_eRegNode@@QAE@XZ  080263e0 f i ad_i486_gen.obj
 0001:00025400       ?rule@compP_eRegNode@@EBEIXZ 08026400 f i ad_i486_gen.obj
 0001:00025410       ??0compP_eReg_immNode@@QAE@XZ 08026410 f i ad_i486_gen.obj
 0001:00025430       ?rule@compP_eReg_immNode@@EBEIXZ 08026430 f i ad_i486_gen.obj
 0001:00025440       ??0compP_eReg_memNode@@QAE@XZ 08026440 f i ad_i486_gen.obj
 0001:00025460       ??0compP_mem_eRegNode@@QAE@XZ 08026460 f i ad_i486_gen.obj
 0001:00025480       ?rule@compP_mem_eRegNode@@EBEIXZ 08026480 f i ad_i486_gen.obj
 0001:00025490       ??0testP_regNode@@QAE@XZ   08026490 f i ad_i486_gen.obj
 0001:000254b0       ?rule@testP_regNode@@EBEIXZ 080264b0 f i ad_i486_gen.obj
 0001:000254c0       ??0testP_Reg_memNode@@QAE@XZ 080264c0 f i ad_i486_gen.obj
 0001:000254e0       ?rule@testP_Reg_memNode@@EBEIXZ 080264e0 f i ad_i486_gen.obj
 0001:000254f0       ??0minI_eRegNode@@QAE@XZ   080264f0 f i ad_i486_gen.obj
 0001:00025510       ?rule@minI_eRegNode@@EBEIXZ 08026510 f i ad_i486_gen.obj
 0001:00025520       ?ideal_Opcode@minI_eRegNode@@EBEHXZ 08026520 f i ad_i486_gen.obj
 0001:00025530       ??0maxI_eRegNode@@QAE@XZ   08026530 f i ad_i486_gen.obj
 0001:00025550       ?rule@maxI_eRegNode@@EBEIXZ 08026550 f i ad_i486_gen.obj
 0001:00025560       ?ideal_Opcode@maxI_eRegNode@@EBEHXZ 08026560 f i ad_i486_gen.obj
 0001:00025570       ??0jmpDirNode@@QAE@XZ      08026570 f i ad_i486_gen.obj
 0001:00025590       ?rule@jmpDirNode@@EBEIXZ   08026590 f i ad_i486_gen.obj
 0001:000255a0       ??0jmpConNode@@QAE@XZ      080265a0 f i ad_i486_gen.obj
 0001:000255c0       ??0jmpLoopEndNode@@QAE@XZ  080265c0 f i ad_i486_gen.obj
 0001:000255e0       ?rule@jmpLoopEndNode@@EBEIXZ 080265e0 f i ad_i486_gen.obj
 0001:000255f0       ??0jmpLoopEndUNode@@QAE@XZ 080265f0 f i ad_i486_gen.obj
 0001:00025610       ?rule@jmpLoopEndUNode@@EBEIXZ 08026610 f i ad_i486_gen.obj
 0001:00025620       ??0jmpConUNode@@QAE@XZ     08026620 f i ad_i486_gen.obj
 0001:00025640       ?rule@jmpConUNode@@EBEIXZ  08026640 f i ad_i486_gen.obj
 0001:00025650       ??0partialSubtypeCheckNode@@QAE@XZ 08026650 f i ad_i486_gen.obj
 0001:00025670       ?rule@partialSubtypeCheckNode@@EBEIXZ 08026670 f i ad_i486_gen.obj
 0001:00025680       ?ideal_Opcode@partialSubtypeCheckNode@@EBEHXZ 08026680 f i ad_i486_gen.obj
 0001:00025680       ?ideal_Opcode@partialSubtypeCheck_vs_ZeroNode@@EBEHXZ 08026680 f i ad_i486_gen.obj
 0001:00025690       ??0partialSubtypeCheck_vs_ZeroNode@@QAE@XZ 08026690 f i ad_i486_gen.obj
 0001:000256b0       ?rule@partialSubtypeCheck_vs_ZeroNode@@EBEIXZ 080266b0 f i ad_i486_gen.obj
 0001:000256c0       ??0jmpDir_shortNode@@QAE@XZ 080266c0 f i ad_i486_gen.obj
 0001:000256e0       ??0jmpCon_shortNode@@QAE@XZ 080266e0 f i ad_i486_gen.obj
 0001:00025700       ??0jmpLoopEnd_shortNode@@QAE@XZ 08026700 f i ad_i486_gen.obj
 0001:00025720       ??0jmpLoopEndU_shortNode@@QAE@XZ 08026720 f i ad_i486_gen.obj
 0001:00025740       ??0jmpConU_shortNode@@QAE@XZ 08026740 f i ad_i486_gen.obj
 0001:00025760       ??0cmpL3_reg_regNode@@QAE@XZ 08026760 f i ad_i486_gen.obj
 0001:00025780       ?rule@cmpL3_reg_regNode@@EBEIXZ 08026780 f i ad_i486_gen.obj
 0001:00025790       ??0cmpL_zero_flags_LTGENode@@QAE@XZ 08026790 f i ad_i486_gen.obj
 0001:000257b0       ?rule@cmpL_zero_flags_LTGENode@@EBEIXZ 080267b0 f i ad_i486_gen.obj
 0001:000257c0       ??0cmpL_reg_flags_LTGENode@@QAE@XZ 080267c0 f i ad_i486_gen.obj
 0001:000257e0       ?rule@cmpL_reg_flags_LTGENode@@EBEIXZ 080267e0 f i ad_i486_gen.obj
 0001:000257f0       ??0cmpL_LTGENode@@QAE@XZ   080267f0 f i ad_i486_gen.obj
 0001:00025810       ?rule@cmpL_LTGENode@@EBEIXZ 08026810 f i ad_i486_gen.obj
 0001:00025820       ??0cmovLL_reg_LTGENode@@QAE@XZ 08026820 f i ad_i486_gen.obj
 0001:00025840       ?rule@cmovLL_reg_LTGENode@@EBEIXZ 08026840 f i ad_i486_gen.obj
 0001:00025850       ??0cmovLL_mem_LTGENode@@QAE@XZ 08026850 f i ad_i486_gen.obj
 0001:00025870       ??0cmovII_reg_LTGENode@@QAE@XZ 08026870 f i ad_i486_gen.obj
 0001:00025890       ?rule@cmovII_reg_LTGENode@@EBEIXZ 08026890 f i ad_i486_gen.obj
 0001:000258a0       ??0cmovII_mem_LTGENode@@QAE@XZ 080268a0 f i ad_i486_gen.obj
 0001:000258c0       ??0cmovPP_reg_LTGENode@@QAE@XZ 080268c0 f i ad_i486_gen.obj
 0001:000258e0       ?rule@cmovPP_reg_LTGENode@@EBEIXZ 080268e0 f i ad_i486_gen.obj
 0001:000258f0       ??0cmovDD_reg_LTGENode@@QAE@XZ 080268f0 f i ad_i486_gen.obj
 0001:00025910       ?rule@cmovDD_reg_LTGENode@@EBEIXZ 08026910 f i ad_i486_gen.obj
 0001:00025920       ??0cmovXDD_reg_LTGENode@@QAE@XZ 08026920 f i ad_i486_gen.obj
 0001:00025940       ?rule@cmovXDD_reg_LTGENode@@EBEIXZ 08026940 f i ad_i486_gen.obj
 0001:00025950       ??0cmovFF_reg_LTGENode@@QAE@XZ 08026950 f i ad_i486_gen.obj
 0001:00025970       ?rule@cmovFF_reg_LTGENode@@EBEIXZ 08026970 f i ad_i486_gen.obj
 0001:00025980       ??0cmovXX_reg_LTGENode@@QAE@XZ 08026980 f i ad_i486_gen.obj
 0001:000259a0       ?rule@cmovXX_reg_LTGENode@@EBEIXZ 080269a0 f i ad_i486_gen.obj
 0001:000259b0       ??0cmpL_zero_flags_EQNENode@@QAE@XZ 080269b0 f i ad_i486_gen.obj
 0001:000259d0       ?rule@cmpL_zero_flags_EQNENode@@EBEIXZ 080269d0 f i ad_i486_gen.obj
 0001:000259e0       ??0cmpL_reg_flags_EQNENode@@QAE@XZ 080269e0 f i ad_i486_gen.obj
 0001:00025a00       ?rule@cmpL_reg_flags_EQNENode@@EBEIXZ 08026a00 f i ad_i486_gen.obj
 0001:00025a10       ??0cmpL_EQNENode@@QAE@XZ   08026a10 f i ad_i486_gen.obj
 0001:00025a30       ?rule@cmpL_EQNENode@@EBEIXZ 08026a30 f i ad_i486_gen.obj
 0001:00025a40       ??0cmovLL_reg_EQNENode@@QAE@XZ 08026a40 f i ad_i486_gen.obj
 0001:00025a60       ?rule@cmovLL_reg_EQNENode@@EBEIXZ 08026a60 f i ad_i486_gen.obj
 0001:00025a70       ??0cmovLL_mem_EQNENode@@QAE@XZ 08026a70 f i ad_i486_gen.obj
 0001:00025a90       ??0cmovII_reg_EQNENode@@QAE@XZ 08026a90 f i ad_i486_gen.obj
 0001:00025ab0       ?rule@cmovII_reg_EQNENode@@EBEIXZ 08026ab0 f i ad_i486_gen.obj
 0001:00025ac0       ??0cmovII_mem_EQNENode@@QAE@XZ 08026ac0 f i ad_i486_gen.obj
 0001:00025ae0       ??0cmovPP_reg_EQNENode@@QAE@XZ 08026ae0 f i ad_i486_gen.obj
 0001:00025b00       ?rule@cmovPP_reg_EQNENode@@EBEIXZ 08026b00 f i ad_i486_gen.obj
 0001:00025b10       ??0cmovDD_reg_EQNENode@@QAE@XZ 08026b10 f i ad_i486_gen.obj
 0001:00025b30       ?num_opnds@fcmovF_regUNode@@EBEIXZ 08026b30 f i ad_i486_gen.obj
 0001:00025b30       ?opcode@sRegDOper@@UBEIXZ  08026b30 f i ad_i486_gen.obj
 0001:00025b30       ?num_opnds@cmovLL_reg_LEGTNode@@EBEIXZ 08026b30 f i ad_i486_gen.obj
 0001:00025b30       ?num_opnds@cmovXX_reg_LTGENode@@EBEIXZ 08026b30 f i ad_i486_gen.obj
 0001:00025b30       ?num_opnds@fcmovX_regUNode@@EBEIXZ 08026b30 f i ad_i486_gen.obj
 0001:00025b30       ?num_opnds@fcmovD_regSNode@@EBEIXZ 08026b30 f i ad_i486_gen.obj
 0001:00025b30       ?num_opnds@cmovLL_mem_LTGENode@@EBEIXZ 08026b30 f i ad_i486_gen.obj
 0001:00025b30       ?not_equal@cmpOp_commuteOper@@UBEHXZ 08026b30 f i ad_i486_gen.obj
 0001:00025b30       ?num_opnds@cmovII_reg_EQNENode@@EBEIXZ 08026b30 f i ad_i486_gen.obj
 0001:00025b30       ?num_opnds@cmovII_mem_LEGTNode@@EBEIXZ 08026b30 f i ad_i486_gen.obj
 0001:00025b30       ?ideal_reg@LoadDNode@@UBEIXZ 08026b30 f i ad_i486_gen.obj
 0001:00025b30       ?ideal_reg@SqrtDNode@@UBEIXZ 08026b30 f i ad_i486_gen.obj
 0001:00025b30       ?oper_input_base@string_compareNode@@EBEIXZ 08026b30 f i ad_i486_gen.obj
 0001:00025b30       ?ideal_reg@ModDNode@@UBEIXZ 08026b30 f i ad_i486_gen.obj
 0001:00025b30       ?num_opnds@storeLConditional_flagsNode@@EBEIXZ 08026b30 f i ad_i486_gen.obj
 0001:00025b30       ?num_opnds@cmovPP_reg_EQNENode@@EBEIXZ 08026b30 f i ad_i486_gen.obj
 0001:00025b30       ?ideal_reg@CosDNode@@UBEIXZ 08026b30 f i ad_i486_gen.obj
 0001:00025b30       ?ideal_reg@ConvF2DNode@@UBEIXZ 08026b30 f i ad_i486_gen.obj
 0001:00025b30       ?oper_input_base@tailjmpIndNode@@EBEIXZ 08026b30 f i ad_i486_gen.obj
 0001:00025b30       ?num_opnds@cmovLL_mem_LEGTNode@@EBEIXZ 08026b30 f i ad_i486_gen.obj
 0001:00025b30       ?not_equal@cmpOpOper@@UBEHXZ 08026b30 f i ad_i486_gen.obj
 0001:00025b30       ?num_opnds@cmovXX_reg_LEGTNode@@EBEIXZ 08026b30 f i ad_i486_gen.obj
 0001:00025b30       ?num_opnds@cmovXDD_reg_LTGENode@@EBEIXZ 08026b30 f i ad_i486_gen.obj
 0001:00025b30       ?num_opnds@cmovII_mem_EQNENode@@EBEIXZ 08026b30 f i ad_i486_gen.obj
 0001:00025b30       ?ideal_reg@AddDNode@@UBEIXZ 08026b30 f i ad_i486_gen.obj
 0001:00025b30       ?num_opnds@cmovLL_mem_EQNENode@@EBEIXZ 08026b30 f i ad_i486_gen.obj
 0001:00025b30       ?num_opnds@cmovLL_reg_LTGENode@@EBEIXZ 08026b30 f i ad_i486_gen.obj
 0001:00025b30       ?num_opnds@cmovP_regNode@@EBEIXZ 08026b30 f i ad_i486_gen.obj
 0001:00025b30       ?ideal_reg@ConvL2DNode@@UBEIXZ 08026b30 f i ad_i486_gen.obj
 0001:00025b30       ?num_opnds@cmovFF_reg_EQNENode@@EBEIXZ 08026b30 f i ad_i486_gen.obj
 0001:00025b30       ?num_opnds@cmovFF_reg_LEGTNode@@EBEIXZ 08026b30 f i ad_i486_gen.obj
 0001:00025b30       ?num_opnds@cmovDD_reg_EQNENode@@EBEIXZ 08026b30 f i ad_i486_gen.obj
 0001:00025b30       ?num_opnds@cmovII_reg_LTGENode@@EBEIXZ 08026b30 f i ad_i486_gen.obj
 0001:00025b30       ?oper_input_base@RethrowExceptionNode@@EBEIXZ 08026b30 f i ad_i486_gen.obj
 0001:00025b30       ?ideal_reg@ConvI2DNode@@UBEIXZ 08026b30 f i ad_i486_gen.obj
 0001:00025b30       ?num_opnds@fcmovD_regUNode@@EBEIXZ 08026b30 f i ad_i486_gen.obj
 0001:00025b30       ?num_opnds@cmovL_regUNode@@EBEIXZ 08026b30 f i ad_i486_gen.obj
 0001:00025b30       ?oper_input_base@RetNode@@EBEIXZ 08026b30 f i ad_i486_gen.obj
 0001:00025b30       ?num_opnds@cmovXDD_reg_EQNENode@@EBEIXZ 08026b30 f i ad_i486_gen.obj
 0001:00025b30       ?ideal_reg@SinDNode@@UBEIXZ 08026b30 f i ad_i486_gen.obj
 0001:00025b30       ?kind@Generation@@UAE?AW4Name@1@XZ 08026b30 f i ad_i486_gen.obj
 0001:00025b30       ?num_opnds@cmovDD_reg_LTGENode@@EBEIXZ 08026b30 f i ad_i486_gen.obj
 0001:00025b30       ?num_opnds@cmovDD_reg_LEGTNode@@EBEIXZ 08026b30 f i ad_i486_gen.obj
 0001:00025b30       ?num_opnds@cmovLL_reg_EQNENode@@EBEIXZ 08026b30 f i ad_i486_gen.obj
 0001:00025b30       ?num_opnds@fcmovXD_regUNode@@EBEIXZ 08026b30 f i ad_i486_gen.obj
 0001:00025b30       ?num_opnds@cmovL_regNode@@EBEIXZ 08026b30 f i ad_i486_gen.obj
 0001:00025b30       ?ideal_reg@SubDNode@@UBEIXZ 08026b30 f i ad_i486_gen.obj
 0001:00025b30       ?num_opnds@cmovII_mem_LTGENode@@EBEIXZ 08026b30 f i ad_i486_gen.obj
 0001:00025b30       ?ideal_reg@MulDNode@@UBEIXZ 08026b30 f i ad_i486_gen.obj
 0001:00025b30       ?num_opnds@cmovP_regUNode@@EBEIXZ 08026b30 f i ad_i486_gen.obj
 0001:00025b30       ?ideal_reg@NegDNode@@UBEIXZ 08026b30 f i ad_i486_gen.obj
 0001:00025b30       ?not_equal@cmpOpUOper@@UBEHXZ 08026b30 f i ad_i486_gen.obj
 0001:00025b30       ?num_opnds@cmovI_memNode@@EBEIXZ 08026b30 f i ad_i486_gen.obj
 0001:00025b30       ?num_opnds@cmovI_regNode@@EBEIXZ 08026b30 f i ad_i486_gen.obj
 0001:00025b30       ?ideal_reg@AbsDNode@@UBEIXZ 08026b30 f i ad_i486_gen.obj
 0001:00025b30       ?num_opnds@cmovP_reg_nonP6Node@@EBEIXZ 08026b30 f i ad_i486_gen.obj
 0001:00025b30       ?ideal_reg@RoundDoubleNode@@UBEIXZ 08026b30 f i ad_i486_gen.obj
 0001:00025b30       ?num_opnds@cmovI_regUNode@@EBEIXZ 08026b30 f i ad_i486_gen.obj
 0001:00025b30       ?ideal_reg@DivDNode@@UBEIXZ 08026b30 f i ad_i486_gen.obj
 0001:00025b30       ?oper_input_base@ShouldNotReachHereNode@@EBEIXZ 08026b30 f i ad_i486_gen.obj
 0001:00025b30       ?num_opnds@fcmovXD_regSNode@@EBEIXZ 08026b30 f i ad_i486_gen.obj
 0001:00025b30       ?num_opnds@cmovPP_reg_LTGENode@@EBEIXZ 08026b30 f i ad_i486_gen.obj
 0001:00025b30       ?num_opnds@fcmovF_regSNode@@EBEIXZ 08026b30 f i ad_i486_gen.obj
 0001:00025b30       ?num_opnds@cmovFF_reg_LTGENode@@EBEIXZ 08026b30 f i ad_i486_gen.obj
 0001:00025b30       ?cell_count@VirtualCallData@@UAEHXZ 08026b30 f i ad_i486_gen.obj
 0001:00025b30       ?ideal_reg@PowDNode@@UBEIXZ 08026b30 f i ad_i486_gen.obj
 0001:00025b30       ?num_opnds@cmovXX_reg_EQNENode@@EBEIXZ 08026b30 f i ad_i486_gen.obj
 0001:00025b30       ?num_opnds@cmovII_reg_LEGTNode@@EBEIXZ 08026b30 f i ad_i486_gen.obj
 0001:00025b30       ?num_opnds@fcmovX_regSNode@@EBEIXZ 08026b30 f i ad_i486_gen.obj
 0001:00025b30       ?type@static_stub_Relocation@@EAE?AW4relocType@relocInfo@@XZ 08026b30 f i ad_i486_gen.obj
 0001:00025b30       ?num_opnds@cmovPP_reg_LEGTNode@@EBEIXZ 08026b30 f i ad_i486_gen.obj
 0001:00025b30       ?num_opnds@cmovXDD_reg_LEGTNode@@EBEIXZ 08026b30 f i ad_i486_gen.obj
 0001:00025b30       ?oper_input_base@TailCalljmpIndNode@@EBEIXZ 08026b30 f i ad_i486_gen.obj
 0001:00025b30       ?num_opnds@cmovI_memuNode@@EBEIXZ 08026b30 f i ad_i486_gen.obj
 0001:00025b40       ?rule@cmovDD_reg_EQNENode@@EBEIXZ 08026b40 f i ad_i486_gen.obj
 0001:00025b50       ?opcode@xRegIOper@@UBEIXZ  08026b50 f i ad_i486_gen.obj
 0001:00025b50       ?ideal_Opcode@cmovXDD_reg_LEGTNode@@EBEHXZ 08026b50 f i ad_i486_gen.obj
 0001:00025b50       ?ideal_Opcode@fcmovD_regSNode@@EBEHXZ 08026b50 f i ad_i486_gen.obj
 0001:00025b50       ?ideal_Opcode@fcmovXD_regSNode@@EBEHXZ 08026b50 f i ad_i486_gen.obj
 0001:00025b50       ?ideal_Opcode@cmovDD_reg_EQNENode@@EBEHXZ 08026b50 f i ad_i486_gen.obj
 0001:00025b50       ?ideal_Opcode@cmovDD_reg_LEGTNode@@EBEHXZ 08026b50 f i ad_i486_gen.obj
 0001:00025b50       ?ideal_Opcode@cmovXDD_reg_LTGENode@@EBEHXZ 08026b50 f i ad_i486_gen.obj
 0001:00025b50       ?ideal_Opcode@fcmovD_regUNode@@EBEHXZ 08026b50 f i ad_i486_gen.obj
 0001:00025b50       ?ideal_Opcode@cmovDD_reg_LTGENode@@EBEHXZ 08026b50 f i ad_i486_gen.obj
 0001:00025b50       ?ideal_Opcode@cmovXDD_reg_EQNENode@@EBEHXZ 08026b50 f i ad_i486_gen.obj
 0001:00025b50       ?ideal_Opcode@fcmovXD_regUNode@@EBEHXZ 08026b50 f i ad_i486_gen.obj
 0001:00025b60       ??0cmovXDD_reg_EQNENode@@QAE@XZ 08026b60 f i ad_i486_gen.obj
 0001:00025b80       ?rule@cmovXDD_reg_EQNENode@@EBEIXZ 08026b80 f i ad_i486_gen.obj
 0001:00025b90       ??0cmovFF_reg_EQNENode@@QAE@XZ 08026b90 f i ad_i486_gen.obj
 0001:00025bb0       ?rule@cmovFF_reg_EQNENode@@EBEIXZ 08026bb0 f i ad_i486_gen.obj
 0001:00025bc0       ??0cmovXX_reg_EQNENode@@QAE@XZ 08026bc0 f i ad_i486_gen.obj
 0001:00025be0       ?rule@cmovXX_reg_EQNENode@@EBEIXZ 08026be0 f i ad_i486_gen.obj
 0001:00025bf0       ??0cmpL_zero_flags_LEGTNode@@QAE@XZ 08026bf0 f i ad_i486_gen.obj
 0001:00025c10       ?rule@cmpL_zero_flags_LEGTNode@@EBEIXZ 08026c10 f i ad_i486_gen.obj
 0001:00025c20       ??0cmpL_reg_flags_LEGTNode@@QAE@XZ 08026c20 f i ad_i486_gen.obj
 0001:00025c40       ?rule@cmpL_reg_flags_LEGTNode@@EBEIXZ 08026c40 f i ad_i486_gen.obj
 0001:00025c50       ??0cmpL_LEGTNode@@QAE@XZ   08026c50 f i ad_i486_gen.obj
 0001:00025c70       ?rule@cmpL_LEGTNode@@EBEIXZ 08026c70 f i ad_i486_gen.obj
 0001:00025c80       ?negate@jmpLoopEndNode@@EAEXXZ 08026c80 f i ad_i486_gen.obj
 0001:00025c80       ?negate@cmpL_EQNENode@@EAEXXZ 08026c80 f i ad_i486_gen.obj
 0001:00025c80       ?negate@jmpLoopEndU_shortNode@@EAEXXZ 08026c80 f i ad_i486_gen.obj
 0001:00025c80       ?negate@cmpL_LEGTNode@@EAEXXZ 08026c80 f i ad_i486_gen.obj
 0001:00025c80       ?negate@jmpConUNode@@EAEXXZ 08026c80 f i ad_i486_gen.obj
 0001:00025c80       ?negate@cmpL_LTGENode@@EAEXXZ 08026c80 f i ad_i486_gen.obj
 0001:00025c80       ?negate@jmpLoopEndUNode@@EAEXXZ 08026c80 f i ad_i486_gen.obj
 0001:00025c80       ?negate@jmpLoopEnd_shortNode@@EAEXXZ 08026c80 f i ad_i486_gen.obj
 0001:00025c80       ?negate@jmpConU_shortNode@@EAEXXZ 08026c80 f i ad_i486_gen.obj
 0001:00025c80       ?negate@jmpCon_shortNode@@EAEXXZ 08026c80 f i ad_i486_gen.obj
 0001:00025c80       ?negate@jmpConNode@@EAEXXZ 08026c80 f i ad_i486_gen.obj
 0001:00025ca0       ??0cmovLL_reg_LEGTNode@@QAE@XZ 08026ca0 f i ad_i486_gen.obj
 0001:00025cc0       ?rule@cmovLL_reg_LEGTNode@@EBEIXZ 08026cc0 f i ad_i486_gen.obj
 0001:00025cd0       ??0cmovLL_mem_LEGTNode@@QAE@XZ 08026cd0 f i ad_i486_gen.obj
 0001:00025cf0       ??0cmovII_reg_LEGTNode@@QAE@XZ 08026cf0 f i ad_i486_gen.obj
 0001:00025d10       ?rule@cmovII_reg_LEGTNode@@EBEIXZ 08026d10 f i ad_i486_gen.obj
 0001:00025d20       ??0cmovII_mem_LEGTNode@@QAE@XZ 08026d20 f i ad_i486_gen.obj
 0001:00025d40       ??0cmovPP_reg_LEGTNode@@QAE@XZ 08026d40 f i ad_i486_gen.obj
 0001:00025d60       ?rule@cmovPP_reg_LEGTNode@@EBEIXZ 08026d60 f i ad_i486_gen.obj
 0001:00025d70       ??0cmovDD_reg_LEGTNode@@QAE@XZ 08026d70 f i ad_i486_gen.obj
 0001:00025d90       ?rule@cmovDD_reg_LEGTNode@@EBEIXZ 08026d90 f i ad_i486_gen.obj
 0001:00025da0       ??0cmovXDD_reg_LEGTNode@@QAE@XZ 08026da0 f i ad_i486_gen.obj
 0001:00025dc0       ?rule@cmovXDD_reg_LEGTNode@@EBEIXZ 08026dc0 f i ad_i486_gen.obj
 0001:00025dd0       ??0cmovFF_reg_LEGTNode@@QAE@XZ 08026dd0 f i ad_i486_gen.obj
 0001:00025df0       ?rule@cmovFF_reg_LEGTNode@@EBEIXZ 08026df0 f i ad_i486_gen.obj
 0001:00025e00       ??0cmovXX_reg_LEGTNode@@QAE@XZ 08026e00 f i ad_i486_gen.obj
 0001:00025e20       ?rule@cmovXX_reg_LEGTNode@@EBEIXZ 08026e20 f i ad_i486_gen.obj
 0001:00025e30       ??0cmpFastLockNode@@QAE@XZ 08026e30 f i ad_i486_gen.obj
 0001:00025e50       ?rule@cmpFastLockNode@@EBEIXZ 08026e50 f i ad_i486_gen.obj
 0001:00025e60       ??0cmpFastUnlockNode@@QAE@XZ 08026e60 f i ad_i486_gen.obj
 0001:00025e80       ?rule@cmpFastUnlockNode@@EBEIXZ 08026e80 f i ad_i486_gen.obj
 0001:00025e90       ??0safePointNode@@QAE@XZ   08026e90 f i ad_i486_gen.obj
 0001:00025eb0       ?rule@safePointNode@@EBEIXZ 08026eb0 f i ad_i486_gen.obj
 0001:00025ec0       ?ideal_Opcode@safePointNode@@EBEHXZ 08026ec0 f i ad_i486_gen.obj
 0001:00025ed0       ??0CallStaticJavaDirectNode@@QAE@XZ 08026ed0 f i ad_i486_gen.obj
 0001:00025ef0       ?rule@CallStaticJavaDirectNode@@EBEIXZ 08026ef0 f i ad_i486_gen.obj
 0001:00025f00       ??0CallDynamicJavaDirectNode@@QAE@XZ 08026f00 f i ad_i486_gen.obj
 0001:00025f20       ?rule@CallDynamicJavaDirectNode@@EBEIXZ 08026f20 f i ad_i486_gen.obj
 0001:00025f30       ??0CallCompiledJavaDirectNode@@QAE@XZ 08026f30 f i ad_i486_gen.obj
 0001:00025f50       ?rule@CallCompiledJavaDirectNode@@EBEIXZ 08026f50 f i ad_i486_gen.obj
 0001:00025f60       ??0CallInterpreterDirectNode@@QAE@XZ 08026f60 f i ad_i486_gen.obj
 0001:00025f80       ?rule@CallInterpreterDirectNode@@EBEIXZ 08026f80 f i ad_i486_gen.obj
 0001:00025f90       ??0CallRuntimeDirectNode@@QAE@XZ 08026f90 f i ad_i486_gen.obj
 0001:00025fb0       ?rule@CallRuntimeDirectNode@@EBEIXZ 08026fb0 f i ad_i486_gen.obj
 0001:00025fc0       ??0CallLeafDirectNode@@QAE@XZ 08026fc0 f i ad_i486_gen.obj
 0001:00025fe0       ?rule@CallLeafDirectNode@@EBEIXZ 08026fe0 f i ad_i486_gen.obj
 0001:00025ff0       ??0RetNode@@QAE@XZ         08026ff0 f i ad_i486_gen.obj
 0001:00026010       ?rule@RetNode@@EBEIXZ      08027010 f i ad_i486_gen.obj
 0001:00026020       ?ideal_Opcode@RetNode@@EBEHXZ 08027020 f i ad_i486_gen.obj
 0001:00026030       ??0TailCalljmpIndNode@@QAE@XZ 08027030 f i ad_i486_gen.obj
 0001:00026050       ?rule@TailCalljmpIndNode@@EBEIXZ 08027050 f i ad_i486_gen.obj
 0001:00026060       ?ideal_Opcode@TailCalljmpIndNode@@EBEHXZ 08027060 f i ad_i486_gen.obj
 0001:00026070       ??0tailjmpIndNode@@QAE@XZ  08027070 f i ad_i486_gen.obj
 0001:00026090       ?rule@tailjmpIndNode@@EBEIXZ 08027090 f i ad_i486_gen.obj
 0001:000260a0       ?ideal_Opcode@tailjmpIndNode@@EBEHXZ 080270a0 f i ad_i486_gen.obj
 0001:000260b0       ??0CreateExceptionNode@@QAE@XZ 080270b0 f i ad_i486_gen.obj
 0001:000260d0       ?rule@CreateExceptionNode@@EBEIXZ 080270d0 f i ad_i486_gen.obj
 0001:000260e0       ??0RethrowExceptionNode@@QAE@XZ 080270e0 f i ad_i486_gen.obj
 0001:00026100       ?rule@RethrowExceptionNode@@EBEIXZ 08027100 f i ad_i486_gen.obj
 0001:00026110       ?ideal_Opcode@RethrowExceptionNode@@EBEHXZ 08027110 f i ad_i486_gen.obj
 0001:00026120       ??0TLSNode@@QAE@XZ         08027120 f i ad_i486_gen.obj
 0001:00026140       ?rule@TLSNode@@EBEIXZ      08027140 f i ad_i486_gen.obj
 0001:00026150       ?current@JavaThread@@SAPAV1@XZ 08027150 f i ad_i486_gen.obj
 0001:00026160       ??0CallNativeDirectNode@@QAE@XZ 08027160 f i ad_i486_gen.obj
 0001:00026180       ?rule@CallNativeDirectNode@@EBEIXZ 08027180 f i ad_i486_gen.obj
 0001:00026190       ??0ShouldNotReachHereNode@@QAE@XZ 08027190 f i ad_i486_gen.obj
 0001:000261b0       ?rule@ShouldNotReachHereNode@@EBEIXZ 080271b0 f i ad_i486_gen.obj
 0001:000261c0       ?data@CompilerThread@@QAEPAXXZ 080271c0 f i ad_i486_gen.obj
 0001:000261d0       ?current@Compile@@SAPAV1@XZ 080271d0 f i ad_i486_gen.obj
 0001:000261f0       ?node_arena@Compile@@QAEPAVArena@@XZ 080271f0 f i ad_i486_gen.obj
 0001:00026200       ??2Node@@SAPAXI@Z          08027200 f i ad_i486_gen.obj
 0001:00026240       ??2MachOper@@SAPAXI@Z      08027240 f i ad_i486_gen.obj
 0001:00026290       ?set_oop_map@MachSafePointNode@@UAEXPAVOopMap@@@Z 08027290 f i ad_i486_gen.obj
 0001:000262a0       ?out_RegMask@leaP32Node@@EBEABVRegMask@@XZ 080272a0 f   ad_i486_misc.obj
 0001:000262a0       ?out_RegMask@shrI_eReg_1Node@@EBEABVRegMask@@XZ 080272a0 f   ad_i486_misc.obj
 0001:000262a0       ?out_RegMask@leaPIdxOffNode@@EBEABVRegMask@@XZ 080272a0 f   ad_i486_misc.obj
 0001:000262a0       ?out_RegMask@cmovI_memNode@@EBEABVRegMask@@XZ 080272a0 f   ad_i486_misc.obj
 0001:000262a0       ?out_RegMask@shrI_eReg_CLNode@@EBEABVRegMask@@XZ 080272a0 f   ad_i486_misc.obj
 0001:000262a0       ?out_RegMask@loadConPNode@@EBEABVRegMask@@XZ 080272a0 f   ad_i486_misc.obj
 0001:000262a0       ?out_RegMask@cmpLTMask0Node@@EBEABVRegMask@@XZ 080272a0 f   ad_i486_misc.obj
 0001:000262a0       ?out_RegMask@subI_eRegNode@@EBEABVRegMask@@XZ 080272a0 f   ad_i486_misc.obj
 0001:000262a0       ?out_RegMask@cmovII_mem_LTGENode@@EBEABVRegMask@@XZ 080272a0 f   ad_i486_misc.obj
 0001:000262a0       ?out_RegMask@orI_eReg_memNode@@EBEABVRegMask@@XZ 080272a0 f   ad_i486_misc.obj
 0001:000262a0       ?out_RegMask@loadKlassNode@@EBEABVRegMask@@XZ 080272a0 f   ad_i486_misc.obj
 0001:000262a0       ?out_RegMask@loadConINode@@EBEABVRegMask@@XZ 080272a0 f   ad_i486_misc.obj
 0001:000262a0       ?out_RegMask@tlsLoadPNode@@EBEABVRegMask@@XZ 080272a0 f   ad_i486_misc.obj
 0001:000262a0       ?out_RegMask@cmovP_regNode@@EBEABVRegMask@@XZ 080272a0 f   ad_i486_misc.obj

 0001:000262a0       ?out_RegMask@subI_eReg_immNode@@EBEABVRegMask@@XZ 080272a0 f   ad_i486_misc.obj
 0001:000262a0       ?out_RegMask@mulI_eReg_immNode@@EBEABVRegMask@@XZ 080272a0 f   ad_i486_misc.obj
 0001:000262a0       ?out_RegMask@loadSSINode@@EBEABVRegMask@@XZ 080272a0 f   ad_i486_misc.obj
 0001:000262a0       ?out_RegMask@loadPNode@@EBEABVRegMask@@XZ 080272a0 f   ad_i486_misc.obj
 0001:000262a0       ?out_RegMask@addI_eReg_memNode@@EBEABVRegMask@@XZ 080272a0 f   ad_i486_misc.obj
 0001:000262a0       ?out_RegMask@loadPLockedNode@@EBEABVRegMask@@XZ 080272a0 f   ad_i486_misc.obj
 0001:000262a0       ?out_RegMask@xorI_eReg_immNode@@EBEABVRegMask@@XZ 080272a0 f   ad_i486_misc.obj
 0001:000262a0       ?out_RegMask@mulI_eRegNode@@EBEABVRegMask@@XZ 080272a0 f   ad_i486_misc.obj
 0001:000262a0       ?out_RegMask@cmovP_regUNode@@EBEABVRegMask@@XZ 080272a0 f   ad_i486_misc.obj
 0001:000262a0       ?out_RegMask@salI_eReg_CLNode@@EBEABVRegMask@@XZ 080272a0 f   ad_i486_misc.obj
 0001:000262a0       ?out_RegMask@loadRangeNode@@EBEABVRegMask@@XZ 080272a0 f   ad_i486_misc.obj
 0001:000262a0       ?out_RegMask@mulINode@@EBEABVRegMask@@XZ 080272a0 f   ad_i486_misc.obj
 0001:000262a0       ?out_RegMask@loadConPcNode@@EBEABVRegMask@@XZ 080272a0 f   ad_i486_misc.obj
 0001:000262a0       ?out_RegMask@cmovI_memuNode@@EBEABVRegMask@@XZ 080272a0 f   ad_i486_misc.obj
 0001:000262a0       ?out_RegMask@cmpD_regNode@@EBEABVRegMask@@XZ 080272a0 f   ad_i486_misc.obj
 0001:000262a0       ?out_RegMask@sarI_eReg_CLNode@@EBEABVRegMask@@XZ 080272a0 f   ad_i486_misc.obj
 0001:000262a0       ?out_RegMask@cmovPP_reg_LEGTNode@@EBEABVRegMask@@XZ 080272a0 f   ad_i486_misc.obj
 0001:000262a0       ?out_RegMask@cmpF_regNode@@EBEABVRegMask@@XZ 080272a0 f   ad_i486_misc.obj
 0001:000262a0       ?out_RegMask@minI_eRegNode@@EBEABVRegMask@@XZ 080272a0 f   ad_i486_misc.obj
 0001:000262a0       ?out_RegMask@cmovPP_reg_EQNENode@@EBEABVRegMask@@XZ 080272a0 f   ad_i486_misc.obj
 0001:000262a0       ?out_RegMask@cmovII_mem_LEGTNode@@EBEABVRegMask@@XZ 080272a0 f   ad_i486_misc.obj
 0001:000262a0       ?out_RegMask@checkCastPPNode@@EBEABVRegMask@@XZ 080272a0 f   ad_i486_misc.obj
 0001:000262a0       ?out_RegMask@cmovPP_reg_LTGENode@@EBEABVRegMask@@XZ 080272a0 f   ad_i486_misc.obj
 0001:000262a0       ?out_RegMask@subI_eReg_memNode@@EBEABVRegMask@@XZ 080272a0 f   ad_i486_misc.obj
 0001:000262a0       ?out_RegMask@cmpF_0Node@@EBEABVRegMask@@XZ 080272a0 f   ad_i486_misc.obj
 0001:000262a0       ?out_RegMask@leaPIdxScaleNode@@EBEABVRegMask@@XZ 080272a0 f   ad_i486_misc.obj
 0001:000262a0       ?out_RegMask@orI_eReg_immNode@@EBEABVRegMask@@XZ 080272a0 f   ad_i486_misc.obj
 0001:000262a0       ?out_RegMask@box_handleNode@@EBEABVRegMask@@XZ 080272a0 f   ad_i486_misc.obj
 0001:000262a0       ?out_RegMask@cmovII_mem_EQNENode@@EBEABVRegMask@@XZ 080272a0 f   ad_i486_misc.obj
 0001:000262a0       ?out_RegMask@cmovII_reg_EQNENode@@EBEABVRegMask@@XZ 080272a0 f   ad_i486_misc.obj
 0001:000262a0       ?out_RegMask@ci2bNode@@EBEABVRegMask@@XZ 080272a0 f   ad_i486_misc.obj
 0001:000262a0       ?out_RegMask@castPPNode@@EBEABVRegMask@@XZ 080272a0 f   ad_i486_misc.obj
 0001:000262a0       ?out_RegMask@incI_eRegNode@@EBEABVRegMask@@XZ 080272a0 f   ad_i486_misc.obj
 0001:000262a0       ?out_RegMask@leaP_eReg_immINode@@EBEABVRegMask@@XZ 080272a0 f   ad_i486_misc.obj
 0001:000262a0       ?out_RegMask@andI_eRegNode@@EBEABVRegMask@@XZ 080272a0 f   ad_i486_misc.obj
 0001:000262a0       ?out_RegMask@loadSNode@@EBEABVRegMask@@XZ 080272a0 f   ad_i486_misc.obj
 0001:000262a0       ?out_RegMask@andI_eReg_memNode@@EBEABVRegMask@@XZ 080272a0 f   ad_i486_misc.obj
 0001:000262a0       ?out_RegMask@loadINode@@EBEABVRegMask@@XZ 080272a0 f   ad_i486_misc.obj
 0001:000262a0       ?out_RegMask@movI_nocopyNode@@EBEABVRegMask@@XZ 080272a0 f   ad_i486_misc.obj
 0001:000262a0       ?out_RegMask@convP2BNode@@EBEABVRegMask@@XZ 080272a0 f   ad_i486_misc.obj
 0001:000262a0       ?out_RegMask@xorI_eReg_memNode@@EBEABVRegMask@@XZ 080272a0 f   ad_i486_misc.obj
 0001:000262a0       ?out_RegMask@cmovII_reg_LTGENode@@EBEABVRegMask@@XZ 080272a0 f   ad_i486_misc.obj
 0001:000262a0       ?out_RegMask@cmovII_reg_LEGTNode@@EBEABVRegMask@@XZ 080272a0 f   ad_i486_misc.obj
 0001:000262a0       ?out_RegMask@addP_eReg_immNode@@EBEABVRegMask@@XZ 080272a0 f   ad_i486_misc.obj
 0001:000262a0       ?out_RegMask@cmovI_regNode@@EBEABVRegMask@@XZ 080272a0 f   ad_i486_misc.obj
 0001:000262a0       ?out_RegMask@cmpXD_regmemNode@@EBEABVRegMask@@XZ 080272a0 f   ad_i486_misc.obj
 0001:000262a0       ?out_RegMask@andI_eReg_immNode@@EBEABVRegMask@@XZ 080272a0 f   ad_i486_misc.obj
 0001:000262a0       ?out_RegMask@maxI_eRegNode@@EBEABVRegMask@@XZ 080272a0 f   ad_i486_misc.obj
 0001:000262a0       ?out_RegMask@shlI_eReg_1Node@@EBEABVRegMask@@XZ 080272a0 f   ad_i486_misc.obj
 0001:000262a0       ?out_RegMask@mulI_mem_immNode@@EBEABVRegMask@@XZ 080272a0 f   ad_i486_misc.obj
 0001:000262a0       ?out_RegMask@convL2I_regNode@@EBEABVRegMask@@XZ 080272a0 f   ad_i486_misc.obj
 0001:000262a0       ?out_RegMask@i2bNode@@EBEABVRegMask@@XZ 080272a0 f   ad_i486_misc.obj
 0001:000262a0       ?out_RegMask@i2sNode@@EBEABVRegMask@@XZ 080272a0 f   ad_i486_misc.obj
 0001:000262a0       ?out_RegMask@tlsLoadP_prefixLoadPNode@@EBEABVRegMask@@XZ 080272a0 f   ad_i486_misc.obj
 0001:000262a0       ?out_RegMask@cmpX_regNode@@EBEABVRegMask@@XZ 080272a0 f   ad_i486_misc.obj
 0001:000262a0       ?out_RegMask@cmpXD_regNode@@EBEABVRegMask@@XZ 080272a0 f   ad_i486_misc.obj
 0001:000262a0       ?out_RegMask@cp2bNode@@EBEABVRegMask@@XZ 080272a0 f   ad_i486_misc.obj
 0001:000262a0       ?out_RegMask@cmovI_regUNode@@EBEABVRegMask@@XZ 080272a0 f   ad_i486_misc.obj
 0001:000262a0       ?out_RegMask@xorI_eRegNode@@EBEABVRegMask@@XZ 080272a0 f   ad_i486_misc.obj
 0001:000262a0       ?out_RegMask@decI_eRegNode@@EBEABVRegMask@@XZ 080272a0 f   ad_i486_misc.obj
 0001:000262a0       ?out_RegMask@TLSNode@@EBEABVRegMask@@XZ 080272a0 f   ad_i486_misc.obj
 0001:000262a0       ?out_RegMask@movP_nocopyNode@@EBEABVRegMask@@XZ 080272a0 f   ad_i486_misc.obj
 0001:000262a0       ?out_RegMask@sarI_eReg_immNode@@EBEABVRegMask@@XZ 080272a0 f   ad_i486_misc.obj
 0001:000262a0       ?out_RegMask@addI_eRegNode@@EBEABVRegMask@@XZ 080272a0 f   ad_i486_misc.obj
 0001:000262a0       ?out_RegMask@addI_eReg_immNode@@EBEABVRegMask@@XZ 080272a0 f   ad_i486_misc.obj
 0001:000262a0       ?out_RegMask@negI_eRegNode@@EBEABVRegMask@@XZ 080272a0 f   ad_i486_misc.obj
 0001:000262a0       ?out_RegMask@salI_eReg_immNode@@EBEABVRegMask@@XZ 080272a0 f   ad_i486_misc.obj
 0001:000262a0       ?out_RegMask@loadConI0Node@@EBEABVRegMask@@XZ 080272a0 f   ad_i486_misc.obj
 0001:000262a0       ?out_RegMask@loadCNode@@EBEABVRegMask@@XZ 080272a0 f   ad_i486_misc.obj
 0001:000262a0       ?out_RegMask@leaI_eReg_immINode@@EBEABVRegMask@@XZ 080272a0 f   ad_i486_misc.obj
 0001:000262a0       ?out_RegMask@leaP8Node@@EBEABVRegMask@@XZ 080272a0 f   ad_i486_misc.obj
 0001:000262a0       ?out_RegMask@addP_eRegNode@@EBEABVRegMask@@XZ 080272a0 f   ad_i486_misc.obj
 0001:000262a0       ?out_RegMask@cmpX_regmemNode@@EBEABVRegMask@@XZ 080272a0 f   ad_i486_misc.obj
 0001:000262a0       ?out_RegMask@cmpD_0Node@@EBEABVRegMask@@XZ 080272a0 f   ad_i486_misc.obj
 0001:000262a0       ?out_RegMask@movINode@@EBEABVRegMask@@XZ 080272a0 f   ad_i486_misc.obj
 0001:000262a0       ?out_RegMask@castP2INode@@EBEABVRegMask@@XZ 080272a0 f   ad_i486_misc.obj
 0001:000262a0       ?out_RegMask@loadSSPNode@@EBEABVRegMask@@XZ 080272a0 f   ad_i486_misc.obj
 0001:000262a0       ?out_RegMask@sarI_eReg_1Node@@EBEABVRegMask@@XZ 080272a0 f   ad_i486_misc.obj
 0001:000262a0       ?out_RegMask@orI_eRegNode@@EBEABVRegMask@@XZ 080272a0 f   ad_i486_misc.obj
 0001:000262a0       ?out_RegMask@shrI_eReg_immNode@@EBEABVRegMask@@XZ 080272a0 f   ad_i486_misc.obj
 0001:000262a0       ?out_RegMask@subP_eRegNode@@EBEABVRegMask@@XZ 080272a0 f   ad_i486_misc.obj
 0001:000262a0       ?out_RegMask@convI2BNode@@EBEABVRegMask@@XZ 080272a0 f   ad_i486_misc.obj
 0001:000262a0       ?out_RegMask@leaPIdxScaleOffNode@@EBEABVRegMask@@XZ 080272a0 f   ad_i486_misc.obj
 0001:000262a0       ?out_RegMask@cmovP_reg_nonP6Node@@EBEABVRegMask@@XZ 080272a0 f   ad_i486_misc.obj
 0001:000262a0       ?out_RegMask@storeLConditionalNode@@EBEABVRegMask@@XZ 080272a0 f   ad_i486_misc.obj
 0001:000262b0       ?out_RegMask@loadBNode@@EBEABVRegMask@@XZ 080272b0 f   ad_i486_misc.obj
 0001:000262b0       ?out_RegMask@loadUBNode@@EBEABVRegMask@@XZ 080272b0 f   ad_i486_misc.obj
 0001:000262c0       ?out_RegMask@shlL_eReg_32_63Node@@EBEABVRegMask@@XZ 080272c0 f   ad_i486_misc.obj
 0001:000262c0       ?out_RegMask@subL_eRegNode@@EBEABVRegMask@@XZ 080272c0 f   ad_i486_misc.obj
 0001:000262c0       ?out_RegMask@shrL_eReg_CLNode@@EBEABVRegMask@@XZ 080272c0 f   ad_i486_misc.obj
 0001:000262c0       ?out_RegMask@orl_eReg_memNode@@EBEABVRegMask@@XZ 080272c0 f   ad_i486_misc.obj
 0001:000262c0       ?out_RegMask@convI2L_regNode@@EBEABVRegMask@@XZ 080272c0 f   ad_i486_misc.obj
 0001:000262c0       ?out_RegMask@convI2L_reg_zexNode@@EBEABVRegMask@@XZ 080272c0 f   ad_i486_misc.obj
 0001:000262c0       ?out_RegMask@xorl_eRegNode@@EBEABVRegMask@@XZ 080272c0 f   ad_i486_misc.obj
 0001:000262c0       ?out_RegMask@addL_eReg_immNode@@EBEABVRegMask@@XZ 080272c0 f   ad_i486_misc.obj
 0001:000262c0       ?out_RegMask@cmovLL_mem_LTGENode@@EBEABVRegMask@@XZ 080272c0 f   ad_i486_misc.obj
 0001:000262c0       ?out_RegMask@cmovLL_mem_EQNENode@@EBEABVRegMask@@XZ 080272c0 f   ad_i486_misc.obj
 0001:000262c0       ?out_RegMask@xorl_eReg_memNode@@EBEABVRegMask@@XZ 080272c0 f   ad_i486_misc.obj
 0001:000262c0       ?out_RegMask@cmovLL_reg_EQNENode@@EBEABVRegMask@@XZ 080272c0 f   ad_i486_misc.obj
 0001:000262c0       ?out_RegMask@addL_eReg_memNode@@EBEABVRegMask@@XZ 080272c0 f   ad_i486_misc.obj
 0001:000262c0       ?out_RegMask@loadConLNode@@EBEABVRegMask@@XZ 080272c0 f   ad_i486_misc.obj
 0001:000262c0       ?out_RegMask@subL_eReg_memNode@@EBEABVRegMask@@XZ 080272c0 f   ad_i486_misc.obj
 0001:000262c0       ?out_RegMask@andL_eReg_immNode@@EBEABVRegMask@@XZ 080272c0 f   ad_i486_misc.obj
 0001:000262c0       ?out_RegMask@shrL_eReg_1_31Node@@EBEABVRegMask@@XZ 080272c0 f   ad_i486_misc.obj
 0001:000262c0       ?out_RegMask@cmovL_regNode@@EBEABVRegMask@@XZ 080272c0 f   ad_i486_misc.obj
 0001:000262c0       ?out_RegMask@cmovLL_reg_LEGTNode@@EBEABVRegMask@@XZ 080272c0 f   ad_i486_misc.obj
 0001:000262c0       ?out_RegMask@orl_eReg_immNode@@EBEABVRegMask@@XZ 080272c0 f   ad_i486_misc.obj
 0001:000262c0       ?out_RegMask@cmovLL_mem_LEGTNode@@EBEABVRegMask@@XZ 080272c0 f   ad_i486_misc.obj
 0001:000262c0       ?out_RegMask@sarL_eReg_1_31Node@@EBEABVRegMask@@XZ 080272c0 f   ad_i486_misc.obj
 0001:000262c0       ?out_RegMask@sarL_eReg_32_63Node@@EBEABVRegMask@@XZ 080272c0 f   ad_i486_misc.obj
 0001:000262c0       ?out_RegMask@orl_eRegNode@@EBEABVRegMask@@XZ 080272c0 f   ad_i486_misc.obj
 0001:000262c0       ?out_RegMask@cmovL_regUNode@@EBEABVRegMask@@XZ 080272c0 f   ad_i486_misc.obj
 0001:000262c0       ?out_RegMask@cmovLL_reg_LTGENode@@EBEABVRegMask@@XZ 080272c0 f   ad_i486_misc.obj
 0001:000262c0       ?out_RegMask@zerox_longNode@@EBEABVRegMask@@XZ 080272c0 f   ad_i486_misc.obj
 0001:000262c0       ?out_RegMask@addL_eRegNode@@EBEABVRegMask@@XZ 080272c0 f   ad_i486_misc.obj
 0001:000262c0       ?out_RegMask@salL_eReg_CLNode@@EBEABVRegMask@@XZ 080272c0 f   ad_i486_misc.obj
 0001:000262c0       ?out_RegMask@xorl_eReg_immNode@@EBEABVRegMask@@XZ 080272c0 f   ad_i486_misc.obj
 0001:000262c0       ?out_RegMask@movLNode@@EBEABVRegMask@@XZ 080272c0 f   ad_i486_misc.obj
 0001:000262c0       ?out_RegMask@andL_eRegNode@@EBEABVRegMask@@XZ 080272c0 f   ad_i486_misc.obj
 0001:000262c0       ?out_RegMask@subL_eReg_immNode@@EBEABVRegMask@@XZ 080272c0 f   ad_i486_misc.obj
 0001:000262c0       ?out_RegMask@loadConL0Node@@EBEABVRegMask@@XZ 080272c0 f   ad_i486_misc.obj
 0001:000262c0       ?out_RegMask@negL_eRegNode@@EBEABVRegMask@@XZ 080272c0 f   ad_i486_misc.obj
 0001:000262c0       ?out_RegMask@loadLNode@@EBEABVRegMask@@XZ 080272c0 f   ad_i486_misc.obj
 0001:000262c0       ?out_RegMask@shlL_eReg_1_31Node@@EBEABVRegMask@@XZ 080272c0 f   ad_i486_misc.obj
 0001:000262c0       ?out_RegMask@sarL_eReg_CLNode@@EBEABVRegMask@@XZ 080272c0 f   ad_i486_misc.obj
 0001:000262c0       ?out_RegMask@shrL_eReg_32_63Node@@EBEABVRegMask@@XZ 080272c0 f   ad_i486_misc.obj
 0001:000262c0       ?out_RegMask@andL_eReg_memNode@@EBEABVRegMask@@XZ 080272c0 f   ad_i486_misc.obj
 0001:000262d0       ?out_RegMask@addF24_regNode@@EBEABVRegMask@@XZ 080272d0 f   ad_i486_misc.obj
 0001:000262d0       ?out_RegMask@mulF24_regNode@@EBEABVRegMask@@XZ 080272d0 f   ad_i486_misc.obj
 0001:000262d0       ?out_RegMask@convL2D_regNode@@EBEABVRegMask@@XZ 080272d0 f   ad_i486_misc.obj
 0001:000262d0       ?out_RegMask@storeSSLNode@@EBEABVRegMask@@XZ 080272d0 f   ad_i486_misc.obj
 0001:000262d0       ?out_RegMask@convD2F_regNode@@EBEABVRegMask@@XZ 080272d0 f   ad_i486_misc.obj
 0001:000262d0       ?out_RegMask@storeSSPNode@@EBEABVRegMask@@XZ 080272d0 f   ad_i486_misc.obj
 0001:000262d0       ?out_RegMask@mulF24_mem_memNode@@EBEABVRegMask@@XZ 080272d0 f   ad_i486_misc.obj
 0001:000262d0       ?out_RegMask@mulF24_reg_memNode@@EBEABVRegMask@@XZ 080272d0 f   ad_i486_misc.obj
 0001:000262d0       ?out_RegMask@convI2F_SSF_memNode@@EBEABVRegMask@@XZ 080272d0 f   ad_i486_misc.obj
 0001:000262d0       ?out_RegMask@divD_reg_roundNode@@EBEABVRegMask@@XZ 080272d0 f   ad_i486_misc.obj
 0001:000262d0       ?out_RegMask@addF24_mem_regNode@@EBEABVRegMask@@XZ 080272d0 f   ad_i486_misc.obj
 0001:000262d0       ?out_RegMask@storeSSINode@@EBEABVRegMask@@XZ 080272d0 f   ad_i486_misc.obj
 0001:000262d0       ?out_RegMask@addF24_reg_immNode@@EBEABVRegMask@@XZ 080272d0 f   ad_i486_misc.obj
 0001:000262d0       ?out_RegMask@divF24_regNode@@EBEABVRegMask@@XZ 080272d0 f   ad_i486_misc.obj
 0001:000262d0       ?out_RegMask@mulF24_reg_immNode@@EBEABVRegMask@@XZ 080272d0 f   ad_i486_misc.obj
 0001:000262d0       ?out_RegMask@roundDouble_mem_regNode@@EBEABVRegMask@@XZ 080272d0 f   ad_i486_misc.obj
 0001:000262d0       ?out_RegMask@addF24_mem_memNode@@EBEABVRegMask@@XZ 080272d0 f   ad_i486_misc.obj
 0001:000262d0       ?out_RegMask@convI2F_SSFNode@@EBEABVRegMask@@XZ 080272d0 f   ad_i486_misc.obj
 0001:000262d0       ?out_RegMask@addD_reg_roundNode@@EBEABVRegMask@@XZ 080272d0 f   ad_i486_misc.obj
 0001:000262d0       ?out_RegMask@subD_reg_roundNode@@EBEABVRegMask@@XZ 080272d0 f   ad_i486_misc.obj
 0001:000262d0       ?out_RegMask@convL2F_regNode@@EBEABVRegMask@@XZ 080272d0 f   ad_i486_misc.obj
 0001:000262d0       ?out_RegMask@addF24_reg_memNode@@EBEABVRegMask@@XZ 080272d0 f   ad_i486_misc.obj
 0001:000262d0       ?out_RegMask@loadLLockedNode@@EBEABVRegMask@@XZ 080272d0 f   ad_i486_misc.obj
 0001:000262d0       ?out_RegMask@subF24_regNode@@EBEABVRegMask@@XZ 080272d0 f   ad_i486_misc.obj
 0001:000262d0       ?out_RegMask@addF24_mem_ciscNode@@EBEABVRegMask@@XZ 080272d0 f   ad_i486_misc.obj
 0001:000262d0       ?out_RegMask@addD_reg_imm_roundNode@@EBEABVRegMask@@XZ 080272d0 f   ad_i486_misc.obj
 0001:000262d0       ?out_RegMask@loadL_volatileNode@@EBEABVRegMask@@XZ 080272d0 f   ad_i486_misc.obj
 0001:000262d0       ?out_RegMask@modF24_regNode@@EBEABVRegMask@@XZ 080272d0 f   ad_i486_misc.obj
 0001:000262d0       ?out_RegMask@roundFloat_mem_regNode@@EBEABVRegMask@@XZ 080272d0 f   ad_i486_misc.obj
 0001:000262f0       ?out_RegMask@mulD_regNode@@EBEABVRegMask@@XZ 080272f0 f   ad_i486_misc.obj
 0001:000262f0       ?out_RegMask@strictfp_divD_regNode@@EBEABVRegMask@@XZ 080272f0 f   ad_i486_misc.obj
 0001:000262f0       ?out_RegMask@cmovDD_reg_LTGENode@@EBEABVRegMask@@XZ 080272f0 f   ad_i486_misc.obj
 0001:000262f0       ?out_RegMask@mulD_reg_immNode@@EBEABVRegMask@@XZ 080272f0 f   ad_i486_misc.obj
 0001:000262f0       ?out_RegMask@convI2D_regNode@@EBEABVRegMask@@XZ 080272f0 f   ad_i486_misc.obj
 0001:000262f0       ?out_RegMask@addD_reg_immNode@@EBEABVRegMask@@XZ 080272f0 f   ad_i486_misc.obj
 0001:000262f0       ?out_RegMask@sqrtD_regNode@@EBEABVRegMask@@XZ 080272f0 f   ad_i486_misc.obj
 0001:000262f0       ?out_RegMask@loadDNode@@EBEABVRegMask@@XZ 080272f0 f   ad_i486_misc.obj
 0001:000262f0       ?out_RegMask@cmovDD_reg_LEGTNode@@EBEABVRegMask@@XZ 080272f0 f   ad_i486_misc.obj
 0001:000262f0       ?out_RegMask@divD_regNode@@EBEABVRegMask@@XZ 080272f0 f   ad_i486_misc.obj
 0001:000262f0       ?out_RegMask@subD_mulD_regNode@@EBEABVRegMask@@XZ 080272f0 f   ad_i486_misc.obj
 0001:000262f0       ?out_RegMask@modD_regNode@@EBEABVRegMask@@XZ 080272f0 f   ad_i486_misc.obj
 0001:000262f0       ?out_RegMask@fcmovD_regSNode@@EBEABVRegMask@@XZ 080272f0 f   ad_i486_misc.obj
 0001:000262f0       ?out_RegMask@cmovDD_reg_EQNENode@@EBEABVRegMask@@XZ 080272f0 f   ad_i486_misc.obj
 0001:000262f0       ?out_RegMask@convI2D_memNode@@EBEABVRegMask@@XZ 080272f0 f   ad_i486_misc.obj
 0001:000262f0       ?out_RegMask@subD_reg_memNode@@EBEABVRegMask@@XZ 080272f0 f   ad_i486_misc.obj
 0001:000262f0       ?out_RegMask@mulD_reg_mem_ciscNode@@EBEABVRegMask@@XZ 080272f0 f   ad_i486_misc.obj
 0001:000262f0       ?out_RegMask@addD_reg_imm1Node@@EBEABVRegMask@@XZ 080272f0 f   ad_i486_misc.obj
 0001:000262f0       ?out_RegMask@addD_reg_memNode@@EBEABVRegMask@@XZ 080272f0 f   ad_i486_misc.obj
 0001:000262f0       ?out_RegMask@atanD_regNode@@EBEABVRegMask@@XZ 080272f0 f   ad_i486_misc.obj
 0001:000262f0       ?out_RegMask@movDNode@@EBEABVRegMask@@XZ 080272f0 f   ad_i486_misc.obj
 0001:000262f0       ?out_RegMask@mulD_reg_memNode@@EBEABVRegMask@@XZ 080272f0 f   ad_i486_misc.obj
 0001:000262f0       ?out_RegMask@subD_regNode@@EBEABVRegMask@@XZ 080272f0 f   ad_i486_misc.obj
 0001:000262f0       ?out_RegMask@convX2D_regNode@@EBEABVRegMask@@XZ 080272f0 f   ad_i486_misc.obj
 0001:000262f0       ?out_RegMask@addD_mulD_regNode@@EBEABVRegMask@@XZ 080272f0 f   ad_i486_misc.obj
 0001:000262f0       ?out_RegMask@loadConDNode@@EBEABVRegMask@@XZ 080272f0 f   ad_i486_misc.obj
 0001:000262f0       ?out_RegMask@addD_regNode@@EBEABVRegMask@@XZ 080272f0 f   ad_i486_misc.obj
 0001:000262f0       ?out_RegMask@loadSSDNode@@EBEABVRegMask@@XZ 080272f0 f   ad_i486_misc.obj
 0001:000262f0       ?out_RegMask@strictfp_mulD_regNode@@EBEABVRegMask@@XZ 080272f0 f   ad_i486_misc.obj
 0001:000262f0       ?out_RegMask@tanD_regNode@@EBEABVRegMask@@XZ 080272f0 f   ad_i486_misc.obj
 0001:000262f0       ?out_RegMask@convF2D_regNode@@EBEABVRegMask@@XZ 080272f0 f   ad_i486_misc.obj
 0001:00026300       ?out_RegMask@divXD_regNode@@EBEABVRegMask@@XZ 08027300 f   ad_i486_misc.obj
 0001:00026300       ?out_RegMask@loadConXDNode@@EBEABVRegMask@@XZ 08027300 f   ad_i486_misc.obj
 0001:00026300       ?out_RegMask@fcmovXD_regSNode@@EBEABVRegMask@@XZ 08027300 f   ad_i486_misc.obj
 0001:00026300       ?out_RegMask@addXD_immNode@@EBEABVRegMask@@XZ 08027300 f   ad_i486_misc.obj
 0001:00026300       ?out_RegMask@cosXD_regNode@@EBEABVRegMask@@XZ 08027300 f   ad_i486_misc.obj
 0001:00026300       ?out_RegMask@modXD_regNode@@EBEABVRegMask@@XZ 08027300 f   ad_i486_misc.obj
 0001:00026300       ?out_RegMask@atanXD_regNode@@EBEABVRegMask@@XZ 08027300 f   ad_i486_misc.obj
 0001:00026300       ?out_RegMask@convI2XD_memNode@@EBEABVRegMask@@XZ 08027300 f   ad_i486_misc.obj
 0001:00026300       ?out_RegMask@mulXD_memNode@@EBEABVRegMask@@XZ 08027300 f   ad_i486_misc.obj
 0001:00026300       ?out_RegMask@cmovXDD_reg_LTGENode@@EBEABVRegMask@@XZ 08027300 f   ad_i486_misc.obj
 0001:00026300       ?out_RegMask@convL2XD_regNode@@EBEABVRegMask@@XZ 08027300 f   ad_i486_misc.obj
 0001:00026300       ?out_RegMask@cmovXDD_reg_LEGTNode@@EBEABVRegMask@@XZ 08027300 f   ad_i486_misc.obj
 0001:00026300       ?out_RegMask@loadConXD0Node@@EBEABVRegMask@@XZ 08027300 f   ad_i486_misc.obj
 0001:00026300       ?out_RegMask@mulXD_regNode@@EBEABVRegMask@@XZ 08027300 f   ad_i486_misc.obj
 0001:00026300       ?out_RegMask@absXD_regNode@@EBEABVRegMask@@XZ 08027300 f   ad_i486_misc.obj
 0001:00026300       ?out_RegMask@negXD_regNode@@EBEABVRegMask@@XZ 08027300 f   ad_i486_misc.obj
 0001:00026300       ?out_RegMask@divXD_memNode@@EBEABVRegMask@@XZ 08027300 f   ad_i486_misc.obj
 0001:00026300       ?out_RegMask@sinXD_regNode@@EBEABVRegMask@@XZ 08027300 f   ad_i486_misc.obj
 0001:00026300       ?out_RegMask@loadXDNode@@EBEABVRegMask@@XZ 08027300 f   ad_i486_misc.obj
 0001:00026300       ?out_RegMask@subXD_memNode@@EBEABVRegMask@@XZ 08027300 f   ad_i486_misc.obj
 0001:00026300       ?out_RegMask@subXD_regNode@@EBEABVRegMask@@XZ 08027300 f   ad_i486_misc.obj
 0001:00026300       ?out_RegMask@addXD_memNode@@EBEABVRegMask@@XZ 08027300 f   ad_i486_misc.obj
 0001:00026300       ?out_RegMask@convI2XD_regNode@@EBEABVRegMask@@XZ 08027300 f   ad_i486_misc.obj
 0001:00026300       ?out_RegMask@cmovXDD_reg_EQNENode@@EBEABVRegMask@@XZ 08027300 f   ad_i486_misc.obj
 0001:00026300       ?out_RegMask@sqrtXD_regNode@@EBEABVRegMask@@XZ 08027300 f   ad_i486_misc.obj
 0001:00026300       ?out_RegMask@convX2XD_regNode@@EBEABVRegMask@@XZ 08027300 f   ad_i486_misc.obj
 0001:00026300       ?out_RegMask@tanXD_regNode@@EBEABVRegMask@@XZ 08027300 f   ad_i486_misc.obj
 0001:00026300       ?out_RegMask@mulXD_immNode@@EBEABVRegMask@@XZ 08027300 f   ad_i486_misc.obj
 0001:00026300       ?out_RegMask@fcmovXD_regUNode@@EBEABVRegMask@@XZ 08027300 f   ad_i486_misc.obj
 0001:00026300       ?out_RegMask@addXD_regNode@@EBEABVRegMask@@XZ 08027300 f   ad_i486_misc.obj
 0001:00026300       ?out_RegMask@sqrtXD_memNode@@EBEABVRegMask@@XZ 08027300 f   ad_i486_misc.obj
 0001:00026300       ?out_RegMask@subXD_immNode@@EBEABVRegMask@@XZ 08027300 f   ad_i486_misc.obj
 0001:00026300       ?out_RegMask@divXD_immNode@@EBEABVRegMask@@XZ 08027300 f   ad_i486_misc.obj
 0001:00026310       ?out_RegMask@loadXNode@@EBEABVRegMask@@XZ 08027310 f   ad_i486_misc.obj
 0001:00026310       ?out_RegMask@divX_regNode@@EBEABVRegMask@@XZ 08027310 f   ad_i486_misc.obj
 0001:00026310       ?out_RegMask@convD2X_regNode@@EBEABVRegMask@@XZ 08027310 f   ad_i486_misc.obj
 0001:00026310       ?out_RegMask@cmovXX_reg_LEGTNode@@EBEABVRegMask@@XZ 08027310 f   ad_i486_misc.obj
 0001:00026310       ?out_RegMask@mulX_immNode@@EBEABVRegMask@@XZ 08027310 f   ad_i486_misc.obj
 0001:00026310       ?out_RegMask@convXD2X_regNode@@EBEABVRegMask@@XZ 08027310 f   ad_i486_misc.obj
 0001:00026310       ?out_RegMask@addX_immNode@@EBEABVRegMask@@XZ 08027310 f   ad_i486_misc.obj
 0001:00026310       ?out_RegMask@subX_memNode@@EBEABVRegMask@@XZ 08027310 f   ad_i486_misc.obj
 0001:00026310       ?out_RegMask@movXNode@@EBEABVRegMask@@XZ 08027310 f   ad_i486_misc.obj
 0001:00026310       ?out_RegMask@fcmovX_regSNode@@EBEABVRegMask@@XZ 08027310 f   ad_i486_misc.obj
 0001:00026310       ?out_RegMask@absX_regNode@@EBEABVRegMask@@XZ 08027310 f   ad_i486_misc.obj
 0001:00026310       ?out_RegMask@convI2X_regNode@@EBEABVRegMask@@XZ 08027310 f   ad_i486_misc.obj
 0001:00026310       ?out_RegMask@cmovXX_reg_EQNENode@@EBEABVRegMask@@XZ 08027310 f   ad_i486_misc.obj
 0001:00026310       ?out_RegMask@mulX_memNode@@EBEABVRegMask@@XZ 08027310 f   ad_i486_misc.obj
 0001:00026310       ?out_RegMask@loadConX0Node@@EBEABVRegMask@@XZ 08027310 f   ad_i486_misc.obj
 0001:00026310       ?out_RegMask@modX_regNode@@EBEABVRegMask@@XZ 08027310 f   ad_i486_misc.obj
 0001:00026310       ?out_RegMask@convL2X_regNode@@EBEABVRegMask@@XZ 08027310 f   ad_i486_misc.obj
 0001:00026310       ?out_RegMask@addX_regNode@@EBEABVRegMask@@XZ 08027310 f   ad_i486_misc.obj
 0001:00026310       ?out_RegMask@subX_regNode@@EBEABVRegMask@@XZ 08027310 f   ad_i486_misc.obj
 0001:00026310       ?out_RegMask@negX_regNode@@EBEABVRegMask@@XZ 08027310 f   ad_i486_misc.obj
 0001:00026310       ?out_RegMask@cmovXX_reg_LTGENode@@EBEABVRegMask@@XZ 08027310 f   ad_i486_misc.obj
 0001:00026310       ?out_RegMask@loadConXNode@@EBEABVRegMask@@XZ 08027310 f   ad_i486_misc.obj
 0001:00026310       ?out_RegMask@mulX_regNode@@EBEABVRegMask@@XZ 08027310 f   ad_i486_misc.obj
 0001:00026310       ?out_RegMask@subX_immNode@@EBEABVRegMask@@XZ 08027310 f   ad_i486_misc.obj
 0001:00026310       ?out_RegMask@addX_memNode@@EBEABVRegMask@@XZ 08027310 f   ad_i486_misc.obj
 0001:00026310       ?out_RegMask@divX_memNode@@EBEABVRegMask@@XZ 08027310 f   ad_i486_misc.obj
 0001:00026310       ?out_RegMask@fcmovX_regUNode@@EBEABVRegMask@@XZ 08027310 f   ad_i486_misc.obj
 0001:00026310       ?out_RegMask@divX_immNode@@EBEABVRegMask@@XZ 08027310 f   ad_i486_misc.obj
 0001:00026320       ?out_RegMask@addF_mulF_regNode@@EBEABVRegMask@@XZ 08027320 f   ad_i486_misc.obj
 0001:00026320       ?out_RegMask@addF_regNode@@EBEABVRegMask@@XZ 08027320 f   ad_i486_misc.obj
 0001:00026320       ?out_RegMask@loadConFNode@@EBEABVRegMask@@XZ 08027320 f   ad_i486_misc.obj
 0001:00026320       ?out_RegMask@divF_regNode@@EBEABVRegMask@@XZ 08027320 f   ad_i486_misc.obj
 0001:00026320       ?out_RegMask@cmovFF_reg_LEGTNode@@EBEABVRegMask@@XZ 08027320 f   ad_i486_misc.obj
 0001:00026320       ?out_RegMask@addF_reg_memNode@@EBEABVRegMask@@XZ 08027320 f   ad_i486_misc.obj
 0001:00026320       ?out_RegMask@mulF_reg_immNode@@EBEABVRegMask@@XZ 08027320 f   ad_i486_misc.obj
 0001:00026320       ?out_RegMask@cmovFF_reg_EQNENode@@EBEABVRegMask@@XZ 08027320 f   ad_i486_misc.obj
 0001:00026320       ?out_RegMask@cmovFF_reg_LTGENode@@EBEABVRegMask@@XZ 08027320 f   ad_i486_misc.obj
 0001:00026320       ?out_RegMask@fcmovF_regSNode@@EBEABVRegMask@@XZ 08027320 f   ad_i486_misc.obj
 0001:00026320       ?out_RegMask@mulF_reg_load1Node@@EBEABVRegMask@@XZ 08027320 f   ad_i486_misc.obj
 0001:00026320       ?out_RegMask@convI2F_memNode@@EBEABVRegMask@@XZ 08027320 f   ad_i486_misc.obj
 0001:00026320       ?out_RegMask@addF_reg_immNode@@EBEABVRegMask@@XZ 08027320 f   ad_i486_misc.obj
 0001:00026320       ?out_RegMask@movFNode@@EBEABVRegMask@@XZ 08027320 f   ad_i486_misc.obj
 0001:00026320       ?out_RegMask@mulF_reg_memNode@@EBEABVRegMask@@XZ 08027320 f   ad_i486_misc.obj
 0001:00026320       ?out_RegMask@subF_regNode@@EBEABVRegMask@@XZ 08027320 f   ad_i486_misc.obj
 0001:00026320       ?out_RegMask@loadFNode@@EBEABVRegMask@@XZ 08027320 f   ad_i486_misc.obj
 0001:00026320       ?out_RegMask@mulF_regNode@@EBEABVRegMask@@XZ 08027320 f   ad_i486_misc.obj
 0001:00026320       ?out_RegMask@subF_divF_regNode@@EBEABVRegMask@@XZ 08027320 f   ad_i486_misc.obj
 0001:00026320       ?out_RegMask@conv24I2F_regNode@@EBEABVRegMask@@XZ 08027320 f   ad_i486_misc.obj
 0001:00026320       ?out_RegMask@modF_regNode@@EBEABVRegMask@@XZ 08027320 f   ad_i486_misc.obj
 0001:00026320       ?out_RegMask@convI2F_regNode@@EBEABVRegMask@@XZ 08027320 f   ad_i486_misc.obj
 0001:00026320       ?out_RegMask@loadSSFNode@@EBEABVRegMask@@XZ 08027320 f   ad_i486_misc.obj
 0001:00026320       ?out_RegMask@addF_mulF_reg_load1Node@@EBEABVRegMask@@XZ 08027320 f   ad_i486_misc.obj
 0001:00026330       ?out_RegMask@movPNode@@EBEABVRegMask@@XZ 08027330 f   ad_i486_misc.obj
 0001:00026340       ?out_RegMask@convXD2I_reg_regNode@@EBEABVRegMask@@XZ 08027340 f   ad_i486_misc.obj
 0001:00026340       ?out_RegMask@castL2PNode@@EBEABVRegMask@@XZ 08027340 f   ad_i486_misc.obj
 0001:00026340       ?out_RegMask@CreateExceptionNode@@EBEABVRegMask@@XZ 08027340 f   ad_i486_misc.obj
 0001:00026340       ?out_RegMask@convX2I_regNode@@EBEABVRegMask@@XZ 08027340 f   ad_i486_misc.obj
 0001:00026340       ?out_RegMask@convD2I_reg_regNode@@EBEABVRegMask@@XZ 08027340 f   ad_i486_misc.obj
 0001:00026340       ?out_RegMask@convF2I_reg_regNode@@EBEABVRegMask@@XZ 08027340 f   ad_i486_misc.obj
 0001:00026340       ?out_RegMask@divI_eRegNode@@EBEABVRegMask@@XZ 08027340 f   ad_i486_misc.obj
 0001:00026350       ?out_RegMask@divL_eRegNode@@EBEABVRegMask@@XZ 08027350 f   ad_i486_misc.obj
 0001:00026350       ?out_RegMask@convXD2L_reg_regNode@@EBEABVRegMask@@XZ 08027350 f   ad_i486_misc.obj
 0001:00026350       ?out_RegMask@loadConL_low_onlyNode@@EBEABVRegMask@@XZ 08027350 f   ad_i486_misc.obj
 0001:00026350       ?out_RegMask@mulL_eRegNode@@EBEABVRegMask@@XZ 08027350 f   ad_i486_misc.obj
 0001:00026350       ?out_RegMask@castP2LNode@@EBEABVRegMask@@XZ 08027350 f   ad_i486_misc.obj
 0001:00026350       ?out_RegMask@mulL_eReg_conNode@@EBEABVRegMask@@XZ 08027350 f   ad_i486_misc.obj
 0001:00026350       ?out_RegMask@modL_eRegNode@@EBEABVRegMask@@XZ 08027350 f   ad_i486_misc.obj
 0001:00026350       ?out_RegMask@convD2L_reg_regNode@@EBEABVRegMask@@XZ 08027350 f   ad_i486_misc.obj
 0001:00026350       ?out_RegMask@convX2L_reg_regNode@@EBEABVRegMask@@XZ 08027350 f   ad_i486_misc.obj
 0001:00026350       ?out_RegMask@convF2L_reg_regNode@@EBEABVRegMask@@XZ 08027350 f   ad_i486_misc.obj
 0001:00026360       ?out_RegMask@absD_regNode@@EBEABVRegMask@@XZ 08027360 f   ad_i486_misc.obj
 0001:00026360       ?out_RegMask@negD_regNode@@EBEABVRegMask@@XZ 08027360 f   ad_i486_misc.obj
 0001:00026360       ?out_RegMask@cosD_regNode@@EBEABVRegMask@@XZ 08027360 f   ad_i486_misc.obj
 0001:00026360       ?out_RegMask@fcmovD_regUNode@@EBEABVRegMask@@XZ 08027360 f   ad_i486_misc.obj
 0001:00026360       ?out_RegMask@powD_regNode@@EBEABVRegMask@@XZ 08027360 f   ad_i486_misc.obj
 0001:00026360       ?out_RegMask@sinD_regNode@@EBEABVRegMask@@XZ 08027360 f   ad_i486_misc.obj
 0001:00026370       ?out_RegMask@negF_regNode@@EBEABVRegMask@@XZ 08027370 f   ad_i486_misc.obj
 0001:00026370       ?out_RegMask@absF_regNode@@EBEABVRegMask@@XZ 08027370 f   ad_i486_misc.obj
 0001:00026370       ?out_RegMask@fcmovF_regUNode@@EBEABVRegMask@@XZ 08027370 f   ad_i486_misc.obj
 0001:00026380       ?out_RegMask@compI_eReg_memNode@@EBEABVRegMask@@XZ 08027380 f   ad_i486_misc.obj
 0001:00026380       ?out_RegMask@testP_regNode@@EBEABVRegMask@@XZ 08027380 f   ad_i486_misc.obj
 0001:00026380       ?out_RegMask@compU_eRegNode@@EBEABVRegMask@@XZ 08027380 f   ad_i486_misc.obj
 0001:00026380       ?out_RegMask@cmpL_reg_flags_LEGTNode@@EBEABVRegMask@@XZ 08027380 f   ad_i486_misc.obj
 0001:00026380       ?out_RegMask@cmpL_reg_flags_EQNENode@@EBEABVRegMask@@XZ 08027380 f   ad_i486_misc.obj
 0001:00026380       ?out_RegMask@cmpL_zero_flags_LEGTNode@@EBEABVRegMask@@XZ 08027380 f   ad_i486_misc.obj
 0001:00026380       ?out_RegMask@cmpXD_ccmemNode@@EBEABVRegMask@@XZ 08027380 f   ad_i486_misc.obj
 0001:00026380       ?out_RegMask@compI_eReg_immNode@@EBEABVRegMask@@XZ 08027380 f   ad_i486_misc.obj
 0001:00026380       ?out_RegMask@cmpXD_ccNode@@EBEABVRegMask@@XZ 08027380 f   ad_i486_misc.obj
 0001:00026380       ?out_RegMask@testI_reg_memNode@@EBEABVRegMask@@XZ 08027380 f   ad_i486_misc.obj
 0001:00026380       ?out_RegMask@compP_mem_eRegNode@@EBEABVRegMask@@XZ 08027380 f   ad_i486_misc.obj
 0001:00026380       ?out_RegMask@compU_eReg_immNode@@EBEABVRegMask@@XZ 08027380 f   ad_i486_misc.obj
 0001:00026380       ?out_RegMask@testI_reg_immNode@@EBEABVRegMask@@XZ 08027380 f   ad_i486_misc.obj
 0001:00026380       ?out_RegMask@cmpL_zero_flags_LTGENode@@EBEABVRegMask@@XZ 08027380 f   ad_i486_misc.obj
 0001:00026380       ?out_RegMask@compU_eReg_memNode@@EBEABVRegMask@@XZ 08027380 f   ad_i486_misc.obj
 0001:00026380       ?out_RegMask@cmpL_zero_flags_EQNENode@@EBEABVRegMask@@XZ 08027380 f   ad_i486_misc.obj
 0001:00026380       ?out_RegMask@compI_eRegNode@@EBEABVRegMask@@XZ 08027380 f   ad_i486_misc.obj
 0001:00026380       ?out_RegMask@compP_eReg_memNode@@EBEABVRegMask@@XZ 08027380 f   ad_i486_misc.obj
 0001:00026380       ?out_RegMask@testI_regNode@@EBEABVRegMask@@XZ 08027380 f   ad_i486_misc.obj
 0001:00026380       ?out_RegMask@storeLConditional_flagsNode@@EBEABVRegMask@@XZ 08027380 f   ad_i486_misc.obj
 0001:00026380       ?out_RegMask@partialSubtypeCheck_vs_ZeroNode@@EBEABVRegMask@@XZ 08027380 f   ad_i486_misc.obj
 0001:00026380       ?out_RegMask@compP_eReg_immNode@@EBEABVRegMask@@XZ 08027380 f   ad_i486_misc.obj
 0001:00026380       ?out_RegMask@cmpD_ccNode@@EBEABVRegMask@@XZ 08027380 f   ad_i486_misc.obj
 0001:00026380       ?out_RegMask@cmpFastLockNode@@EBEABVRegMask@@XZ 08027380 f   ad_i486_misc.obj
 0001:00026380       ?out_RegMask@testP_Reg_memNode@@EBEABVRegMask@@XZ 08027380 f   ad_i486_misc.obj
 0001:00026380       ?out_RegMask@cmpFastUnlockNode@@EBEABVRegMask@@XZ 08027380 f   ad_i486_misc.obj
 0001:00026380       ?out_RegMask@cmpF_cc_P6Node@@EBEABVRegMask@@XZ 08027380 f   ad_i486_misc.obj
 0001:00026380       ?out_RegMask@cmpD_cc_P6Node@@EBEABVRegMask@@XZ 08027380 f   ad_i486_misc.obj
 0001:00026380       ?out_RegMask@storePConditionalNode@@EBEABVRegMask@@XZ 08027380 f   ad_i486_misc.obj
 0001:00026380       ?out_RegMask@testU_regNode@@EBEABVRegMask@@XZ 08027380 f   ad_i486_misc.obj
 0001:00026380       ?out_RegMask@cmpX_ccNode@@EBEABVRegMask@@XZ 08027380 f   ad_i486_misc.obj
 0001:00026380       ?out_RegMask@cmpX_ccmemNode@@EBEABVRegMask@@XZ 08027380 f   ad_i486_misc.obj
 0001:00026380       ?out_RegMask@compP_eRegNode@@EBEABVRegMask@@XZ 08027380 f   ad_i486_misc.obj
 0001:00026380       ?out_RegMask@cmpF_ccNode@@EBEABVRegMask@@XZ 08027380 f   ad_i486_misc.obj
 0001:00026380       ?out_RegMask@cmpL_reg_flags_LTGENode@@EBEABVRegMask@@XZ 08027380 f   ad_i486_misc.obj
 0001:00026390       ?out_RegMask@mulI_imm_highNode@@EBEABVRegMask@@XZ 08027390 f   ad_i486_misc.obj
 0001:00026390       ?out_RegMask@modI_eRegNode@@EBEABVRegMask@@XZ 08027390 f   ad_i486_misc.obj
 0001:00026390       ?out_RegMask@mulI_imm_RShift_highNode@@EBEABVRegMask@@XZ 08027390 f   ad_i486_misc.obj
 0001:000263a0       ?out_RegMask@string_compareNode@@EBEABVRegMask@@XZ 080273a0 f   ad_i486_misc.obj
 0001:000263a0       ?out_RegMask@cmpLTMaskNode@@EBEABVRegMask@@XZ 080273a0 f   ad_i486_misc.obj
 0001:000263b0       ?out_RegMask@cadd_cmpLTMask1Node@@EBEABVRegMask@@XZ 080273b0 f   ad_i486_misc.obj
 0001:000263b0       ?out_RegMask@cadd_cmpLTMask2Node@@EBEABVRegMask@@XZ 080273b0 f   ad_i486_misc.obj
 0001:000263c0       ?out_RegMask@partialSubtypeCheckNode@@EBEABVRegMask@@XZ 080273c0 f   ad_i486_misc.obj
 0001:000263d0       ?out_RegMask@cmpL3_reg_regNode@@EBEABVRegMask@@XZ 080273d0 f   ad_i486_misc.obj
 0001:000263e0       ?peephole@loadINode@@EAEPAVMachNode@@PAVBlock@@HPAVPhaseRegAlloc@@AAH@Z 080273e0 f   ad_i486_peephole.obj
 0001:00026670       ?peephole@incI_eRegNode@@EAEPAVMachNode@@PAVBlock@@HPAVPhaseRegAlloc@@AAH@Z 08027670 f   ad_i486_peephole.obj
 0001:00026670       ?peephole@decI_eRegNode@@EAEPAVMachNode@@PAVBlock@@HPAVPhaseRegAlloc@@AAH@Z 08027670 f   ad_i486_peephole.obj
 0001:00026670       ?peephole@addI_eReg_immNode@@EAEPAVMachNode@@PAVBlock@@HPAVPhaseRegAlloc@@AAH@Z 08027670 f   ad_i486_peephole.obj
 0001:00026800       ?peephole@addP_eReg_immNode@@EAEPAVMachNode@@PAVBlock@@HPAVPhaseRegAlloc@@AAH@Z 08027800 f   ad_i486_peephole.obj
 0001:000269a0       ?functional_unit_latency@Pipeline@@QBEIIPBV1@@Z 080279a0 f   ad_i486_pipeline.obj
 0001:00026a30       ?full_latency@Pipeline_Use@@QBEIIABV1@@Z 08027a30 f   ad_i486_pipeline.obj
 0001:00026b30       ?add_usage@Pipeline_Use@@QAEXABV1@@Z 08027b30 f   ad_i486_pipeline.obj
 0001:00026c10       ?operand_latency@Pipeline@@QBEIIPBV1@@Z 08027c10 f   ad_i486_pipeline.obj
 0001:000298d0       ?latency@Node@@QAEII@Z     0802a8d0 f   ad_i486_pipeline.obj
 0001:000299f0       ?initialize_nops@Bundle@@SAXQAPAVMachNode@@@Z 0802a9f0 f   ad_i486_pipeline.obj
 0001:00029a50       ?pipeline@Node@@UBEPBVPipeline@@XZ 0802aa50 f   ad_i486_pipeline.obj
 0001:00029a60       ?pipeline_class@MachNode@@SAPBVPipeline@@XZ 0802aa60 f   ad_i486_pipeline.obj
 0001:00029a70       ?pipeline@MachNopNode@@UBEPBVPipeline@@XZ 0802aa70 f   ad_i486_pipeline.obj
 0001:00029a80       ?pipeline@box_handleNode@@UBEPBVPipeline@@XZ 0802aa80 f   ad_i486_pipeline.obj
 0001:00029a90       ?pipeline@loadBNode@@UBEPBVPipeline@@XZ 0802aa90 f   ad_i486_pipeline.obj
 0001:00029aa0       ?pipeline@loadUBNode@@UBEPBVPipeline@@XZ 0802aaa0 f   ad_i486_pipeline.obj
 0001:00029ab0       ?pipeline@loadCNode@@UBEPBVPipeline@@XZ 0802aab0 f   ad_i486_pipeline.obj
 0001:00029ac0       ?pipeline@loadINode@@UBEPBVPipeline@@XZ 0802aac0 f   ad_i486_pipeline.obj
 0001:00029ad0       ?pipeline@loadLNode@@UBEPBVPipeline@@XZ 0802aad0 f   ad_i486_pipeline.obj
 0001:00029ae0       ?pipeline@loadL_volatileNode@@UBEPBVPipeline@@XZ 0802aae0 f   ad_i486_pipeline.obj
 0001:00029af0       ?pipeline@loadRangeNode@@UBEPBVPipeline@@XZ 0802aaf0 f   ad_i486_pipeline.obj
 0001:00029b00       ?pipeline@loadPNode@@UBEPBVPipeline@@XZ 0802ab00 f   ad_i486_pipeline.obj
 0001:00029b10       ?pipeline@loadKlassNode@@UBEPBVPipeline@@XZ 0802ab10 f   ad_i486_pipeline.obj
 0001:00029b20       ?pipeline@loadSNode@@UBEPBVPipeline@@XZ 0802ab20 f   ad_i486_pipeline.obj
 0001:00029b30       ?pipeline@loadDNode@@UBEPBVPipeline@@XZ 0802ab30 f   ad_i486_pipeline.obj
 0001:00029b40       ?pipeline@loadXDNode@@UBEPBVPipeline@@XZ 0802ab40 f   ad_i486_pipeline.obj
 0001:00029b50       ?pipeline@loadXNode@@UBEPBVPipeline@@XZ 0802ab50 f   ad_i486_pipeline.obj
 0001:00029b60       ?pipeline@loadFNode@@UBEPBVPipeline@@XZ 0802ab60 f   ad_i486_pipeline.obj
 0001:00029b70       ?pipeline@leaP8Node@@UBEPBVPipeline@@XZ 0802ab70 f   ad_i486_pipeline.obj
 0001:00029b80       ?pipeline@leaP32Node@@UBEPBVPipeline@@XZ 0802ab80 f   ad_i486_pipeline.obj
 0001:00029b90       ?pipeline@leaPIdxOffNode@@UBEPBVPipeline@@XZ 0802ab90 f   ad_i486_pipeline.obj
 0001:00029ba0       ?pipeline@leaPIdxScaleNode@@UBEPBVPipeline@@XZ 0802aba0 f   ad_i486_pipeline.obj
 0001:00029bb0       ?pipeline@leaPIdxScaleOffNode@@UBEPBVPipeline@@XZ 0802abb0 f   ad_i486_pipeline.obj
 0001:00029bc0       ?pipeline@loadConINode@@UBEPBVPipeline@@XZ 0802abc0 f   ad_i486_pipeline.obj
 0001:00029bd0       ?pipeline@loadConI0Node@@UBEPBVPipeline@@XZ 0802abd0 f   ad_i486_pipeline.obj
 0001:00029be0       ?pipeline@loadConPNode@@UBEPBVPipeline@@XZ 0802abe0 f   ad_i486_pipeline.obj
 0001:00029bf0       ?pipeline@loadConLNode@@UBEPBVPipeline@@XZ 0802abf0 f   ad_i486_pipeline.obj
 0001:00029c00       ?pipeline@loadConL0Node@@UBEPBVPipeline@@XZ 0802ac00 f   ad_i486_pipeline.obj
 0001:00029c10       ?pipeline@loadConPcNode@@UBEPBVPipeline@@XZ 0802ac10 f   ad_i486_pipeline.obj
 0001:00029c20       ?pipeline@loadConFNode@@UBEPBVPipeline@@XZ 0802ac20 f   ad_i486_pipeline.obj
 0001:00029c30       ?pipeline@loadConXNode@@UBEPBVPipeline@@XZ 0802ac30 f   ad_i486_pipeline.obj
 0001:00029c40       ?pipeline@loadConX0Node@@UBEPBVPipeline@@XZ 0802ac40 f   ad_i486_pipeline.obj
 0001:00029c50       ?pipeline@loadConDNode@@UBEPBVPipeline@@XZ 0802ac50 f   ad_i486_pipeline.obj
 0001:00029c60       ?pipeline@loadConXDNode@@UBEPBVPipeline@@XZ 0802ac60 f   ad_i486_pipeline.obj
 0001:00029c70       ?pipeline@loadConXD0Node@@UBEPBVPipeline@@XZ 0802ac70 f   ad_i486_pipeline.obj
 0001:00029c80       ?pipeline@loadSSINode@@UBEPBVPipeline@@XZ 0802ac80 f   ad_i486_pipeline.obj
 0001:00029c90       ?pipeline@loadSSPNode@@UBEPBVPipeline@@XZ 0802ac90 f   ad_i486_pipeline.obj
 0001:00029ca0       ?pipeline@loadSSFNode@@UBEPBVPipeline@@XZ 0802aca0 f   ad_i486_pipeline.obj
 0001:00029cb0       ?pipeline@loadSSDNode@@UBEPBVPipeline@@XZ 0802acb0 f   ad_i486_pipeline.obj
 0001:00029cc0       ?pipeline@prefetch1Node@@UBEPBVPipeline@@XZ 0802acc0 f   ad_i486_pipeline.obj
 0001:00029cd0       ?pipeline@prefetch0Node@@UBEPBVPipeline@@XZ 0802acd0 f   ad_i486_pipeline.obj
 0001:00029ce0       ?pipeline@storeBNode@@UBEPBVPipeline@@XZ 0802ace0 f   ad_i486_pipeline.obj
 0001:00029cf0       ?pipeline@storeCNode@@UBEPBVPipeline@@XZ 0802acf0 f   ad_i486_pipeline.obj
 0001:00029d00       ?pipeline@storeINode@@UBEPBVPipeline@@XZ 0802ad00 f   ad_i486_pipeline.obj
 0001:00029d10       ?pipeline@storeLNode@@UBEPBVPipeline@@XZ 0802ad10 f   ad_i486_pipeline.obj
 0001:00029d20       ?pipeline@storeL_volatileNode@@UBEPBVPipeline@@XZ 0802ad20 f   ad_i486_pipeline.obj
 0001:00029d30       ?pipeline@storePNode@@UBEPBVPipeline@@XZ 0802ad30 f   ad_i486_pipeline.obj
 0001:00029d40       ?pipeline@storeImmINode@@UBEPBVPipeline@@XZ 0802ad40 f   ad_i486_pipeline.obj
 0001:00029d50       ?pipeline@storeImmI16Node@@UBEPBVPipeline@@XZ 0802ad50 f   ad_i486_pipeline.obj
 0001:00029d60       ?pipeline@storeImmPNode@@UBEPBVPipeline@@XZ 0802ad60 f   ad_i486_pipeline.obj
 0001:00029d70       ?pipeline@storeImmBNode@@UBEPBVPipeline@@XZ 0802ad70 f   ad_i486_pipeline.obj
 0001:00029d80       ?pipeline@storeImmCMNode@@UBEPBVPipeline@@XZ 0802ad80 f   ad_i486_pipeline.obj
 0001:00029d90       ?pipeline@storeDNode@@UBEPBVPipeline@@XZ 0802ad90 f   ad_i486_pipeline.obj
 0001:00029da0       ?pipeline@storeD_roundedNode@@UBEPBVPipeline@@XZ 0802ada0 f   ad_i486_pipeline.obj
 0001:00029db0       ?pipeline@storeXDNode@@UBEPBVPipeline@@XZ 0802adb0 f   ad_i486_pipeline.obj
 0001:00029dc0       ?pipeline@storeXNode@@UBEPBVPipeline@@XZ 0802adc0 f   ad_i486_pipeline.obj
 0001:00029dd0       ?pipeline@storeFNode@@UBEPBVPipeline@@XZ 0802add0 f   ad_i486_pipeline.obj
 0001:00029de0       ?pipeline@storeF_roundedNode@@UBEPBVPipeline@@XZ 0802ade0 f   ad_i486_pipeline.obj
 0001:00029df0       ?pipeline@storeF_DroundedNode@@UBEPBVPipeline@@XZ 0802adf0 f   ad_i486_pipeline.obj
 0001:00029e00       ?pipeline@storeF_immNode@@UBEPBVPipeline@@XZ 0802ae00 f   ad_i486_pipeline.obj
 0001:00029e10       ?pipeline@storeSSINode@@UBEPBVPipeline@@XZ 0802ae10 f   ad_i486_pipeline.obj
 0001:00029e20       ?pipeline@storeSSPNode@@UBEPBVPipeline@@XZ 0802ae20 f   ad_i486_pipeline.obj
 0001:00029e30       ?pipeline@storeSSLNode@@UBEPBVPipeline@@XZ 0802ae30 f   ad_i486_pipeline.obj
 0001:00029e40       ?pipeline@membar_acquireNode@@UBEPBVPipeline@@XZ 0802ae40 f   ad_i486_pipeline.obj
 0001:00029e50       ?pipeline@membar_acquire_lockNode@@UBEPBVPipeline@@XZ 0802ae50 f   ad_i486_pipeline.obj
 0001:00029e60       ?pipeline@membar_releaseNode@@UBEPBVPipeline@@XZ 0802ae60 f   ad_i486_pipeline.obj
 0001:00029e70       ?pipeline@membar_release_lockNode@@UBEPBVPipeline@@XZ 0802ae70 f   ad_i486_pipeline.obj
 0001:00029e80       ?pipeline@membar_volatileNode@@UBEPBVPipeline@@XZ 0802ae80 f   ad_i486_pipeline.obj
 0001:00029e90       ?pipeline@membar_cpu_orderNode@@UBEPBVPipeline@@XZ 0802ae90 f   ad_i486_pipeline.obj
 0001:00029ea0       ?pipeline@movINode@@UBEPBVPipeline@@XZ 0802aea0 f   ad_i486_pipeline.obj
 0001:00029eb0       ?pipeline@movPNode@@UBEPBVPipeline@@XZ 0802aeb0 f   ad_i486_pipeline.obj
 0001:00029ec0       ?pipeline@movLNode@@UBEPBVPipeline@@XZ 0802aec0 f   ad_i486_pipeline.obj
 0001:00029ed0       ?pipeline@movDNode@@UBEPBVPipeline@@XZ 0802aed0 f   ad_i486_pipeline.obj
 0001:00029ee0       ?pipeline@movFNode@@UBEPBVPipeline@@XZ 0802aee0 f   ad_i486_pipeline.obj
 0001:00029ef0       ?pipeline@movXNode@@UBEPBVPipeline@@XZ 0802aef0 f   ad_i486_pipeline.obj
 0001:00029f00       ?pipeline@castL2PNode@@UBEPBVPipeline@@XZ 0802af00 f   ad_i486_pipeline.obj
 0001:00029f10       ?pipeline@castP2LNode@@UBEPBVPipeline@@XZ 0802af10 f   ad_i486_pipeline.obj
 0001:00029f20       ?pipeline@castP2INode@@UBEPBVPipeline@@XZ 0802af20 f   ad_i486_pipeline.obj
 0001:00029f30       ?pipeline@cmovI_regNode@@UBEPBVPipeline@@XZ 0802af30 f   ad_i486_pipeline.obj
 0001:00029f40       ?pipeline@cmovI_regUNode@@UBEPBVPipeline@@XZ 0802af40 f   ad_i486_pipeline.obj
 0001:00029f50       ?pipeline@cmovI_memNode@@UBEPBVPipeline@@XZ 0802af50 f   ad_i486_pipeline.obj
 0001:00029f60       ?pipeline@cmovI_memuNode@@UBEPBVPipeline@@XZ 0802af60 f   ad_i486_pipeline.obj
 0001:00029f70       ?pipeline@cmovP_regNode@@UBEPBVPipeline@@XZ 0802af70 f   ad_i486_pipeline.obj
 0001:00029f80       ?pipeline@cmovP_reg_nonP6Node@@UBEPBVPipeline@@XZ 0802af80 f   ad_i486_pipeline.obj
 0001:00029f90       ?pipeline@cmovP_regUNode@@UBEPBVPipeline@@XZ 0802af90 f   ad_i486_pipeline.obj
 0001:00029fa0       ?pipeline@fcmovD_regUNode@@UBEPBVPipeline@@XZ 0802afa0 f   ad_i486_pipeline.obj
 0001:00029fb0       ?pipeline@fcmovF_regUNode@@UBEPBVPipeline@@XZ 0802afb0 f   ad_i486_pipeline.obj
 0001:00029fc0       ?pipeline@fcmovD_regSNode@@UBEPBVPipeline@@XZ 0802afc0 f   ad_i486_pipeline.obj
 0001:00029fd0       ?pipeline@fcmovF_regSNode@@UBEPBVPipeline@@XZ 0802afd0 f   ad_i486_pipeline.obj
 0001:00029fe0       ?pipeline@fcmovX_regSNode@@UBEPBVPipeline@@XZ 0802afe0 f   ad_i486_pipeline.obj
 0001:00029ff0       ?pipeline@fcmovXD_regSNode@@UBEPBVPipeline@@XZ 0802aff0 f   ad_i486_pipeline.obj
 0001:0002a000       ?pipeline@fcmovX_regUNode@@UBEPBVPipeline@@XZ 0802b000 f   ad_i486_pipeline.obj
 0001:0002a010       ?pipeline@fcmovXD_regUNode@@UBEPBVPipeline@@XZ 0802b010 f   ad_i486_pipeline.obj
 0001:0002a020       ?pipeline@cmovL_regNode@@UBEPBVPipeline@@XZ 0802b020 f   ad_i486_pipeline.obj
 0001:0002a030       ?pipeline@cmovL_regUNode@@UBEPBVPipeline@@XZ 0802b030 f   ad_i486_pipeline.obj
 0001:0002a040       ?pipeline@addI_eRegNode@@UBEPBVPipeline@@XZ 0802b040 f   ad_i486_pipeline.obj
 0001:0002a050       ?pipeline@addI_eReg_immNode@@UBEPBVPipeline@@XZ 0802b050 f   ad_i486_pipeline.obj
 0001:0002a060       ?pipeline@incI_eRegNode@@UBEPBVPipeline@@XZ 0802b060 f   ad_i486_pipeline.obj
 0001:0002a070       ?pipeline@leaI_eReg_immINode@@UBEPBVPipeline@@XZ 0802b070 f   ad_i486_pipeline.obj
 0001:0002a080       ?pipeline@leaP_eReg_immINode@@UBEPBVPipeline@@XZ 0802b080 f   ad_i486_pipeline.obj
 0001:0002a090       ?pipeline@decI_eRegNode@@UBEPBVPipeline@@XZ 0802b090 f   ad_i486_pipeline.obj
 0001:0002a0a0       ?pipeline@addP_eRegNode@@UBEPBVPipeline@@XZ 0802b0a0 f   ad_i486_pipeline.obj
 0001:0002a0b0       ?pipeline@addP_eReg_immNode@@UBEPBVPipeline@@XZ 0802b0b0 f   ad_i486_pipeline.obj
 0001:0002a0c0       ?pipeline@addI_eReg_memNode@@UBEPBVPipeline@@XZ 0802b0c0 f   ad_i486_pipeline.obj
 0001:0002a0d0       ?pipeline@addI_mem_eRegNode@@UBEPBVPipeline@@XZ 0802b0d0 f   ad_i486_pipeline.obj
 0001:0002a0e0       ?pipeline@addI_mem_immNode@@UBEPBVPipeline@@XZ 0802b0e0 f   ad_i486_pipeline.obj
 0001:0002a0f0       ?pipeline@incI_memNode@@UBEPBVPipeline@@XZ 0802b0f0 f   ad_i486_pipeline.obj
 0001:0002a100       ?pipeline@decI_memNode@@UBEPBVPipeline@@XZ 0802b100 f   ad_i486_pipeline.obj
 0001:0002a110       ?pipeline@checkCastPPNode@@UBEPBVPipeline@@XZ 0802b110 f   ad_i486_pipeline.obj
 0001:0002a120       ?pipeline@castPPNode@@UBEPBVPipeline@@XZ 0802b120 f   ad_i486_pipeline.obj
 0001:0002a130       ?pipeline@loadPLockedNode@@UBEPBVPipeline@@XZ 0802b130 f   ad_i486_pipeline.obj
 0001:0002a140       ?pipeline@loadLLockedNode@@UBEPBVPipeline@@XZ 0802b140 f   ad_i486_pipeline.obj
 0001:0002a150       ?pipeline@storePConditionalNode@@UBEPBVPipeline@@XZ 0802b150 f   ad_i486_pipeline.obj
 0001:0002a160       ?pipeline@storeLConditionalNode@@UBEPBVPipeline@@XZ 0802b160 f   ad_i486_pipeline.obj
 0001:0002a170       ?pipeline@storeLConditional_flagsNode@@UBEPBVPipeline@@XZ 0802b170 f   ad_i486_pipeline.obj
 0001:0002a180       ?pipeline@subI_eRegNode@@UBEPBVPipeline@@XZ 0802b180 f   ad_i486_pipeline.obj
 0001:0002a190       ?pipeline@subI_eReg_immNode@@UBEPBVPipeline@@XZ 0802b190 f   ad_i486_pipeline.obj
 0001:0002a1a0       ?pipeline@subI_eReg_memNode@@UBEPBVPipeline@@XZ 0802b1a0 f   ad_i486_pipeline.obj
 0001:0002a1b0       ?pipeline@subI_mem_eRegNode@@UBEPBVPipeline@@XZ 0802b1b0 f   ad_i486_pipeline.obj
 0001:0002a1c0       ?pipeline@subP_eRegNode@@UBEPBVPipeline@@XZ 0802b1c0 f   ad_i486_pipeline.obj
 0001:0002a1d0       ?pipeline@negI_eRegNode@@UBEPBVPipeline@@XZ 0802b1d0 f   ad_i486_pipeline.obj
 0001:0002a1e0       ?pipeline@mulI_eRegNode@@UBEPBVPipeline@@XZ 0802b1e0 f   ad_i486_pipeline.obj
 0001:0002a1f0       ?pipeline@mulI_eReg_immNode@@UBEPBVPipeline@@XZ 0802b1f0 f   ad_i486_pipeline.obj
 0001:0002a200       ?pipeline@loadConL_low_onlyNode@@UBEPBVPipeline@@XZ 0802b200 f   ad_i486_pipeline.obj
 0001:0002a210       ?pipeline@mulI_imm_highNode@@UBEPBVPipeline@@XZ 0802b210 f   ad_i486_pipeline.obj
 0001:0002a220       ?pipeline@mulI_imm_RShift_highNode@@UBEPBVPipeline@@XZ 0802b220 f   ad_i486_pipeline.obj
 0001:0002a230       ?pipeline@mulI_mem_immNode@@UBEPBVPipeline@@XZ 0802b230 f   ad_i486_pipeline.obj
 0001:0002a240       ?pipeline@mulINode@@UBEPBVPipeline@@XZ 0802b240 f   ad_i486_pipeline.obj
 0001:0002a250       ?pipeline@mulL_eRegNode@@UBEPBVPipeline@@XZ 0802b250 f   ad_i486_pipeline.obj
 0001:0002a260       ?pipeline@mulL_eReg_conNode@@UBEPBVPipeline@@XZ 0802b260 f   ad_i486_pipeline.obj
 0001:0002a270       ?pipeline@divI_eRegNode@@UBEPBVPipeline@@XZ 0802b270 f   ad_i486_pipeline.obj
 0001:0002a280       ?pipeline@divL_eRegNode@@UBEPBVPipeline@@XZ 0802b280 f   ad_i486_pipeline.obj
 0001:0002a290       ?pipeline@modI_eRegNode@@UBEPBVPipeline@@XZ 0802b290 f   ad_i486_pipeline.obj
 0001:0002a2a0       ?pipeline@modL_eRegNode@@UBEPBVPipeline@@XZ 0802b2a0 f   ad_i486_pipeline.obj
 0001:0002a2b0       ?pipeline@shlI_eReg_1Node@@UBEPBVPipeline@@XZ 0802b2b0 f   ad_i486_pipeline.obj
 0001:0002a2c0       ?pipeline@salI_eReg_immNode@@UBEPBVPipeline@@XZ 0802b2c0 f   ad_i486_pipeline.obj
 0001:0002a2d0       ?pipeline@salI_eReg_CLNode@@UBEPBVPipeline@@XZ 0802b2d0 f   ad_i486_pipeline.obj
 0001:0002a2e0       ?pipeline@sarI_eReg_1Node@@UBEPBVPipeline@@XZ 0802b2e0 f   ad_i486_pipeline.obj
 0001:0002a2f0       ?pipeline@sarI_mem_1Node@@UBEPBVPipeline@@XZ 0802b2f0 f   ad_i486_pipeline.obj
 0001:0002a300       ?pipeline@sarI_eReg_immNode@@UBEPBVPipeline@@XZ 0802b300 f   ad_i486_pipeline.obj
 0001:0002a310       ?pipeline@sarI_mem_immNode@@UBEPBVPipeline@@XZ 0802b310 f   ad_i486_pipeline.obj
 0001:0002a320       ?pipeline@sarI_eReg_CLNode@@UBEPBVPipeline@@XZ 0802b320 f   ad_i486_pipeline.obj
 0001:0002a330       ?pipeline@shrI_eReg_1Node@@UBEPBVPipeline@@XZ 0802b330 f   ad_i486_pipeline.obj
 0001:0002a340       ?pipeline@shrI_eReg_immNode@@UBEPBVPipeline@@XZ 0802b340 f   ad_i486_pipeline.obj
 0001:0002a350       ?pipeline@i2bNode@@UBEPBVPipeline@@XZ 0802b350 f   ad_i486_pipeline.obj
 0001:0002a360       ?pipeline@i2sNode@@UBEPBVPipeline@@XZ 0802b360 f   ad_i486_pipeline.obj
 0001:0002a370       ?pipeline@shrI_eReg_CLNode@@UBEPBVPipeline@@XZ 0802b370 f   ad_i486_pipeline.obj
 0001:0002a380       ?pipeline@andI_eRegNode@@UBEPBVPipeline@@XZ 0802b380 f   ad_i486_pipeline.obj
 0001:0002a390       ?pipeline@andI_eReg_immNode@@UBEPBVPipeline@@XZ 0802b390 f   ad_i486_pipeline.obj
 0001:0002a3a0       ?pipeline@andI_eReg_memNode@@UBEPBVPipeline@@XZ 0802b3a0 f   ad_i486_pipeline.obj
 0001:0002a3b0       ?pipeline@andI_mem_eRegNode@@UBEPBVPipeline@@XZ 0802b3b0 f   ad_i486_pipeline.obj
 0001:0002a3c0       ?pipeline@andI_mem_immNode@@UBEPBVPipeline@@XZ 0802b3c0 f   ad_i486_pipeline.obj
 0001:0002a3d0       ?pipeline@orI_eRegNode@@UBEPBVPipeline@@XZ 0802b3d0 f   ad_i486_pipeline.obj
 0001:0002a3e0       ?pipeline@orI_eReg_immNode@@UBEPBVPipeline@@XZ 0802b3e0 f   ad_i486_pipeline.obj
 0001:0002a3f0       ?pipeline@orI_eReg_memNode@@UBEPBVPipeline@@XZ 0802b3f0 f   ad_i486_pipeline.obj
 0001:0002a400       ?pipeline@orI_mem_eRegNode@@UBEPBVPipeline@@XZ 0802b400 f   ad_i486_pipeline.obj
 0001:0002a410       ?pipeline@orI_mem_immNode@@UBEPBVPipeline@@XZ 0802b410 f   ad_i486_pipeline.obj
 0001:0002a420       ?pipeline@xorI_eRegNode@@UBEPBVPipeline@@XZ 0802b420 f   ad_i486_pipeline.obj
 0001:0002a430       ?pipeline@xorI_eReg_immNode@@UBEPBVPipeline@@XZ 0802b430 f   ad_i486_pipeline.obj
 0001:0002a440       ?pipeline@xorI_eReg_memNode@@UBEPBVPipeline@@XZ 0802b440 f   ad_i486_pipeline.obj
 0001:0002a450       ?pipeline@xorI_mem_eRegNode@@UBEPBVPipeline@@XZ 0802b450 f   ad_i486_pipeline.obj
 0001:0002a460       ?pipeline@xorI_mem_immNode@@UBEPBVPipeline@@XZ 0802b460 f   ad_i486_pipeline.obj
 0001:0002a470       ?pipeline@movI_nocopyNode@@UBEPBVPipeline@@XZ 0802b470 f   ad_i486_pipeline.obj
 0001:0002a480       ?pipeline@ci2bNode@@UBEPBVPipeline@@XZ 0802b480 f   ad_i486_pipeline.obj
 0001:0002a490       ?pipeline@movP_nocopyNode@@UBEPBVPipeline@@XZ 0802b490 f   ad_i486_pipeline.obj
 0001:0002a4a0       ?pipeline@cp2bNode@@UBEPBVPipeline@@XZ 0802b4a0 f   ad_i486_pipeline.obj
 0001:0002a4b0       ?pipeline@cmpLTMaskNode@@UBEPBVPipeline@@XZ 0802b4b0 f   ad_i486_pipeline.obj
 0001:0002a4c0       ?pipeline@cmpLTMask0Node@@UBEPBVPipeline@@XZ 0802b4c0 f   ad_i486_pipeline.obj
 0001:0002a4d0       ?pipeline@cadd_cmpLTMask1Node@@UBEPBVPipeline@@XZ 0802b4d0 f   ad_i486_pipeline.obj
 0001:0002a4e0       ?pipeline@cadd_cmpLTMask2Node@@UBEPBVPipeline@@XZ 0802b4e0 f   ad_i486_pipeline.obj
 0001:0002a4f0       ?pipeline@addL_eRegNode@@UBEPBVPipeline@@XZ 0802b4f0 f   ad_i486_pipeline.obj
 0001:0002a500       ?pipeline@addL_eReg_immNode@@UBEPBVPipeline@@XZ 0802b500 f   ad_i486_pipeline.obj
 0001:0002a510       ?pipeline@addL_eReg_memNode@@UBEPBVPipeline@@XZ 0802b510 f   ad_i486_pipeline.obj
 0001:0002a520       ?pipeline@subL_eRegNode@@UBEPBVPipeline@@XZ 0802b520 f   ad_i486_pipeline.obj
 0001:0002a530       ?pipeline@subL_eReg_immNode@@UBEPBVPipeline@@XZ 0802b530 f   ad_i486_pipeline.obj
 0001:0002a540       ?pipeline@subL_eReg_memNode@@UBEPBVPipeline@@XZ 0802b540 f   ad_i486_pipeline.obj
 0001:0002a550       ?pipeline@negL_eRegNode@@UBEPBVPipeline@@XZ 0802b550 f   ad_i486_pipeline.obj
 0001:0002a560       ?pipeline@andL_eRegNode@@UBEPBVPipeline@@XZ 0802b560 f   ad_i486_pipeline.obj
 0001:0002a570       ?pipeline@andL_eReg_immNode@@UBEPBVPipeline@@XZ 0802b570 f   ad_i486_pipeline.obj
 0001:0002a580       ?pipeline@andL_eReg_memNode@@UBEPBVPipeline@@XZ 0802b580 f   ad_i486_pipeline.obj
 0001:0002a590       ?pipeline@orl_eRegNode@@UBEPBVPipeline@@XZ 0802b590 f   ad_i486_pipeline.obj
 0001:0002a5a0       ?pipeline@orl_eReg_immNode@@UBEPBVPipeline@@XZ 0802b5a0 f   ad_i486_pipeline.obj
 0001:0002a5b0       ?pipeline@orl_eReg_memNode@@UBEPBVPipeline@@XZ 0802b5b0 f   ad_i486_pipeline.obj
 0001:0002a5c0       ?pipeline@xorl_eRegNode@@UBEPBVPipeline@@XZ 0802b5c0 f   ad_i486_pipeline.obj
 0001:0002a5d0       ?pipeline@xorl_eReg_immNode@@UBEPBVPipeline@@XZ 0802b5d0 f   ad_i486_pipeline.obj
 0001:0002a5e0       ?pipeline@xorl_eReg_memNode@@UBEPBVPipeline@@XZ 0802b5e0 f   ad_i486_pipeline.obj
 0001:0002a5f0       ?pipeline@shlL_eReg_1_31Node@@UBEPBVPipeline@@XZ 0802b5f0 f   ad_i486_pipeline.obj
 0001:0002a600       ?pipeline@shlL_eReg_32_63Node@@UBEPBVPipeline@@XZ 0802b600 f   ad_i486_pipeline.obj
 0001:0002a610       ?pipeline@salL_eReg_CLNode@@UBEPBVPipeline@@XZ 0802b610 f   ad_i486_pipeline.obj
 0001:0002a620       ?pipeline@shrL_eReg_1_31Node@@UBEPBVPipeline@@XZ 0802b620 f   ad_i486_pipeline.obj
 0001:0002a630       ?pipeline@shrL_eReg_32_63Node@@UBEPBVPipeline@@XZ 0802b630 f   ad_i486_pipeline.obj
 0001:0002a640       ?pipeline@shrL_eReg_CLNode@@UBEPBVPipeline@@XZ 0802b640 f   ad_i486_pipeline.obj
 0001:0002a650       ?pipeline@sarL_eReg_1_31Node@@UBEPBVPipeline@@XZ 0802b650 f   ad_i486_pipeline.obj
 0001:0002a660       ?pipeline@sarL_eReg_32_63Node@@UBEPBVPipeline@@XZ 0802b660 f   ad_i486_pipeline.obj
 0001:0002a670       ?pipeline@sarL_eReg_CLNode@@UBEPBVPipeline@@XZ 0802b670 f   ad_i486_pipeline.obj
 0001:0002a680       ?pipeline@cmpD_cc_P6Node@@UBEPBVPipeline@@XZ 0802b680 f   ad_i486_pipeline.obj
 0001:0002a690       ?pipeline@cmpD_ccNode@@UBEPBVPipeline@@XZ 0802b690 f   ad_i486_pipeline.obj
 0001:0002a6a0       ?pipeline@cmpD_0Node@@UBEPBVPipeline@@XZ 0802b6a0 f   ad_i486_pipeline.obj
 0001:0002a6b0       ?pipeline@cmpD_regNode@@UBEPBVPipeline@@XZ 0802b6b0 f   ad_i486_pipeline.obj
 0001:0002a6c0       ?pipeline@cmpXD_ccNode@@UBEPBVPipeline@@XZ 0802b6c0 f   ad_i486_pipeline.obj
 0001:0002a6d0       ?pipeline@cmpXD_ccmemNode@@UBEPBVPipeline@@XZ 0802b6d0 f   ad_i486_pipeline.obj
 0001:0002a6e0       ?pipeline@cmpXD_regNode@@UBEPBVPipeline@@XZ 0802b6e0 f   ad_i486_pipeline.obj
 0001:0002a6f0       ?pipeline@cmpXD_regmemNode@@UBEPBVPipeline@@XZ 0802b6f0 f   ad_i486_pipeline.obj
 0001:0002a700       ?pipeline@subD_regNode@@UBEPBVPipeline@@XZ 0802b700 f   ad_i486_pipeline.obj
 0001:0002a710       ?pipeline@subD_reg_roundNode@@UBEPBVPipeline@@XZ 0802b710 f   ad_i486_pipeline.obj
 0001:0002a720       ?pipeline@subD_reg_memNode@@UBEPBVPipeline@@XZ 0802b720 f   ad_i486_pipeline.obj
 0001:0002a730       ?pipeline@absD_regNode@@UBEPBVPipeline@@XZ 0802b730 f   ad_i486_pipeline.obj
 0001:0002a740       ?pipeline@absXD_regNode@@UBEPBVPipeline@@XZ 0802b740 f   ad_i486_pipeline.obj
 0001:0002a750       ?pipeline@negD_regNode@@UBEPBVPipeline@@XZ 0802b750 f   ad_i486_pipeline.obj
 0001:0002a760       ?pipeline@negXD_regNode@@UBEPBVPipeline@@XZ 0802b760 f   ad_i486_pipeline.obj
 0001:0002a770       ?pipeline@addD_regNode@@UBEPBVPipeline@@XZ 0802b770 f   ad_i486_pipeline.obj
 0001:0002a780       ?pipeline@addD_reg_roundNode@@UBEPBVPipeline@@XZ 0802b780 f   ad_i486_pipeline.obj
 0001:0002a790       ?pipeline@addD_reg_memNode@@UBEPBVPipeline@@XZ 0802b790 f   ad_i486_pipeline.obj
 0001:0002a7a0       ?pipeline@addD_mem_regNode@@UBEPBVPipeline@@XZ 0802b7a0 f   ad_i486_pipeline.obj
 0001:0002a7b0       ?pipeline@addD_reg_imm1Node@@UBEPBVPipeline@@XZ 0802b7b0 f   ad_i486_pipeline.obj
 0001:0002a7c0       ?pipeline@addD_reg_immNode@@UBEPBVPipeline@@XZ 0802b7c0 f   ad_i486_pipeline.obj
 0001:0002a7d0       ?pipeline@addD_reg_imm_roundNode@@UBEPBVPipeline@@XZ 0802b7d0 f   ad_i486_pipeline.obj
 0001:0002a7e0       ?pipeline@addXD_regNode@@UBEPBVPipeline@@XZ 0802b7e0 f   ad_i486_pipeline.obj
 0001:0002a7f0       ?pipeline@addXD_immNode@@UBEPBVPipeline@@XZ 0802b7f0 f   ad_i486_pipeline.obj
 0001:0002a800       ?pipeline@addXD_memNode@@UBEPBVPipeline@@XZ 0802b800 f   ad_i486_pipeline.obj
 0001:0002a810       ?pipeline@subXD_regNode@@UBEPBVPipeline@@XZ 0802b810 f   ad_i486_pipeline.obj
 0001:0002a820       ?pipeline@subXD_immNode@@UBEPBVPipeline@@XZ 0802b820 f   ad_i486_pipeline.obj
 0001:0002a830       ?pipeline@subXD_memNode@@UBEPBVPipeline@@XZ 0802b830 f   ad_i486_pipeline.obj
 0001:0002a840       ?pipeline@mulXD_regNode@@UBEPBVPipeline@@XZ 0802b840 f   ad_i486_pipeline.obj
 0001:0002a850       ?pipeline@mulXD_immNode@@UBEPBVPipeline@@XZ 0802b850 f   ad_i486_pipeline.obj
 0001:0002a860       ?pipeline@mulXD_memNode@@UBEPBVPipeline@@XZ 0802b860 f   ad_i486_pipeline.obj
 0001:0002a870       ?pipeline@divXD_regNode@@UBEPBVPipeline@@XZ 0802b870 f   ad_i486_pipeline.obj
 0001:0002a880       ?pipeline@divXD_immNode@@UBEPBVPipeline@@XZ 0802b880 f   ad_i486_pipeline.obj
 0001:0002a890       ?pipeline@divXD_memNode@@UBEPBVPipeline@@XZ 0802b890 f   ad_i486_pipeline.obj
 0001:0002a8a0       ?pipeline@mulD_regNode@@UBEPBVPipeline@@XZ 0802b8a0 f   ad_i486_pipeline.obj
 0001:0002a8b0       ?pipeline@strictfp_mulD_regNode@@UBEPBVPipeline@@XZ 0802b8b0 f   ad_i486_pipeline.obj
 0001:0002a8c0       ?pipeline@mulD_reg_immNode@@UBEPBVPipeline@@XZ 0802b8c0 f   ad_i486_pipeline.obj
 0001:0002a8d0       ?pipeline@mulD_reg_memNode@@UBEPBVPipeline@@XZ 0802b8d0 f   ad_i486_pipeline.obj
 0001:0002a8e0       ?pipeline@mulD_reg_mem_ciscNode@@UBEPBVPipeline@@XZ 0802b8e0 f   ad_i486_pipeline.obj
 0001:0002a8f0       ?pipeline@addD_mulD_regNode@@UBEPBVPipeline@@XZ 0802b8f0 f   ad_i486_pipeline.obj
 0001:0002a900       ?pipeline@subD_mulD_regNode@@UBEPBVPipeline@@XZ 0802b900 f   ad_i486_pipeline.obj
 0001:0002a910       ?pipeline@divD_regNode@@UBEPBVPipeline@@XZ 0802b910 f   ad_i486_pipeline.obj
 0001:0002a920       ?pipeline@strictfp_divD_regNode@@UBEPBVPipeline@@XZ 0802b920 f   ad_i486_pipeline.obj
