 jvm

 Timestamp is 401aaa83 (Fri Jan 30 11:03:31 2004)

 Preferred load address is 08000000

 Start         Length     Name                   Class
 0001:00000000 000e0390H .text                   CODE
 0002:00000000 00000258H .idata$5                DATA
 0002:00000258 0000ac34H .rdata                  DATA
 0002:0000ae8c 00000064H .idata$2                DATA
 0002:0000aef0 00000014H .idata$3                DATA
 0002:0000af04 00000258H .idata$4                DATA
 0002:0000b15c 000008caH .idata$6                DATA
 0002:0000ba30 00007f2bH .edata                  DATA
 0003:00000000 00000004H .CRT$XCA                DATA
 0003:00000004 000001e4H .CRT$XCU                DATA
 0003:000001e8 00000004H .CRT$XCZ                DATA
 0003:000001ec 00000004H .CRT$XIA                DATA
 0003:000001f0 00000004H .CRT$XIZ                DATA
 0003:00000200 0001eb60H .data                   DATA
 0003:0001ed60 0000f644H .bss                    DATA

  Address         Publics by Value              Rva+Base     Lib:Object

 0001:0000000d       ?atomic_set_bits@AccessFlags@@QAEXH@Z 0800100d f   accessFlags.obj
 0001:0000003e       ?atomic_clear_bits@AccessFlags@@QAEXH@Z 0800103e f   accessFlags.obj
 0001:000000a2       ??0AdaptiveSizePolicy@@QAE@IIIIII@Z 080010a2 f   adaptiveSizePolicy.obj
 0001:000002a5       ?minor_collection_begin@AdaptiveSizePolicy@@QAEXXZ 080012a5 f   adaptiveSizePolicy.obj
 0001:000002e0       ?major_collection_begin@AdaptiveSizePolicy@@QAEXXZ 080012e0 f   adaptiveSizePolicy.obj
 0001:0000031b       ?minor_collection_end@AdaptiveSizePolicy@@QAEXXZ 0800131b f   adaptiveSizePolicy.obj
 0001:00000348       ?major_collection_end@AdaptiveSizePolicy@@QAEXI@Z 08001348 f   adaptiveSizePolicy.obj
 0001:0000037e       ?should_full_GC@AdaptiveSizePolicy@@QAEHI@Z 0800137e f   adaptiveSizePolicy.obj
 0001:0000038f       ?compute_generation_free_space@AdaptiveSizePolicy@@QAEXIIIH@Z 0800138f f   adaptiveSizePolicy.obj
 0001:00000907       ?minor_gc_time@AdaptiveSizePolicy@@IBENXZ 08001907 f i adaptiveSizePolicy.obj
 0001:00000934       ?major_gc_time@AdaptiveSizePolicy@@IBENXZ 08001934 f i adaptiveSizePolicy.obj
 0001:00000961       ?live_space@AdaptiveSizePolicy@@IBEIXZ 08001961 f i adaptiveSizePolicy.obj
 0001:00000979       ?compute_survivor_space_size_and_threshold@AdaptiveSizePolicy@@QAEHIIHHI@Z 08001979 f   adaptiveSizePolicy.obj
 0001:00000b26       ??0ageTable@@QAE@H@Z       08001b26 f   ageTable.obj
 0001:00000c7a       ?clear@ageTable@@QAEXXZ    08001c7a f   ageTable.obj
 0001:00000c86       ?merge@ageTable@@QAEXPAV1@@Z 08001c86 f   ageTable.obj
 0001:00000c9f       ?compute_tenuring_threshold@ageTable@@QAEHI@Z 08001c9f f   ageTable.obj
 0001:00000dd2       ?initialize@ResourceMark@@IAEXPAVThread@@@Z 08001dd2 f i ageTable.obj
 0001:00000df4       ?reset_to_mark@ResourceMark@@QAEXXZ 08001df4 f i ageTable.obj
 0001:00000e1e       ??2CHeapObj@@SAPAXI@Z      08001e1e f   allocation.obj
 0001:00000e43       ??3CHeapObj@@SAXPAX@Z      08001e43 f   allocation.obj
 0001:00000e4e       ??2ResourceObj@@SAPAXIW4allocation_type@0@@Z 08001e4e f   allocation.obj
 0001:00000e9e       ?chunkpool_init@@YAXXZ     08001e9e f   allocation.obj
 0001:00000ea3       ?initialize@ChunkPool@@SAXXZ 08001ea3 f i allocation.obj
 0001:00000f20       ??2Chunk@@SAPAXII@Z        08001f20 f   allocation.obj
 0001:00000f86       ?allocate@ChunkPool@@QAEPAXI@Z 08001f86 f i allocation.obj
 0001:00000fd8       ??3Chunk@@SAXPAX@Z         08001fd8 f   allocation.obj
 0001:0000101a       ?free@ChunkPool@@QAEXPAVChunk@@@Z 0800201a f i allocation.obj
 0001:00001045       ??0Chunk@@QAE@I@Z          08002045 f   allocation.obj
 0001:00001054       ?chop@Chunk@@QAEXXZ        08002054 f   allocation.obj
 0001:0000106a       ?next_chop@Chunk@@QAEXXZ   0800206a f   allocation.obj
 0001:00001079       ?start_chunk_pool_cleaner_task@Chunk@@SAXXZ 08002079 f   allocation.obj
 0001:000010a7       ?task@ChunkPoolCleaner@@UAEXXZ 080020a7 f i allocation.obj
 0001:000010cf       ?free_all_but@ChunkPool@@QAEXI@Z 080020cf f i allocation.obj
 0001:00001126       ??0Arena@@QAE@XZ           08002126 f   allocation.obj
 0001:00001163       ??1Arena@@QAE@XZ           08002163 f   allocation.obj
 0001:00001168       ?destruct_contents@Arena@@QAEXXZ 08002168 f   allocation.obj
 0001:00001181       ?grow@Arena@@IAEPAXI@Z     08002181 f   allocation.obj
 0001:000011fa       ?Arealloc@Arena@@QAEPAXPAXII@Z 080021fa f   allocation.obj
 0001:00001274       ?Amalloc@Arena@@QAEPAXI@Z  08002274 f i allocation.obj
 0001:00001299       ?iterate_since_last_gc@AllocationProfiler@@CAXXZ 08002299 f   aprofiler.obj
 0001:000012c2       ?do_object@AllocProfClosure@@UAEXPAVoopDesc@@@Z 080022c2 f i aprofiler.obj
 0001:000012f5       ?engage@AllocationProfiler@@SAXXZ 080022f5 f   aprofiler.obj
 0001:00001300       ?disengage@AllocationProfiler@@SAXXZ 08002300 f   aprofiler.obj
 0001:00001308       ?add_class_to_array@AllocationProfiler@@CAXPAVklassOopDesc@@@Z 08002308 f   aprofiler.obj
 0001:0000132e       ?add_classes_to_array@AllocationProfiler@@CAXPAVklassOopDesc@@@Z 0800232e f   aprofiler.obj
 0001:00001344       ?compare_classes@AllocationProfiler@@CAHPAPAVklassOopDesc@@0@Z 08002344 f   aprofiler.obj
 0001:0000136c       ?average@AllocationProfiler@@CAHIH@Z 0800236c f   aprofiler.obj
 0001:000013a1       ?sort_and_print_array@AllocationProfiler@@CAXI@Z 080023a1 f   aprofiler.obj
 0001:00001478       ?print@AllocationProfiler@@SAXI@Z 08002478 f   aprofiler.obj
 0001:0000150e       ?size_given_klass@oopDesc@@QAEHPAVKlass@@@Z 0800250e f i aprofiler.obj
 0001:00001545       ??0ResourceMark@@QAE@XZ    08002545 f i aprofiler.obj
 0001:000015c3       ??0SysClassPath@@QAE@PBD@Z 080025c3 f   arguments.obj
 0001:000015d9       ??1SysClassPath@@QAE@XZ    080025d9 f   arguments.obj
 0001:00001600       ?expand_endorsed@SysClassPath@@QAEXXZ 08002600 f   arguments.obj
 0001:000016e3       ?combined_path@SysClassPath@@QAEPADXZ 080026e3 f   arguments.obj
 0001:00001791       ?add_to_path@SysClassPath@@CAPADPBD0H@Z 08002791 f   arguments.obj
 0001:000018b8       ?add_jars_to_path@SysClassPath@@CAPADPADPBD@Z 080028b8 f   arguments.obj
 0001:000019f2       ?check_memory_size@@YAH_J0@Z 080029f2 f   arguments.obj
 0001:00001a18       ?parseOnlyLine@Arguments@@CAXPADPAF1PAPAPADPAPAH1123@Z 08002a18 f   arguments.obj
 0001:00001c9d       ?parse_argument@Arguments@@CAHPAD@Z 08002c9d f   arguments.obj
 0001:000020bc       ?build_string@Arguments@@CAXPAPADPAD@Z 080030bc f   arguments.obj
 0001:000021b5       ?build_jvm_args@Arguments@@CAXPAD@Z 080031b5 f   arguments.obj
 0001:000021c6       ?build_jvm_flags@Arguments@@CAXPAD@Z 080031c6 f   arguments.obj
 0001:000021d7       ?process_argument@Arguments@@CAHPADH@Z 080031d7 f   arguments.obj
 0001:00002243       ?process_settings_file@Arguments@@SAHPBDHH@Z 08003243 f   arguments.obj
 0001:000023c4       ?get_property@Arguments@@SAPBDPBD@Z 080033c4 f   arguments.obj
 0001:000023d6       ?add_property@Arguments@@CAHPAD@Z 080033d6 f   arguments.obj
 0001:0000250e       ?set_mode_flags@Arguments@@CAXW4Mode@1@@Z 0800350e f   arguments.obj
 0001:000025bc       ?set_adaptive_size_policy_flags@Arguments@@CAXXZ 080035bc f   arguments.obj
 0001:0000262a       ?set_parnew_gc_flags@Arguments@@CAXXZ 0800362a f   arguments.obj
 0001:00002683       ?set_parallel_gc_threads@Arguments@@CAXXZ 08003683 f   arguments.obj
 0001:000026a8       ?set_cms_and_parnew_gc_flags@Arguments@@CAXXZ 080036a8 f   arguments.obj
 0001:000027d3       ?process_java_compiler_argument@Arguments@@CAXPAD@Z 080037d3 f   arguments.obj
 0001:00002805       ?parse_java_compiler_environment_variable@Arguments@@CAXXZ 08003805 f   arguments.obj
 0001:0000282e       ?methodExists@Arguments@@CAHPAD0HPAPADPAHH12@Z 0800382e f   arguments.obj
 0001:000028e6       ?check_vm_args_consistency@Arguments@@SAHXZ 080038e6 f   arguments.obj
 0001:00002b4f       ?is_bad_option@Arguments@@CAHPAUJavaVMOption@@EPBD@Z 08003b4f f   arguments.obj
 0001:00002b93       ?parse_vm_init_args@Arguments@@CAHPAUJavaVMInitArgs@@@Z 08003b93 f   arguments.obj
 0001:00003d77       ?reset_path@SysClassPath@@QAEXPBD@Z 08004d77 f i arguments.obj
 0001:00003e2e       ?parse_java_options_environment_variable@Arguments@@CAHXZ 08004e2e f   arguments.obj
 0001:00003ef9       ?parse@Arguments@@SAHPAUJavaVMInitArgs@@@Z 08004ef9 f   arguments.obj
 0001:00003fe2       ?library_count@Arguments@@SAHXZ 08004fe2 f   arguments.obj
 0001:00003fef       ?library_name@Arguments@@SAPADH@Z 08004fef f   arguments.obj
 0001:00004001       ?library_options@Arguments@@SAPADH@Z 08005001 f   arguments.obj
 0001:00004013       ?add_init_library@Arguments@@CAXPAD0@Z 08005013 f   arguments.obj
 0001:00004033       ?userPropertyList_count@Arguments@@CAHPAVUserProperty@@@Z 08005033 f   arguments.obj
 0001:00004044       ?userPropertyList_get_property@Arguments@@CAPBDPAVUserProperty@@PBD@Z 08005044 f   arguments.obj
 0001:0000408e       ?userPropertyList_name_at@Arguments@@CAPADPAVUserProperty@@H@Z 0800508e f   arguments.obj
 0001:000040a9       ?userPropertyList_value_at@Arguments@@CAPADPAVUserProperty@@H@Z 080050a9 f   arguments.obj
 0001:000040c5       ?userPropertyList_add@Arguments@@CAXPAPAVUserProperty@@PAD1@Z 080050c5 f   arguments.obj
 0001:0000410b       ?sort@Array@@IAEXIP6AHPBX0@Z@Z 0800510b f   array.obj
 0001:00004129       ?expand@Array@@IAEXIHAAH@Z 08005129 f   array.obj
 0001:00004180       ?remove_at@Array@@IAEXIH@Z 08005180 f   array.obj
 0001:000041ad       ?object_size@arrayKlass@@QBEHH@Z 080051ad f   arrayKlass.obj
 0001:000041c3       ?java_super@arrayKlass@@UBEPAVklassOopDesc@@XZ 080051c3 f   arrayKlass.obj
 0001:000041d1       ?multi_allocate@arrayKlass@@UAEPAVoopDesc@@HPAHHPAVThread@@@Z 080051d1 f   arrayKlass.obj
 0001:000041e5       ?uncached_lookup_method@arrayKlass@@UBEPAVmethodOopDesc@@PAVsymbolOopDesc@@0@Z 080051e5 f   arrayKlass.obj
 0001:000041fc       ?base_create_array_klass@arrayKlass@@SA?AVarrayKlassHandle@@ABVKlass_vtbl@@HVKlassHandle@@PAVThread@@@Z 080051fc f   arrayKlass.obj
 0001:0000430e       ?complete_create_array_klass@arrayKlass@@SAXVarrayKlassHandle@@VKlassHandle@@PAVThread@@@Z 0800530e f   arrayKlass.obj
 0001:0000438a       ?compute_secondary_supers@arrayKlass@@UAEPAVobjArrayOopDesc@@HPAVThread@@@Z 0800538a f   arrayKlass.obj
 0001:00004392       ?compute_is_subtype_of@arrayKlass@@UAEHPAVklassOopDesc@@@Z 08005392 f   arrayKlass.obj
 0001:000043b8       ?vtable@arrayKlass@@UBEPAVklassVtable@@XZ 080053b8 f   arrayKlass.obj
 0001:00004418       ?allocate_arrayArray@arrayKlass@@QAEPAVobjArrayOopDesc@@HHPAVThread@@@Z 08005418 f   arrayKlass.obj
 0001:000044df       ?array_klasses_do@arrayKlass@@UAEXP6AXPAVklassOopDesc@@@Z@Z 080054df f   arrayKlass.obj
 0001:000044f6       ?with_array_klasses_do@arrayKlass@@UAEXP6AXPAVklassOopDesc@@@Z@Z 080054f6 f   arrayKlass.obj
 0001:00004505       ?compute_modifier_flags@arrayKlass@@UBEHPAVThread@@@Z 08005505 f   arrayKlass.obj
 0001:0000450d       ?class_status@arrayKlass@@UBEHXZ 0800550d f   arrayKlass.obj
 0001:00004511       ?Amalloc_4@Arena@@QAEPAXI@Z 08005511 f i arrayKlass.obj
 0001:00004530       ?header_size@arrayOopDesc@@SAHW4BasicType@@@Z 08005530 f i arrayKlass.obj
 0001:00004546       ?header_size@instanceKlass@@SAHXZ 08005546 f i arrayKlass.obj
 0001:0000454a       ?array_allocate@CollectedHeap@@SAPAVoopDesc@@VKlassHandle@@HHPAVThread@@@Z 0800554a f i arrayKlass.obj
 0001:0000459c       ?post_allocation_setup_common@CollectedHeap@@KAXVKlassHandle@@PAVHeapWord@@I@Z 0800559c f i arrayKlass.obj
 0001:000045e7       ?common_mem_allocate_noinit@CollectedHeap@@KAPAVHeapWord@@IHPAVThread@@@Z 080055e7 f i arrayKlass.obj
 0001:00004640       ?allocate_from_tlab@CollectedHeap@@KAPAVHeapWord@@PAVThread@@I@Z 08005640 f i arrayKlass.obj
 0001:00004686       ?init_obj@CollectedHeap@@KAXPAVHeapWord@@I@Z 08005686 f i arrayKlass.obj
 0001:000046a5       ?update_barrier_set@@YAXPAPAVoopDesc@@PAV1@@Z 080056a5 f i arrayKlass.obj
 0001:000046e1       ?write_ref_field@BarrierSet@@QAEXPAPAVoopDesc@@PAV2@@Z 080056e1 f i arrayKlass.obj
 0001:00004710       ?examine_modified_oop@GenCollectedHeap@@QAEXPAPAVoopDesc@@@Z 08005710 f i arrayKlass.obj
 0001:00004752       ??0Handle@@QAE@PAVThread@@PAVoopDesc@@@Z 08005752 f i arrayKlass.obj
 0001:0000477b       ?object_size@objArrayOopDesc@@SAHH@Z 0800577b f i arrayKlass.obj
 0001:0000478e       ?create_klass@arrayKlassKlass@@SAPAVklassOopDesc@@PAVThread@@@Z 0800578e f   arrayKlassKlass.obj
 0001:000047fb       ?alloc_size@methodKlass@@UBE_IXZ 080057fb f i arrayKlassKlass.obj
 0001:000047fb       ?alloc_size@methodDataKlass@@UBE_IXZ 080057fb f i arrayKlassKlass.obj
 0001:000047fb       ?alloc_size@klassKlass@@UBE_IXZ 080057fb f i arrayKlassKlass.obj
 0001:000047fb       ?object_space@PSOldGen@@QBEPAVMutableSpace@@XZ 080057fb f i arrayKlassKlass.obj
 0001:000047fb       ?alloc_size@compiledICHolderKlass@@UBE_IXZ 080057fb f i arrayKlassKlass.obj
 0001:000047fb       ?number_of_dependents@nmethod@@UBEHXZ 080057fb f i arrayKlassKlass.obj
 0001:000047fb       ?alloc_size@symbolKlass@@UBE_IXZ 080057fb f i arrayKlassKlass.obj
 0001:000047ff       ?allocate_permanent@arrayKlassKlass@@UBEPAXAAVKlassHandle@@HPAVThread@@@Z 080057ff f i arrayKlassKlass.obj
 0001:00004826       ?oop_is_parsable@arrayKlassKlass@@UBEHPAVoopDesc@@@Z 08005826 f   arrayKlassKlass.obj
 0001:00004835       ?oop_follow_contents@arrayKlassKlass@@UAEXPAVoopDesc@@@Z 08005835 f   arrayKlassKlass.obj
 0001:000048b5       ?oop_adjust_pointers@arrayKlassKlass@@UAEHPAVoopDesc@@@Z 080058b5 f   arrayKlassKlass.obj
 0001:00004922       ?oop_oop_iterate@arrayKlassKlass@@UAEHPAVoopDesc@@PAVOopClosure@@@Z 08005922 f   arrayKlassKlass.obj
 0001:00004969       ?oop_oop_iterate_m@arrayKlassKlass@@UAEHPAVoopDesc@@PAVOopClosure@@VMemRegion@@@Z 08005969 f   arrayKlassKlass.obj
 0001:000049cd       ?has_read_prim_barrier@ModRefBarrierSet@@UAEHXZ 080059cd f i arrayKlassKlass.obj
 0001:000049cd       ?is_classless@ciObject@@UBEHXZ 080059cd f i arrayKlassKlass.obj
 0001:000049cd       ?has_read_region_opt@ModRefBarrierSet@@UAEHXZ 080059cd f i arrayKlassKlass.obj
 0001:000049cd       ?is_stub@ProfilerNode@@UBEHXZ 080059cd f i arrayKlassKlass.obj
 0001:000049cd       ?pack_data@Relocation@@UAEHXZ 080059cd f i arrayKlassKlass.obj
 0001:000049cd       ?end_addr@Generation@@UBEPAPAVHeapWord@@XZ 080059cd f i arrayKlassKlass.obj
 0001:000049cd       ?as_ArithmeticOp@Instruction@@UAEPAVArithmeticOp@@XZ 080059cd f i arrayKlassKlass.obj
 0001:000049cd       ?as_TableSwitch@Instruction@@UAEPAVTableSwitch@@XZ 080059cd f i arrayKlassKlass.obj
 0001:000049cd       ?is_java_klass@ciObject@@UAEHXZ 080059cd f i arrayKlassKlass.obj
 0001:000049cd       ?as_CachingChange@Instruction@@UAEPAVCachingChange@@XZ 080059cd f i arrayKlassKlass.obj
 0001:000049cd       ?as_LogicOp@Instruction@@UAEPAVLogicOp@@XZ 080059cd f i arrayKlassKlass.obj
 0001:000049cd       ?number_of_dependents@CodeBlob@@UBEHXZ 080059cd f i arrayKlassKlass.obj
 0001:000049cd       ?report_results@ResolveOopMapConflicts@@EBEHXZ 080059cd f i arrayKlassKlass.obj
 0001:000049cd       ?stub_size@CodeBlob@@UBEHXZ 080059cd f i arrayKlassKlass.obj
 0001:000049cd       ?has_read_ref_barrier@ModRefBarrierSet@@UAEHXZ 080059cd f i arrayKlassKlass.obj
 0001:000049cd       ?minimum_free_block_size@ContiguousSpace@@UBEIXZ 080059cd f i arrayKlassKlass.obj
 0001:000049cd       ?as_NullCheck@Instruction@@UAEPAVNullCheck@@XZ 080059cd f i arrayKlassKlass.obj
 0001:000049cd       ?allow_rewrites@GeneratePairingInfo@@EBEHXZ 080059cd f i arrayKlassKlass.obj
 0001:000049cd       ?as_ObjectType@ValueType@@UAEPAVObjectType@@XZ 080059cd f i arrayKlassKlass.obj
 0001:000049cd       ?is_GC_task_thread@Thread@@UBEHXZ 080059cd f i arrayKlassKlass.obj
 0001:000049cd       ?as_Op2@LIR_Op@@UAEPAVLIR_Op2@@XZ 080059cd f i arrayKlassKlass.obj
 0001:000049cd       ?oop_is_methodData@Klass@@UBEHXZ 080059cd f i arrayKlassKlass.obj
 0001:000049cd       ?protection_domain@ciKlass@@MAEPAVoopDesc@@XZ 080059cd f i arrayKlassKlass.obj
 0001:000049cd       ?is_train_policy@CollectorPolicy@@UAEHXZ 080059cd f i arrayKlassKlass.obj
 0001:000049cd       ?is_instance@ciObject@@UAEHXZ 080059cd f i arrayKlassKlass.obj
 0001:000049cd       ?toContiguousSpace@Space@@UAEPAVContiguousSpace@@XZ 080059cd f i arrayKlassKlass.obj
 0001:000049cd       ?kind@DefNewGeneration@@UAE?AW4Name@Generation@@XZ 080059cd f i arrayKlassKlass.obj
 0001:000049cd       ?must_be_oldest@DefNewGeneration@@UBEHXZ 080059cd f i arrayKlassKlass.obj
 0001:000049cd       ?kind@CollectedHeap@@UAE?AW4Name@1@XZ 080059cd f i arrayKlassKlass.obj
 0001:000049cd       ?must_be_oldest@CompactingPermGenGen@@UBEHXZ 080059cd f i arrayKlassKlass.obj
 0001:000049cd       ?is_jump_widen@ChangeItem@@UAEHXZ 080059cd f i arrayKlassKlass.obj
 0001:000049cd       ?oop_is_typeArrayKlass@Klass@@UBEHXZ 080059cd f i arrayKlassKlass.obj
 0001:000049cd       ?as_OpDelay@LIR_Op@@UAEPAVLIR_OpDelay@@XZ 080059cd f i arrayKlassKlass.obj
 0001:000049cd       ?oop_is_objArray@Klass@@UBEHXZ 080059cd f i arrayKlassKlass.obj
 0001:000049cd       ?refs_discovery_is_mt@ConcurrentMarkSweepGeneration@@UBEHXZ 080059cd f i arrayKlassKlass.obj
 0001:000049cd       ?oop_is_typeArray@Klass@@UBEHXZ 080059cd f i arrayKlassKlass.obj
 0001:000049cd       ?rem_set_name@TwoGenerationCollectorPolicy@@UAE?AW4Name@GenRemSet@@XZ 080059cd f i arrayKlassKlass.obj
 0001:000049cd       ?offset@DataRelocation@@UAEHXZ 080059cd f i arrayKlassKlass.obj
 0001:000049cd       ?is_mark_sweep_policy@CollectorPolicy@@UAEHXZ 080059cd f i arrayKlassKlass.obj
 0001:000049cd       ?isMethodStructureClosure@MethodClosure@@UBEHXZ 080059cd f i arrayKlassKlass.obj
 0001:000049cd       ?is_SuspendChecker_thread@Thread@@UBEHXZ 080059cd f i arrayKlassKlass.obj
 0001:000049cd       ?is_obj_array@ciObject@@UAEHXZ 080059cd f i arrayKlassKlass.obj
 0001:000049cd       ?as_ArrayLength@Instruction@@UAEPAVArrayLength@@XZ 080059cd f i arrayKlassKlass.obj
 0001:000049cd       ?as_Goto@Instruction@@UAEPAVGoto@@XZ 080059cd f i arrayKlassKlass.obj
 0001:000049cd       ?as_MonitorEnter@Instruction@@UAEPAVMonitorEnter@@XZ 080059cd f i arrayKlassKlass.obj
 0001:000049cd       ?as_LoadField@Instruction@@UAEPAVLoadField@@XZ 080059cd f i arrayKlassKlass.obj
 0001:000049cd       ?as_InstanceOf@Instruction@@UAEPAVInstanceOf@@XZ 080059cd f i arrayKlassKlass.obj
 0001:000049cd       ?as_ArrayConstant@ValueType@@UAEPAVArrayConstant@@XZ 080059cd f i arrayKlassKlass.obj
 0001:000049cd       ?is_CounterData@ProfileData@@UAEHXZ 080059cd f i arrayKlassKlass.obj
 0001:000049cd       ?is_obj_array_klass@ciObject@@UAEHXZ 080059cd f i arrayKlassKlass.obj
 0001:000049cd       ?as_OpBranch@LIR_Op@@UAEPAVLIR_OpBranch@@XZ 080059cd f i arrayKlassKlass.obj
 0001:000049cd       ?as_StoreLocal@Instruction@@UAEPAVStoreLocal@@XZ 080059cd f i arrayKlassKlass.obj
 0001:000049cd       ?is_uncommon_trap_stub@CodeBlob@@UBEHXZ 080059cd f i arrayKlassKlass.obj
 0001:000049cd       ?is_not_entrant@CodeBlob@@UBEHXZ 080059cd f i arrayKlassKlass.obj
 0001:000049cd       ?adapter_match@ProfilerNode@@UBEHXZ 080059cd f i arrayKlassKlass.obj
 0001:000049cd       ?as_deoptimization_stub@CodeBlob@@UBEPBVDeoptimizationBlob@@XZ 080059cd f i arrayKlassKlass.obj
 0001:000049cd       ?as_AccessField@Instruction@@UAEPAVAccessField@@XZ 080059cd f i arrayKlassKlass.obj
 0001:000049cd       ?rs_kind@CardTableRS@@UAE?AW4Name@GenRemSet@@XZ 080059cd f i arrayKlassKlass.obj
 0001:000049cd       ?protection_domain_handle@ciKlass@@MAEPAV_jobject@@XZ 080059cd f i arrayKlassKlass.obj
 0001:000049cd       ?is_c2i_adapter@CodeBlob@@UBEHXZ 080059cd f i arrayKlassKlass.obj
 0001:000049cd       ?is_interpreted_frame@vframe@@UBEHXZ 080059cd f i arrayKlassKlass.obj
 0001:000049cd       ?has_write_prim_array_opt@ModRefBarrierSet@@UAEHXZ 080059cd f i arrayKlassKlass.obj
 0001:000049cd       ?as_Phi@Instruction@@UAEPAVPhi@@XZ 080059cd f i arrayKlassKlass.obj
 0001:000049cd       ?is_runtime_stub@ProfilerNode@@UBEHXZ 080059cd f i arrayKlassKlass.obj
 0001:000049cd       ?as_StateSplit@Instruction@@UAEPAVStateSplit@@XZ 080059cd f i arrayKlassKlass.obj
 0001:000049cd       ?report_init_vars@GeneratePairingInfo@@EBEHXZ 080059cd f i arrayKlassKlass.obj
 0001:000049cd       ?as_FloatConstant@ValueType@@UAEPAVFloatConstant@@XZ 080059cd f i arrayKlassKlass.obj
 0001:000049cd       ?is_java_frame@vframe@@UBEHXZ 080059cd f i arrayKlassKlass.obj
 0001:000049cd       ?as_NewMultiArray@Instruction@@UAEPAVNewMultiArray@@XZ 080059cd f i arrayKlassKlass.obj
 0001:000049cd       ?is_jvmpi_daemon_thread@Thread@@UBEHXZ 080059cd f i arrayKlassKlass.obj
 0001:000049cd       ?is_Watcher_thread@Thread@@UBEHXZ 080059cd f i arrayKlassKlass.obj
 0001:000049cd       ?as_DoubleType@ValueType@@UAEPAVDoubleType@@XZ 080059cd f i arrayKlassKlass.obj
 0001:000049cd       ?is_constant_oop@ScopeValue@@UBEHXZ 080059cd f i arrayKlassKlass.obj
 0001:000049cd       ?is_locked_by_vm@CodeBlob@@UBEHXZ 080059cd f i arrayKlassKlass.obj
 0001:000049cd       ?can_trap@Instruction@@UBEHXZ 080059cd f i arrayKlassKlass.obj
 0001:000049cd       ?is_compiled@RFrame@@UBEHXZ 080059cd f i arrayKlassKlass.obj
 0001:000049cd       ?oop_is_constantPoolCache@Klass@@UBEHXZ 080059cd f i arrayKlassKlass.obj
 0001:000049cd       ?is_constant_int@ScopeValue@@UBEHXZ 080059cd f i arrayKlassKlass.obj
 0001:000049cd       ?is_nmethod@CodeBlob@@UBEHXZ 080059cd f i arrayKlassKlass.obj
 0001:000049cd       ?as_ObjectConstant@ValueType@@UAEPAVObjectConstant@@XZ 080059cd f i arrayKlassKlass.obj
 0001:000049cd       ?method@vmNode@@UAEPAVmethodOopDesc@@XZ 080059cd f i arrayKlassKlass.obj
 0001:000049cd       ?should_remember_klasses@OopClosure@@UBE?BHXZ 080059cd f i arrayKlassKlass.obj
 0001:000049cd       ?has_read_prim_array_opt@ModRefBarrierSet@@UAEHXZ 080059cd f i arrayKlassKlass.obj
 0001:000049cd       ?loader_handle@ciKlass@@MAEPAV_jobject@@XZ 080059cd f i arrayKlassKlass.obj
 0001:000049cd       ?as_Op2@Instruction@@UAEPAVOp2@@XZ 080059cd f i arrayKlassKlass.obj
 0001:000049cd       ?as_OpAllocArray@LIR_Op@@UAEPAVLIR_OpAllocArray@@XZ 080059cd f i arrayKlassKlass.obj
 0001:000049cd       ?as_IntConstant@ValueType@@UAEPAVIntConstant@@XZ 080059cd f i arrayKlassKlass.obj
 0001:000049cd       ?as_ClassType@ValueType@@UAEPAVClassType@@XZ 080059cd f i arrayKlassKlass.obj
 0001:000049cd       ?oop_is_array@Klass@@UBEHXZ 080059cd f i arrayKlassKlass.obj
 0001:000049cd       ?is_type_array@ciObject@@UAEHXZ 080059cd f i arrayKlassKlass.obj
 0001:000049cd       ?has_write_prim_barrier@ModRefBarrierSet@@UAEHXZ 080059cd f i arrayKlassKlass.obj
 0001:000049cd       ?is_RetData@ProfileData@@UAEHXZ 080059cd f i arrayKlassKlass.obj
 0001:000049cd       ?oop_is_compiledICHolder@Klass@@UBEHXZ 080059cd f i arrayKlassKlass.obj
 0001:000049cd       ?is_java_lang_Object@ciObject@@UAEHXZ 080059cd f i arrayKlassKlass.obj
 0001:000049cd       ?is_constant_long@ScopeValue@@UBEHXZ 080059cd f i arrayKlassKlass.obj
 0001:000049cd       ?is_osr_adapter@CodeBlob@@UBEHXZ 080059cd f i arrayKlassKlass.obj
 0001:000049cd       ?scopes_pcs_size@CodeBlob@@UBEHXZ 080059cd f i arrayKlassKlass.obj
 0001:000049cd       ?is_range_check_stub@CodeStub@@UBEHXZ 080059cd f i arrayKlassKlass.obj
 0001:000049cd       ?is_compiled@ProfilerNode@@UBEHXZ 080059cd f i arrayKlassKlass.obj
 0001:000049cd       ?as_StoreIndexed@Instruction@@UAEPAVStoreIndexed@@XZ 080059cd f i arrayKlassKlass.obj
 0001:000049cd       ?as_Invoke@Instruction@@UAEPAVInvoke@@XZ 080059cd f i arrayKlassKlass.obj
 0001:000049cd       ?as_OpLabel@LIR_Op@@UAEPAVLIR_OpLabel@@XZ 080059cd f i arrayKlassKlass.obj
 0001:000049cd       ?protection_domain@Klass@@UAEPAVoopDesc@@XZ 080059cd f i arrayKlassKlass.obj
 0001:000049cd       ?as_ArrayType@ValueType@@UAEPAVArrayType@@XZ 080059cd f i arrayKlassKlass.obj
 0001:000049cd       ?is_entry_frame@vframe@@UBEHXZ 080059cd f i arrayKlassKlass.obj
 0001:000049cd       ?is_method_klass@ciObject@@UAEHXZ 080059cd f i arrayKlassKlass.obj
 0001:000049cd       ?is_type_array_klass@ciObject@@UAEHXZ 080059cd f i arrayKlassKlass.obj
 0001:000049cd       ?is_deoptimization_stub@CodeBlob@@UBEHXZ 080059cd f i arrayKlassKlass.obj
 0001:000049cd       ?as_address@LIR_OprPtr@@UAEPAVLIR_Address@@XZ 080059cd f i arrayKlassKlass.obj
 0001:000049cd       ?info@CodeStub@@UBEPAVCodeEmitInfo@@XZ 080059cd f i arrayKlassKlass.obj
 0001:000049cd       ?cell_count@BitData@@UAEHXZ 080059cd f i arrayKlassKlass.obj
 0001:000049cd       ?as_OpRTCall@LIR_Op@@UAEPAVLIR_OpRTCall@@XZ 080059cd f i arrayKlassKlass.obj
 0001:000049cd       ?is_switch_pad@ChangeItem@@UAEHXZ 080059cd f i arrayKlassKlass.obj
 0001:000049cd       ?is_null_object@ciObject@@UBEHXZ 080059cd f i arrayKlassKlass.obj
 0001:000049cd       ?as_ShiftOp@Instruction@@UAEPAVShiftOp@@XZ 080059cd f i arrayKlassKlass.obj
 0001:000049cd       ?as_hint@Item@@UAEPAVHintItem@@XZ 080059cd f i arrayKlassKlass.obj
 0001:000049cd       ?supports_inline_contig_alloc@CollectedHeap@@UBEHXZ 080059cd f i arrayKlassKlass.obj
 0001:000049cd       ?as_OpLock@LIR_Op@@UAEPAVLIR_OpLock@@XZ 080059cd f i arrayKlassKlass.obj
 0001:000049cd       ?needs_inlining_scope@Compiler@@UAEHXZ 080059cd f i arrayKlassKlass.obj
 0001:000049cd       ?as_AccessIndexed@Instruction@@UAEPAVAccessIndexed@@XZ 080059cd f i arrayKlassKlass.obj
 0001:000049cd       ?capacity_before_gc@Generation@@UBEIXZ 080059cd f i arrayKlassKlass.obj
 0001:000049cd       ?is_buffer_blob@CodeBlob@@UBEHXZ 080059cd f i arrayKlassKlass.obj
 0001:000049cd       ?is_location@ScopeValue@@UBEHXZ 080059cd f i arrayKlassKlass.obj
 0001:000049cd       ?as_OpAllocObj@LIR_Op@@UAEPAVLIR_OpAllocObj@@XZ 080059cd f i arrayKlassKlass.obj
 0001:000049cd       ?toCarSpace@Space@@UAEPAVCarSpace@@XZ 080059cd f i arrayKlassKlass.obj
 0001:000049cd       ?is_unloaded@CodeBlob@@UBEHXZ 080059cd f i arrayKlassKlass.obj
 0001:000049cd       ?is_call@Relocation@@UAEHXZ 080059cd f i arrayKlassKlass.obj
 0001:000049cd       ?needs_stubs@Compiler@@UAEHXZ 080059cd f i arrayKlassKlass.obj
 0001:000049cd       ?is_method_data@ciObject@@UAEHXZ 080059cd f i arrayKlassKlass.obj
 0001:000049cd       ?as_StoreField@Instruction@@UAEPAVStoreField@@XZ 080059cd f i arrayKlassKlass.obj
 0001:000049cd       ?has_read_ref_array_opt@ModRefBarrierSet@@UAEHXZ 080059cd f i arrayKlassKlass.obj
 0001:000049cd       ?as_Return@Instruction@@UAEPAVReturn@@XZ 080059cd f i arrayKlassKlass.obj
 0001:000049cd       ?is_VM_thread@Thread@@UBEHXZ 080059cd f i arrayKlassKlass.obj
 0001:000049cd       ?full_collects_younger_generations@Generation@@UBEHXZ 080059cd f i arrayKlassKlass.obj
 0001:000049cd       ?loader@ciKlass@@MAEPAVoopDesc@@XZ 080059cd f i arrayKlassKlass.obj
 0001:000049cd       ?exception_size@CodeBlob@@UBEHXZ 080059cd f i arrayKlassKlass.obj
 0001:000049cd       ?is_type_array_klass_klass@ciObject@@UAEHXZ 080059cd f i arrayKlassKlass.obj
 0001:000049cd       ?is_VirtualCallData@ProfileData@@UAEHXZ 080059cd f i arrayKlassKlass.obj
 0001:000049cd       ?as_NewTypeArray@Instruction@@UAEPAVNewTypeArray@@XZ 080059cd f i arrayKlassKlass.obj
 0001:000049cd       ?as_Constant@Instruction@@UAEPAVConstant@@XZ 080059cd f i arrayKlassKlass.obj
 0001:000049cd       ?is_compilation_scope@Scope@@UBEHXZ 080059cd f i arrayKlassKlass.obj
 0001:000049cd       ?is_i2c_adapter@CodeBlob@@UBEHXZ 080059cd f i arrayKlassKlass.obj
 0001:000049cd       ?supports_tlab_allocation@CollectedHeap@@UBEHXZ 080059cd f i arrayKlassKlass.obj
 0001:000049cd       ?supports_tlab_allocation@Generation@@UBEHXZ 080059cd f i arrayKlassKlass.obj
 0001:000049cd       ?is_data@Relocation@@UAEHXZ 080059cd f i arrayKlassKlass.obj
 0001:000049cd       ?supports_inline_contig_alloc@Generation@@UBEHXZ 080059cd f i arrayKlassKlass.obj
 0001:000049cd       ?is_ArrayData@ProfileData@@UAEHXZ 080059cd f i arrayKlassKlass.obj
 0001:000049cd       ?as_OpArrayCopy@LIR_Op@@UAEPAVLIR_OpArrayCopy@@XZ 080059cd f i arrayKlassKlass.obj
 0001:000049cd       ?method@runtimeStubNode@@UAEPAVmethodOopDesc@@XZ 080059cd f i arrayKlassKlass.obj
 0001:000049cd       ?is_ConcurrentMarkSweep_thread@Thread@@UBEHXZ 080059cd f i arrayKlassKlass.obj
 0001:000049cd       ?refs_discovery_is_mt@Generation@@UBEHXZ 080059cd f i arrayKlassKlass.obj
 0001:000049cd       ?size@VoidType@@UBEHXZ     080059cd f i arrayKlassKlass.obj
 0001:000049cd       ?is_constant_double@ScopeValue@@UBEHXZ 080059cd f i arrayKlassKlass.obj
 0001:000049cd       ?is_interpreted@RFrame@@UBEHXZ 080059cd f i arrayKlassKlass.obj
 0001:000049cd       ?as_Throw@Instruction@@UAEPAVThrow@@XZ 080059cd f i arrayKlassKlass.obj
 0001:000049cd       ?allow_rewrites@GenerateOopMap@@UBEHXZ 080059cd f i arrayKlassKlass.obj
 0001:000049cd       ?is_deoptimized_frame@vframe@@UBEHXZ 080059cd f i arrayKlassKlass.obj
 0001:000049cd       ?as_InstanceType@ValueType@@UAEPAVInstanceType@@XZ 080059cd f i arrayKlassKlass.obj
 0001:000049cd       ?oop_is_objArrayKlass@Klass@@UBEHXZ 080059cd f i arrayKlassKlass.obj
 0001:000049cd       ?must_be_youngest@ConcurrentMarkSweepGeneration@@UBEHXZ 080059cd f i arrayKlassKlass.obj
 0001:000049cd       ?as_MonitorExit@Instruction@@UAEPAVMonitorExit@@XZ 080059cd f i arrayKlassKlass.obj
 0001:000049cd       ?oop_is_method@Klass@@UBEHXZ 080059cd f i arrayKlassKlass.obj
 0001:000049cd       ?is_obj_array_klass_klass@ciObject@@UAEHXZ 080059cd f i arrayKlassKlass.obj
 0001:000049cd       ?is_MultiBranchData@ProfileData@@UAEHXZ 080059cd f i arrayKlassKlass.obj
 0001:000049cd       ?is_constant@ValueType@@UBEHXZ 080059cd f i arrayKlassKlass.obj
 0001:000049cd       ?as_CheckCast@Instruction@@UAEPAVCheckCast@@XZ 080059cd f i arrayKlassKlass.obj
 0001:000049cd       ?needs_preloaded_classes@Compiler@@UAEHXZ 080059cd f i arrayKlassKlass.obj
 0001:000049cd       ?is_exception_throw_stub@CodeStub@@UBEHXZ 080059cd f i arrayKlassKlass.obj
 0001:000049cd       ?as_Op3@LIR_Op@@UAEPAVLIR_Op3@@XZ 080059cd f i arrayKlassKlass.obj
 0001:000049cd       ?as_OpJavaCall@LIR_Op@@UAEPAVLIR_OpJavaCall@@XZ 080059cd f i arrayKlassKlass.obj
 0001:000049cd       ?must_be_oldest@CMSPermGenGen@@UBEHXZ 080059cd f i arrayKlassKlass.obj
 0001:000049cd       ?must_be_youngest@TenuredGeneration@@UBEHXZ 080059cd f i arrayKlassKlass.obj
 0001:000049cd       ?report_results@OopMapForCacheEntry@@EBEHXZ 080059cd f i arrayKlassKlass.obj
 0001:000049cd       ?as_If@Instruction@@UAEPAVIf@@XZ 080059cd f i arrayKlassKlass.obj
 0001:000049cd       ?oop_is_instanceKlass@Klass@@UBEHXZ 080059cd f i arrayKlassKlass.obj
 0001:000049cd       ?oop_is_constantPool@Klass@@UBEHXZ 080059cd f i arrayKlassKlass.obj
 0001:000049cd       ?is_instance_klass@ciObject@@UAEHXZ 080059cd f i arrayKlassKlass.obj
 0001:000049cd       ?must_be_youngest@CompactingPermGenGen@@UBEHXZ 080059cd f i arrayKlassKlass.obj
 0001:000049cd       ?as_NewArray@Instruction@@UAEPAVNewArray@@XZ 080059cd f i arrayKlassKlass.obj
 0001:000049cd       ?is_hidden_from_external_view@Thread@@UBEHXZ 080059cd f i arrayKlassKlass.obj
 0001:000049cd       ?is_interface@ciKlass@@UAEHXZ 080059cd f i arrayKlassKlass.obj
 0001:000049cd       ?is_divbyzero_stub@CodeStub@@UBEHXZ 080059cd f i arrayKlassKlass.obj
 0001:000049cd       ?as_AccessLocal@Instruction@@UAEPAVAccessLocal@@XZ 080059cd f i arrayKlassKlass.obj
 0001:000049cd       ?as_BlockBegin@Instruction@@UAEPAVBlockBegin@@XZ 080059cd f i arrayKlassKlass.obj
 0001:000049cd       ?as_ClassConstant@ValueType@@UAEPAVClassConstant@@XZ 080059cd f i arrayKlassKlass.obj
 0001:000049cd       ?is_symbol@ciObject@@UAEHXZ 080059cd f i arrayKlassKlass.obj
 0001:000049cd       ?as_Op0@LIR_Op@@UAEPAVLIR_Op0@@XZ 080059cd f i arrayKlassKlass.obj
 0001:000049cd       ?method@unknown_compiledNode@@UAEPAVmethodOopDesc@@XZ 080059cd f i arrayKlassKlass.obj
 0001:000049cd       ?as_IntType@ValueType@@UAEPAVIntType@@XZ 080059cd f i arrayKlassKlass.obj
 0001:000049cd       ?is_zombie@CodeBlob@@UBEHXZ 080059cd f i arrayKlassKlass.obj
 0001:000049cd       ?as_BlockEnd@Instruction@@UAEPAVBlockEnd@@XZ 080059cd f i arrayKlassKlass.obj
 0001:000049cd       ?is_array_klass_klass@ciObject@@UAEHXZ 080059cd f i arrayKlassKlass.obj
 0001:000049cd       ?is_widen@ChangeItem@@UAEHXZ 080059cd f i arrayKlassKlass.obj
 0001:000049cd       ?is_runtime_stub@CodeBlob@@UBEHXZ 080059cd f i arrayKlassKlass.obj
 0001:000049cd       ?is_BranchData@ProfileData@@UAEHXZ 080059cd f i arrayKlassKlass.obj
 0001:000049cd       ?is_cheap_allocated@VM_Operation@@UBEHXZ 080059cd f i arrayKlassKlass.obj
 0001:000049cd       ?as_NewObjectArray@Instruction@@UAEPAVNewObjectArray@@XZ 080059cd f i arrayKlassKlass.obj
 0001:000049cd       ?is_java_object@ciObject@@UAEHXZ 080059cd f i arrayKlassKlass.obj
 0001:000049cd       ?needs_adapters@Compiler@@UAEHXZ 080059cd f i arrayKlassKlass.obj
 0001:000049cd       ?scopes_data_size@CodeBlob@@UBEHXZ 080059cd f i arrayKlassKlass.obj
 0001:000049cd       ?evaluation_mode@VM_ThreadSuspend@@UBE?AW4Mode@VM_Operation@@XZ 080059cd f i arrayKlassKlass.obj
 0001:000049cd       ?type@Relocation@@UAE?AW4relocType@relocInfo@@XZ 080059cd f i arrayKlassKlass.obj
 0001:000049cd       ?is_BitData@ProfileData@@UAEHXZ 080059cd f i arrayKlassKlass.obj
 0001:000049cd       ?is_commutative@Op2@@UBEHXZ 080059cd f i arrayKlassKlass.obj
 0001:000049cd       ?refs_discovery_is_atomic@ConcurrentMarkSweepGeneration@@UBE?BHXZ 080059cd f i arrayKlassKlass.obj
 0001:000049cd       ?is_array@ciObject@@UAEHXZ 080059cd f i arrayKlassKlass.obj
 0001:000049cd       ?top_addr@Generation@@UBEPAPAVHeapWord@@XZ 080059cd f i arrayKlassKlass.obj
 0001:000049cd       ?is_type@ciObject@@UAEHXZ  080059cd f i arrayKlassKlass.obj
 0001:000049cd       ?is_Compiler_thread@Thread@@UBEHXZ 080059cd f i arrayKlassKlass.obj
 0001:000049cd       ?allow_nested_vm_operations@VM_Operation@@UBEHXZ 080059cd f i arrayKlassKlass.obj
 0001:000049cd       ?must_be_youngest@CMSPermGenGen@@UBEHXZ 080059cd f i arrayKlassKlass.obj
 0001:000049cd       ?as_Op1@LIR_Op@@UAEPAVLIR_Op1@@XZ 080059cd f i arrayKlassKlass.obj
 0001:000049cd       ?iterator@MethodClosure@@MBEPAVMethodIterator@@XZ 080059cd f i arrayKlassKlass.obj
 0001:000049cd       ?method@adapterNode@@UAEPAVmethodOopDesc@@XZ 080059cd f i arrayKlassKlass.obj
 0001:000049cd       ?is_compiled_frame@vframe@@UBEHXZ 080059cd f i arrayKlassKlass.obj
 0001:000049cd       ?as_InstanceConstant@ValueType@@UAEPAVInstanceConstant@@XZ 080059cd f i arrayKlassKlass.obj
 0001:000049cd       ?declared_type@Instruction@@UBEPAVciType@@XZ 080059cd f i arrayKlassKlass.obj
 0001:000049cd       ?is_safepoint_stub@CodeBlob@@UBEHXZ 080059cd f i arrayKlassKlass.obj
 0001:000049cd       ?do_nmethods@OopClosure@@UBE?BHXZ 080059cd f i arrayKlassKlass.obj
 0001:000049cd       ?is_array_klass@ciObject@@UAEHXZ 080059cd f i arrayKlassKlass.obj
 0001:000049cd       ?is_osr_method@CodeBlob@@UBEHXZ 080059cd f i arrayKlassKlass.obj
 0001:000049cd       ?is_concurrent_mark_sweep_policy@CollectorPolicy@@UAEHXZ 080059cd f i arrayKlassKlass.obj
 0001:000049cd       ?is_klass@ciObject@@UAEHXZ 080059cd f i arrayKlassKlass.obj
 0001:000049cd       ?as_LongType@ValueType@@UAEPAVLongType@@XZ 080059cd f i arrayKlassKlass.obj
 0001:000049cd       ?is_Java_thread@Thread@@UBEHXZ 080059cd f i arrayKlassKlass.obj
 0001:000049cd       ?as_Base@Instruction@@UAEPAVBase@@XZ 080059cd f i arrayKlassKlass.obj
 0001:000049cd       ?as_CodePatterns@C1_MacroAssembler@@UAEPAVC1_CodePatterns@@XZ 080059cd f i arrayKlassKlass.obj
 0001:000049cd       ?as_Intrinsic@Instruction@@UAEPAVIntrinsic@@XZ 080059cd f i arrayKlassKlass.obj
 0001:000049cd       ?java_super@Klass@@UBEPAVklassOopDesc@@XZ 080059cd f i arrayKlassKlass.obj
 0001:000049cd       ?as_CardTableRS@GenRemSet@@UAEPAVCardTableRS@@XZ 080059cd f i arrayKlassKlass.obj
 0001:000049cd       ?vtable@Klass@@UBEPAVklassVtable@@XZ 080059cd f i arrayKlassKlass.obj
 0001:000049cd       ?evaluation_mode@VM_Operation@@UBE?AW4Mode@1@XZ 080059cd f i arrayKlassKlass.obj
 0001:000049cd       ?as_DoubleConstant@ValueType@@UAEPAVDoubleConstant@@XZ 080059cd f i arrayKlassKlass.obj
 0001:000049cd       ?oop_is_symbol@Klass@@UBEHXZ 080059cd f i arrayKlassKlass.obj
 0001:000049cd       ?tag@IntType@@UBE?AW4ValueTag@@XZ 080059cd f i arrayKlassKlass.obj
 0001:000049cd       ?as_OpCompareAndSwap@LIR_Op@@UAEPAVLIR_OpCompareAndSwap@@XZ 080059cd f i arrayKlassKlass.obj
 0001:000049cd       ?as_LongConstant@ValueType@@UAEPAVLongConstant@@XZ 080059cd f i arrayKlassKlass.obj
 0001:000049cd       ?is_methodCompiler@VM_Operation@@UBEHXZ 080059cd f i arrayKlassKlass.obj
 0001:000049cd       ?as_NegateOp@Instruction@@UAEPAVNegateOp@@XZ 080059cd f i arrayKlassKlass.obj
 0001:000049cd       ?is_java_method@CodeBlob@@UBEHXZ 080059cd f i arrayKlassKlass.obj
 0001:000049cd       ?exact_type@Instruction@@UBEPAVciType@@XZ 080059cd f i arrayKlassKlass.obj
 0001:000049cd       ?isCodeGenClosure@MethodClosure@@UBEHXZ 080059cd f i arrayKlassKlass.obj
 0001:000049cd       ?as_LookupSwitch@Instruction@@UAEPAVLookupSwitch@@XZ 080059cd f i arrayKlassKlass.obj
 0001:000049cd       ?as_VoidType@ValueType@@UAEPAVVoidType@@XZ 080059cd f i arrayKlassKlass.obj
 0001:000049cd       ?lock_stack@Instruction@@UBEPAVValueStack@@XZ 080059cd f i arrayKlassKlass.obj
 0001:000049cd       ?is_native_method@CodeBlob@@UBEHXZ 080059cd f i arrayKlassKlass.obj
 0001:000049cd       ?hash@Instruction@@UBEHXZ  080059cd f i arrayKlassKlass.obj
 0001:000049cd       ?as_AccessMonitor@Instruction@@UAEPAVAccessMonitor@@XZ 080059cd f i arrayKlassKlass.obj
 0001:000049cd       ?report_results@GeneratePairingInfo@@EBEHXZ 080059cd f i arrayKlassKlass.obj
 0001:000049cd       ?as_Convert@Instruction@@UAEPAVConvert@@XZ 080059cd f i arrayKlassKlass.obj
 0001:000049cd       ?as_FloatType@ValueType@@UAEPAVFloatType@@XZ 080059cd f i arrayKlassKlass.obj
 0001:000049cd       ?is_JumpData@ProfileData@@UAEHXZ 080059cd f i arrayKlassKlass.obj
 0001:000049cd       ?as_constant@LIR_OprPtr@@UAEPAVLIR_Const@@XZ 080059cd f i arrayKlassKlass.obj
 0001:000049cd       ?oop_is_thread@Klass@@UBEHXZ 080059cd f i arrayKlassKlass.obj
 0001:000049cd       ?as_AddressType@ValueType@@UAEPAVAddressType@@XZ 080059cd f i arrayKlassKlass.obj
 0001:000049cd       ?is_call_stub@CodeStub@@UBEHXZ 080059cd f i arrayKlassKlass.obj
 0001:000049cd       ?as_LoadLocal@Instruction@@UAEPAVLoadLocal@@XZ 080059cd f i arrayKlassKlass.obj
 0001:000049cd       ?oop_is_instanceRef@Klass@@UBEHXZ 080059cd f i arrayKlassKlass.obj
 0001:000049cd       ?oop_is_arrayKlass@Klass@@UBEHXZ 080059cd f i arrayKlassKlass.obj
 0001:000049cd       ?as_TypeCheck@Instruction@@UAEPAVTypeCheck@@XZ 080059cd f i arrayKlassKlass.obj
 0001:000049cd       ?as_Local@Instruction@@UAEPAVLocal@@XZ 080059cd f i arrayKlassKlass.obj
 0001:000049cd       ?as_CompareOp@Instruction@@UAEPAVCompareOp@@XZ 080059cd f i arrayKlassKlass.obj
 0001:000049cd       ?as_IfOp@Instruction@@UAEPAVIfOp@@XZ 080059cd f i arrayKlassKlass.obj
 0001:000049cd       ?as_OpTypeCheck@LIR_Op@@UAEPAVLIR_OpTypeCheck@@XZ 080059cd f i arrayKlassKlass.obj
 0001:000049cd       ?oop_is_instance@Klass@@UBEHXZ 080059cd f i arrayKlassKlass.obj
 0001:000049cd       ?oop_is_klass@Klass@@UBEHXZ 080059cd f i arrayKlassKlass.obj
 0001:000049cd       ?is_symbol_klass@ciObject@@UAEHXZ 080059cd f i arrayKlassKlass.obj
 0001:000049cd       ?as_IfInstanceOf@Instruction@@UAEPAVIfInstanceOf@@XZ 080059cd f i arrayKlassKlass.obj
 0001:000049cd       ?as_NewInstance@Instruction@@UAEPAVNewInstance@@XZ 080059cd f i arrayKlassKlass.obj
 0001:000049cd       ?is_instance_klass_klass@ciObject@@UAEHXZ 080059cd f i arrayKlassKlass.obj
 0001:000049cd       ?is_exception_stub@CodeBlob@@UBEHXZ 080059cd f i arrayKlassKlass.obj
 0001:000049cd       ?should_be_initialized@Klass@@UBEHXZ 080059cd f i arrayKlassKlass.obj
 0001:000049cd       ?as_root@Item@@UAEPAVRootItem@@XZ 080059cd f i arrayKlassKlass.obj
 0001:000049cd       ?must_be_youngest@TrainGeneration@@UBEHXZ 080059cd f i arrayKlassKlass.obj
 0001:000049cd       ?is_klass_klass@ciObject@@UAEHXZ 080059cd f i arrayKlassKlass.obj
 0001:000049cd       ?is_method@ciObject@@UAEHXZ 080059cd f i arrayKlassKlass.obj
 0001:000049cd       ?is_interpreted@ProfilerNode@@UBEHXZ 080059cd f i arrayKlassKlass.obj
 0001:000049cd       ?is_return_address@ciObject@@UAEHXZ 080059cd f i arrayKlassKlass.obj
 0001:000049cd       ?as_LoadIndexed@Instruction@@UAEPAVLoadIndexed@@XZ 080059cd f i arrayKlassKlass.obj
 0001:000049cd       ?as_IllegalType@ValueType@@UAEPAVIllegalType@@XZ 080059cd f i arrayKlassKlass.obj
 0001:000049cd       ?code_size@CodeBlob@@UBEHXZ 080059cd f i arrayKlassKlass.obj
 0001:000049cd       ?as_AddressConstant@ValueType@@UAEPAVAddressConstant@@XZ 080059cd f i arrayKlassKlass.obj
 0001:000049cd       ?allowed_dead_ratio@CompactibleSpace@@UBEHXZ 080059cd f i arrayKlassKlass.obj
 0001:000049cd       ?next_compaction_space@CompactibleSpace@@UBEPAV1@XZ 080059cd f i arrayKlassKlass.obj
 0001:000049d0       ?oop_oop_iterate_nv_m@Klass@@UAEHPAVoopDesc@@PAVScanClosure@@VMemRegion@@@Z 080059d0 f i arrayKlassKlass.obj
 0001:000049d0       ?oop_oop_iterate_nv_m@Klass@@UAEHPAVoopDesc@@PAVTrainScanClosure@@VMemRegion@@@Z 080059d0 f i arrayKlassKlass.obj
 0001:000049d0       ?oop_oop_iterate_nv_m@Klass@@UAEHPAVoopDesc@@PAVUpdateTrainRSWrapTrainScanClosure@@VMemRegion@@@Z 080059d0 f i arrayKlassKlass.obj
 0001:000049d0       ?oop_oop_iterate_nv_m@Klass@@UAEHPAVoopDesc@@PAVPar_PushAndMarkClosure@@VMemRegion@@@Z 080059d0 f i arrayKlassKlass.obj
 0001:000049d0       ?oop_oop_iterate_nv_m@Klass@@UAEHPAVoopDesc@@PAVUpdateTrainRSWrapScanClosure@@VMemRegion@@@Z 080059d0 f i arrayKlassKlass.obj
 0001:000049d0       ?oop_oop_iterate_nv_m@Klass@@UAEHPAVoopDesc@@PAVPar_MarkRefsIntoAndScanClosure@@VMemRegion@@@Z 080059d0 f i arrayKlassKlass.obj
 0001:000049d0       ?oop_oop_iterate_nv_m@Klass@@UAEHPAVoopDesc@@PAVFilteringClosure@@VMemRegion@@@Z 080059d0 f i arrayKlassKlass.obj
 0001:000049d0       ?oop_oop_iterate_nv_m@Klass@@UAEHPAVoopDesc@@PAVMarkRefsIntoAndScanClosure@@VMemRegion@@@Z 080059d0 f i arrayKlassKlass.obj
 0001:000049d0       ?oop_oop_iterate_nv_m@Klass@@UAEHPAVoopDesc@@PAVUpdateTrainRSWrapFastScanClosure@@VMemRegion@@@Z 080059d0 f i arrayKlassKlass.obj
 0001:000049d0       ?oop_oop_iterate_v_m@Klass@@UAEHPAVoopDesc@@PAVOopClosure@@VMemRegion@@@Z 080059d0 f i arrayKlassKlass.obj
 0001:000049d0       ?oop_oop_iterate_nv_m@Klass@@UAEHPAVoopDesc@@PAVPushAndMarkClosure@@VMemRegion@@@Z 080059d0 f i arrayKlassKlass.obj
 0001:000049d0       ?oop_oop_iterate_nv_m@Klass@@UAEHPAVoopDesc@@PAVParScanWithBarrierClosure@@VMemRegion@@@Z 080059d0 f i arrayKlassKlass.obj
 0001:000049d0       ?oop_oop_iterate_nv_m@Klass@@UAEHPAVoopDesc@@PAVFastScanClosure@@VMemRegion@@@Z 080059d0 f i arrayKlassKlass.obj
 0001:000049d0       ?oop_oop_iterate_nv_m@Klass@@UAEHPAVoopDesc@@PAVParScanWithoutBarrierClosure@@VMemRegion@@@Z 080059d0 f i arrayKlassKlass.obj
 0001:000049f4       ?oop_oop_iterate_nv@Klass@@UAEHPAVoopDesc@@PAVUpdateTrainRSWrapTrainScanClosure@@@Z 080059f4 f i arrayKlassKlass.obj
 0001:000049f4       ?oop_oop_iterate_nv@Klass@@UAEHPAVoopDesc@@PAVScanClosure@@@Z 080059f4 f i arrayKlassKlass.obj
 0001:000049f4       ?oop_oop_iterate_nv@Klass@@UAEHPAVoopDesc@@PAVPushAndMarkClosure@@@Z 080059f4 f i arrayKlassKlass.obj
 0001:000049f4       ?oop_oop_iterate_nv@Klass@@UAEHPAVoopDesc@@PAVUpdateTrainRSWrapFastScanClosure@@@Z 080059f4 f i arrayKlassKlass.obj
 0001:000049f4       ?oop_oop_iterate_nv@Klass@@UAEHPAVoopDesc@@PAVMarkRefsIntoAndScanClosure@@@Z 080059f4 f i arrayKlassKlass.obj
 0001:000049f4       ?oop_oop_iterate_nv@Klass@@UAEHPAVoopDesc@@PAVFilteringClosure@@@Z 080059f4 f i arrayKlassKlass.obj
 0001:000049f4       ?oop_oop_iterate_nv@Klass@@UAEHPAVoopDesc@@PAVTrainScanClosure@@@Z 080059f4 f i arrayKlassKlass.obj
 0001:000049f4       ?oop_oop_iterate_nv@Klass@@UAEHPAVoopDesc@@PAVPar_MarkRefsIntoAndScanClosure@@@Z 080059f4 f i arrayKlassKlass.obj
 0001:000049f4       ?oop_oop_iterate_nv@Klass@@UAEHPAVoopDesc@@PAVUpdateTrainRSWrapScanClosure@@@Z 080059f4 f i arrayKlassKlass.obj
 0001:000049f4       ?oop_oop_iterate_nv@Klass@@UAEHPAVoopDesc@@PAVParScanWithoutBarrierClosure@@@Z 080059f4 f i arrayKlassKlass.obj
 0001:000049f4       ?oop_oop_iterate_nv@Klass@@UAEHPAVoopDesc@@PAVFastScanClosure@@@Z 080059f4 f i arrayKlassKlass.obj
 0001:000049f4       ?oop_oop_iterate_nv@Klass@@UAEHPAVoopDesc@@PAVPar_PushAndMarkClosure@@@Z 080059f4 f i arrayKlassKlass.obj
 0001:000049f4       ?oop_oop_iterate_v@Klass@@UAEHPAVoopDesc@@PAVOopClosure@@@Z 080059f4 f i arrayKlassKlass.obj
 0001:000049f4       ?oop_oop_iterate_nv@Klass@@UAEHPAVoopDesc@@PAVParScanWithBarrierClosure@@@Z 080059f4 f i arrayKlassKlass.obj
 0001:00004a07       ??0AbstractAssembler@@QAE@PAVCodeBuffer@@@Z 08005a07 f   assembler.obj
 0001:00004a38       ?a_byte@AbstractAssembler@@QAEXH@Z 08005a38 f   assembler.obj
 0001:00004a44       ?a_long@AbstractAssembler@@QAEXH@Z 08005a44 f   assembler.obj
 0001:00004a50       ?bind_to@AbstractAssembler@@IAEXAAVLabel@@H@Z 08005a50 f   assembler.obj
 0001:00004aa1       ?bind@AbstractAssembler@@QAEXAAVLabel@@@Z 08005aa1 f   assembler.obj
 0001:00004ae4       ?generate_stack_overflow_check@AbstractAssembler@@QAEXH@Z 08005ae4 f   assembler.obj
 0001:00004b1d       ?report_bad_label@Label@@ABEXXZ 08005b1d f   assembler.obj
 0001:00004b30       ?emit_byte@AbstractAssembler@@IAEXH@Z 08005b30 f i assembler.obj
 0001:00004b48       ?emit_long@AbstractAssembler@@IAEXH@Z 08005b48 f i assembler.obj
 0001:00004b61       ??0Address@@QAE@HW4relocType@relocInfo@@@Z 08005b61 f   assembler_i486.obj
 0001:00004bd9       ?bind@Displacement@@AAEXAAVLabel@@HPAVAbstractAssembler@@@Z 08005bd9 f   assembler_i486.obj

 0001:00004c56       ?code_fill_byte@AbstractAssembler@@SAHXZ 08005c56 f   assembler_i486.obj
 0001:00004c5c       ?emit_data@Assembler@@IAEXHW4relocType@relocInfo@@H@Z 08005c5c f   assembler_i486.obj
 0001:00004c96       ?emit_data@Assembler@@IAEXHABVRelocationHolder@@H@Z 08005c96 f   assembler_i486.obj
 0001:00004cbb       ?emit_arith@Assembler@@IAEXHHPAVRegisterImpl@@H@Z 08005cbb f   assembler_i486.obj
 0001:00004d21       ?emit_arith_operand@Assembler@@IAEXHPAVRegisterImpl@@VAddress@@H@Z 08005d21 f   assembler_i486.obj
 0001:00004d9f       ?emit_arith@Assembler@@IAEXHHPAVRegisterImpl@@PAV_jobject@@@Z 08005d9f f   assembler_i486.obj
 0001:00004dd8       ?emit_arith@Assembler@@IAEXHHPAVRegisterImpl@@0@Z 08005dd8 f   assembler_i486.obj
 0001:00004dff       ?emit_operand@Assembler@@IAEXPAVRegisterImpl@@00W4ScaleFactor@Address@@HABVRelocationHolder@@@Z 08005dff f   assembler_i486.obj
 0001:00004fc1       ?locate_operand@Assembler@@SAPAEPAEW4WhichOperand@1@@Z 08005fc1 f   assembler_i486.obj
 0001:00005341       ?locate_next_instruction@Assembler@@SAPAEPAE@Z 08006341 f   assembler_i486.obj
 0001:0000534f       ?emit_operand@Assembler@@IAEXPAVRegisterImpl@@VAddress@@@Z 0800634f f   assembler_i486.obj
 0001:0000536e       ?emit_farith@Assembler@@IAEXHHH@Z 0800636e f   assembler_i486.obj
 0001:00005390       ?pushad@Assembler@@QAEXXZ  08006390 f   assembler_i486.obj
 0001:00005398       ?popad@Assembler@@QAEXXZ   08006398 f   assembler_i486.obj
 0001:000053a0       ?pushfd@Assembler@@QAEXXZ  080063a0 f   assembler_i486.obj
 0001:000053ab       ?popfd@Assembler@@QAEXXZ   080063ab f   assembler_i486.obj
 0001:000053b6       ?pushl@Assembler@@QAEXH@Z  080063b6 f   assembler_i486.obj
 0001:000053cf       ?pushl@Assembler@@QAEXPAV_jobject@@@Z 080063cf f   assembler_i486.obj
 0001:000053f6       ?pushl@Assembler@@QAEXPAVRegisterImpl@@@Z 080063f6 f   assembler_i486.obj
 0001:00005405       ?pushl@Assembler@@QAEXVAddress@@@Z 08006405 f   assembler_i486.obj
 0001:0000543f       ?popl@Assembler@@QAEXPAVRegisterImpl@@@Z 0800643f f   assembler_i486.obj
 0001:0000544e       ?prefix@Assembler@@QAEXW4Prefix@1@@Z 0800644e f   assembler_i486.obj
 0001:0000545a       ?movb@Assembler@@QAEXPAVRegisterImpl@@VAddress@@@Z 0800645a f   assembler_i486.obj
 0001:00005492       ?movb@Assembler@@QAEXVAddress@@H@Z 08006492 f   assembler_i486.obj
 0001:000054d7       ?movb@Assembler@@QAEXVAddress@@PAVRegisterImpl@@@Z 080064d7 f   assembler_i486.obj
 0001:0000550f       ?movw@Assembler@@QAEXVAddress@@H@Z 0800650f f   assembler_i486.obj
 0001:00005571       ?movw@Assembler@@QAEXPAVRegisterImpl@@VAddress@@@Z 08006571 f   assembler_i486.obj
 0001:000055b2       ?movw@Assembler@@QAEXVAddress@@PAVRegisterImpl@@@Z 080065b2 f   assembler_i486.obj
 0001:000055f3       ?movl@Assembler@@QAEXPAVRegisterImpl@@H@Z 080065f3 f   assembler_i486.obj
 0001:00005611       ?movl@Assembler@@QAEXPAVRegisterImpl@@PAV_jobject@@@Z 08006611 f   assembler_i486.obj
 0001:0000563d       ?movl@Assembler@@QAEXPAVRegisterImpl@@0@Z 0800663d f   assembler_i486.obj
 0001:00005663       ?movl@Assembler@@QAEXPAVRegisterImpl@@VAddress@@@Z 08006663 f   assembler_i486.obj
 0001:0000569b       ?movl@Assembler@@QAEXVAddress@@H@Z 0800669b f   assembler_i486.obj
 0001:000056e0       ?movl@Assembler@@QAEXVAddress@@PAV_jobject@@@Z 080066e0 f   assembler_i486.obj
 0001:00005729       ?movl@Assembler@@QAEXVAddress@@PAVRegisterImpl@@@Z 08006729 f   assembler_i486.obj
 0001:00005761       ?movsxb@Assembler@@QAEXPAVRegisterImpl@@VAddress@@@Z 08006761 f   assembler_i486.obj
 0001:000057a2       ?movsxb@Assembler@@QAEXPAVRegisterImpl@@0@Z 080067a2 f   assembler_i486.obj
 0001:000057d1       ?movsxw@Assembler@@QAEXPAVRegisterImpl@@VAddress@@@Z 080067d1 f   assembler_i486.obj
 0001:00005812       ?movsxw@Assembler@@QAEXPAVRegisterImpl@@0@Z 08006812 f   assembler_i486.obj
 0001:00005841       ?movzxb@Assembler@@QAEXPAVRegisterImpl@@VAddress@@@Z 08006841 f   assembler_i486.obj
 0001:00005882       ?movzxw@Assembler@@QAEXPAVRegisterImpl@@VAddress@@@Z 08006882 f   assembler_i486.obj
 0001:000058c3       ?cmovl@Assembler@@QAEXW4Condition@1@PAVRegisterImpl@@1@Z 080068c3 f   assembler_i486.obj
 0001:00005918       ?adcl@Assembler@@QAEXPAVRegisterImpl@@H@Z 08006918 f   assembler_i486.obj
 0001:00005932       ?adcl@Assembler@@QAEXPAVRegisterImpl@@0@Z 08006932 f   assembler_i486.obj
 0001:00005949       ?addl@Assembler@@QAEXVAddress@@H@Z 08006949 f   assembler_i486.obj
 0001:00005982       ?addl@Assembler@@QAEXVAddress@@PAVRegisterImpl@@@Z 08006982 f   assembler_i486.obj
 0001:000059b7       ?addl@Assembler@@QAEXPAVRegisterImpl@@H@Z 080069b7 f   assembler_i486.obj
 0001:000059d1       ?addl@Assembler@@QAEXPAVRegisterImpl@@VAddress@@@Z 080069d1 f   assembler_i486.obj
 0001:00005a06       ?addl@Assembler@@QAEXPAVRegisterImpl@@0@Z 08006a06 f   assembler_i486.obj
 0001:00005a1d       ?andl@Assembler@@QAEXPAVRegisterImpl@@H@Z 08006a1d f   assembler_i486.obj
 0001:00005a37       ?andl@Assembler@@QAEXPAVRegisterImpl@@0@Z 08006a37 f   assembler_i486.obj
 0001:00005a4e       ?cmpb@Assembler@@QAEXVAddress@@H@Z 08006a4e f   assembler_i486.obj
 0001:00005a93       ?cmpl@Assembler@@QAEXVAddress@@H@Z 08006a93 f   assembler_i486.obj
 0001:00005ad8       ?cmpl@Assembler@@QAEXVAddress@@PAV_jobject@@@Z 08006ad8 f   assembler_i486.obj
 0001:00005b21       ?cmpl@Assembler@@QAEXPAVRegisterImpl@@H@Z 08006b21 f   assembler_i486.obj
 0001:00005b3b       ?cmpl@Assembler@@QAEXPAVRegisterImpl@@PAV_jobject@@@Z 08006b3b f   assembler_i486.obj
 0001:00005b55       ?cmpl@Assembler@@QAEXPAVRegisterImpl@@0@Z 08006b55 f   assembler_i486.obj
 0001:00005b6c       ?cmpl@Assembler@@QAEXPAVRegisterImpl@@VAddress@@@Z 08006b6c f   assembler_i486.obj
 0001:00005ba1       ?decl@Assembler@@QAEXPAVRegisterImpl@@@Z 08006ba1 f   assembler_i486.obj
 0001:00005bb0       ?decl@Assembler@@QAEXVAddress@@@Z 08006bb0 f   assembler_i486.obj
 0001:00005bea       ?idivl@Assembler@@QAEXPAVRegisterImpl@@@Z 08006bea f   assembler_i486.obj
 0001:00005c09       ?cdql@Assembler@@QAEXXZ    08006c09 f   assembler_i486.obj
 0001:00005c14       ?imull@Assembler@@QAEXPAVRegisterImpl@@0@Z 08006c14 f   assembler_i486.obj
 0001:00005c43       ?incl@Assembler@@QAEXPAVRegisterImpl@@@Z 08006c43 f   assembler_i486.obj
 0001:00005c52       ?incl@Assembler@@QAEXVAddress@@@Z 08006c52 f   assembler_i486.obj
 0001:00005c8c       ?leal@Assembler@@QAEXPAVRegisterImpl@@VAddress@@@Z 08006c8c f   assembler_i486.obj
 0001:00005cc4       ?mull@Assembler@@QAEXVAddress@@@Z 08006cc4 f   assembler_i486.obj
 0001:00005cfe       ?mull@Assembler@@QAEXPAVRegisterImpl@@@Z 08006cfe f   assembler_i486.obj
 0001:00005d1d       ?negl@Assembler@@QAEXPAVRegisterImpl@@@Z 08006d1d f   assembler_i486.obj
 0001:00005d3c       ?orl@Assembler@@QAEXPAVRegisterImpl@@H@Z 08006d3c f   assembler_i486.obj
 0001:00005d56       ?orl@Assembler@@QAEXPAVRegisterImpl@@VAddress@@@Z 08006d56 f   assembler_i486.obj
 0001:00005d8b       ?orl@Assembler@@QAEXPAVRegisterImpl@@0@Z 08006d8b f   assembler_i486.obj
 0001:00005da2       ?sarl@Assembler@@QAEXPAVRegisterImpl@@H@Z 08006da2 f   assembler_i486.obj
 0001:00005de8       ?sarl@Assembler@@QAEXPAVRegisterImpl@@@Z 08006de8 f   assembler_i486.obj
 0001:00005e07       ?sbbl@Assembler@@QAEXPAVRegisterImpl@@0@Z 08006e07 f   assembler_i486.obj
 0001:00005e1e       ?shldl@Assembler@@QAEXPAVRegisterImpl@@0@Z 08006e1e f   assembler_i486.obj
 0001:00005e4d       ?shll@Assembler@@QAEXPAVRegisterImpl@@H@Z 08006e4d f   assembler_i486.obj
 0001:00005e93       ?shll@Assembler@@QAEXPAVRegisterImpl@@@Z 08006e93 f   assembler_i486.obj
 0001:00005eb2       ?shrdl@Assembler@@QAEXPAVRegisterImpl@@0@Z 08006eb2 f   assembler_i486.obj
 0001:00005ee1       ?shrl@Assembler@@QAEXPAVRegisterImpl@@H@Z 08006ee1 f   assembler_i486.obj
 0001:00005f0b       ?shrl@Assembler@@QAEXPAVRegisterImpl@@@Z 08006f0b f   assembler_i486.obj
 0001:00005f2a       ?subl@Assembler@@QAEXVAddress@@H@Z 08006f2a f   assembler_i486.obj
 0001:00005fbe       ?subl@Assembler@@QAEXPAVRegisterImpl@@H@Z 08006fbe f   assembler_i486.obj
 0001:00005fd8       ?subl@Assembler@@QAEXVAddress@@PAVRegisterImpl@@@Z 08006fd8 f   assembler_i486.obj
 0001:0000600d       ?subl@Assembler@@QAEXPAVRegisterImpl@@VAddress@@@Z 0800700d f   assembler_i486.obj
 0001:00006042       ?subl@Assembler@@QAEXPAVRegisterImpl@@0@Z 08007042 f   assembler_i486.obj
 0001:00006059       ?testl@Assembler@@QAEXPAVRegisterImpl@@H@Z 08007059 f   assembler_i486.obj
 0001:00006096       ?testl@Assembler@@QAEXPAVRegisterImpl@@0@Z 08007096 f   assembler_i486.obj
 0001:000060b0       ?xaddl@Assembler@@QAEXVAddress@@PAVRegisterImpl@@@Z 080070b0 f   assembler_i486.obj
 0001:000060f1       ?xorl@Assembler@@QAEXPAVRegisterImpl@@H@Z 080070f1 f   assembler_i486.obj
 0001:0000610b       ?xorl@Assembler@@QAEXPAVRegisterImpl@@0@Z 0800710b f   assembler_i486.obj
 0001:00006122       ?bswap@Assembler@@QAEXPAVRegisterImpl@@@Z 08007122 f   assembler_i486.obj
 0001:0000613e       ?lock@Assembler@@QAEXXZ    0800713e f   assembler_i486.obj
 0001:00006149       ?xchg@Assembler@@QAEXPAVRegisterImpl@@VAddress@@@Z 08007149 f   assembler_i486.obj
 0001:00006181       ?xchgl@Assembler@@QAEXPAVRegisterImpl@@0@Z 08007181 f   assembler_i486.obj
 0001:000061b1       ?cmpxchg@Assembler@@QAEXPAVRegisterImpl@@VAddress@@@Z 080071b1 f   assembler_i486.obj
 0001:000061f2       ?cmpxchg8@Assembler@@QAEXVAddress@@@Z 080071f2 f   assembler_i486.obj
 0001:00006235       ?hlt@Assembler@@QAEXXZ     08007235 f   assembler_i486.obj
 0001:00006240       ?nop@Assembler@@QAEXXZ     08007240 f   assembler_i486.obj
 0001:0000624b       ?ret@Assembler@@QAEXH@Z    0800724b f   assembler_i486.obj
 0001:0000628a       ?repne_scan@Assembler@@QAEXXZ 0800728a f   assembler_i486.obj
 0001:000062a5       ?setb@Assembler@@QAEXW4Condition@1@PAVRegisterImpl@@@Z 080072a5 f   assembler_i486.obj
 0001:000062cf       ?membar@Assembler@@QAEXXZ  080072cf f   assembler_i486.obj
 0001:0000634a       ?cpuid@Assembler@@QAEXXZ   0800734a f   assembler_i486.obj
 0001:00006362       ?call@Assembler@@QAEXAAVLabel@@W4relocType@relocInfo@@@Z 08007362 f   assembler_i486.obj
 0001:000063dd       ?call@Assembler@@QAEXPAEW4relocType@relocInfo@@@Z 080073dd f   assembler_i486.obj
 0001:00006410       ?call@Assembler@@QAEXPAEABVRelocationHolder@@@Z 08007410 f   assembler_i486.obj
 0001:00006443       ?call@Assembler@@QAEXPAVRegisterImpl@@W4relocType@relocInfo@@@Z 08007443 f   assembler_i486.obj
 0001:0000648c       ?call@Assembler@@QAEXVAddress@@@Z 0800748c f   assembler_i486.obj
 0001:000064c6       ?jmp@Assembler@@QAEXPAEW4relocType@relocInfo@@@Z 080074c6 f   assembler_i486.obj
 0001:000064f9       ?jmp@Assembler@@QAEXPAVRegisterImpl@@W4relocType@relocInfo@@@Z 080074f9 f   assembler_i486.obj
 0001:00006542       ?jmp@Assembler@@QAEXVAddress@@@Z 08007542 f   assembler_i486.obj
 0001:0000657c       ?jmp@Assembler@@QAEXAAVLabel@@W4relocType@relocInfo@@@Z 0800757c f   assembler_i486.obj
 0001:00006621       ?jcc@Assembler@@QAEXW4Condition@1@AAVLabel@@W4relocType@relocInfo@@@Z 08007621 f   assembler_i486.obj
 0001:000066ea       ?jcc@Assembler@@QAEXW4Condition@1@PAEW4relocType@relocInfo@@@Z 080076ea f   assembler_i486.obj
 0001:00006728       ?fld1@Assembler@@QAEXXZ    08007728 f   assembler_i486.obj
 0001:00006743       ?fldz@Assembler@@QAEXXZ    08007743 f   assembler_i486.obj
 0001:0000675e       ?fld_s@Assembler@@QAEXVAddress@@@Z 0800775e f   assembler_i486.obj
 0001:00006798       ?fld_s@Assembler@@QAEXH@Z  08007798 f   assembler_i486.obj
 0001:000067ae       ?fld_d@Assembler@@QAEXVAddress@@@Z 080077ae f   assembler_i486.obj
 0001:000067e8       ?fld_x@Assembler@@QAEXVAddress@@@Z 080077e8 f   assembler_i486.obj
 0001:00006822       ?fst_d@Assembler@@QAEXVAddress@@@Z 08007822 f   assembler_i486.obj
 0001:0000685c       ?fstp_s@Assembler@@QAEXVAddress@@@Z 0800785c f   assembler_i486.obj
 0001:00006896       ?fstp_d@Assembler@@QAEXVAddress@@@Z 08007896 f   assembler_i486.obj
 0001:000068d0       ?fild_s@Assembler@@QAEXVAddress@@@Z 080078d0 f   assembler_i486.obj
 0001:0000690a       ?fild_d@Assembler@@QAEXVAddress@@@Z 0800790a f   assembler_i486.obj
 0001:00006944       ?fistp_d@Assembler@@QAEXVAddress@@@Z 08007944 f   assembler_i486.obj
 0001:0000697e       ?fist_s@Assembler@@QAEXVAddress@@@Z 0800797e f   assembler_i486.obj
 0001:000069b8       ?fabs@Assembler@@QAEXXZ    080079b8 f   assembler_i486.obj
 0001:000069d3       ?fsin@Assembler@@QAEXXZ    080079d3 f   assembler_i486.obj
 0001:000069ee       ?fcos@Assembler@@QAEXXZ    080079ee f   assembler_i486.obj
 0001:00006a09       ?fsqrt@Assembler@@QAEXXZ   08007a09 f   assembler_i486.obj
 0001:00006a24       ?fchs@Assembler@@QAEXXZ    08007a24 f   assembler_i486.obj
 0001:00006a3f       ?fadd_s@Assembler@@QAEXVAddress@@@Z 08007a3f f   assembler_i486.obj
 0001:00006a79       ?fadd_d@Assembler@@QAEXVAddress@@@Z 08007a79 f   assembler_i486.obj
 0001:00006ab3       ?fsub_d@Assembler@@QAEXVAddress@@@Z 08007ab3 f   assembler_i486.obj
 0001:00006aed       ?fsub_s@Assembler@@QAEXVAddress@@@Z 08007aed f   assembler_i486.obj
 0001:00006b27       ?fsubr_s@Assembler@@QAEXVAddress@@@Z 08007b27 f   assembler_i486.obj
 0001:00006b61       ?fsubr_d@Assembler@@QAEXVAddress@@@Z 08007b61 f   assembler_i486.obj
 0001:00006b9b       ?fmul_s@Assembler@@QAEXVAddress@@@Z 08007b9b f   assembler_i486.obj
 0001:00006bd5       ?fmul_d@Assembler@@QAEXVAddress@@@Z 08007bd5 f   assembler_i486.obj
 0001:00006c0f       ?fdiv_s@Assembler@@QAEXVAddress@@@Z 08007c0f f   assembler_i486.obj
 0001:00006c49       ?fdiv_d@Assembler@@QAEXVAddress@@@Z 08007c49 f   assembler_i486.obj
 0001:00006c83       ?fdivr_s@Assembler@@QAEXVAddress@@@Z 08007c83 f   assembler_i486.obj
 0001:00006cbd       ?fdivr_d@Assembler@@QAEXVAddress@@@Z 08007cbd f   assembler_i486.obj
 0001:00006cf7       ?fdivp@Assembler@@QAEXH@Z  08007cf7 f   assembler_i486.obj
 0001:00006d0d       ?fdivrp@Assembler@@QAEXH@Z 08007d0d f   assembler_i486.obj
 0001:00006d23       ?fsubp@Assembler@@QAEXH@Z  08007d23 f   assembler_i486.obj
 0001:00006d39       ?faddp@Assembler@@QAEXH@Z  08007d39 f   assembler_i486.obj
 0001:00006d4f       ?fmulp@Assembler@@QAEXH@Z  08007d4f f   assembler_i486.obj
 0001:00006d65       ?fprem@Assembler@@QAEXXZ   08007d65 f   assembler_i486.obj
 0001:00006d80       ?fxch@Assembler@@QAEXH@Z   08007d80 f   assembler_i486.obj
 0001:00006d96       ?fincstp@Assembler@@QAEXXZ 08007d96 f   assembler_i486.obj
 0001:00006db1       ?ffree@Assembler@@QAEXH@Z  08007db1 f   assembler_i486.obj
 0001:00006dc7       ?fcomp_d@Assembler@@QAEXVAddress@@@Z 08007dc7 f   assembler_i486.obj
 0001:00006e01       ?fcompp@Assembler@@QAEXXZ  08007e01 f   assembler_i486.obj
 0001:00006e1c       ?fucomip@Assembler@@QAEXH@Z 08007e1c f   assembler_i486.obj
 0001:00006e5c       ?fnstsw_ax@Assembler@@QAEXXZ 08007e5c f   assembler_i486.obj
 0001:00006e77       ?fwait@Assembler@@QAEXXZ   08007e77 f   assembler_i486.obj
 0001:00006e82       ?fldcw@Assembler@@QAEXVAddress@@@Z 08007e82 f   assembler_i486.obj
 0001:00006ebc       ?fnstcw@Assembler@@QAEXVAddress@@@Z 08007ebc f   assembler_i486.obj
 0001:00006f02       ?fnsave@Assembler@@QAEXVAddress@@@Z 08007f02 f   assembler_i486.obj
 0001:00006f32       ?frstor@Assembler@@QAEXVAddress@@@Z 08007f32 f   assembler_i486.obj
 0001:00006f62       ?fldenv@Assembler@@QAEXVAddress@@@Z 08007f62 f   assembler_i486.obj
 0001:00006f92       ?sahf@Assembler@@QAEXXZ    08007f92 f   assembler_i486.obj
 0001:00006f9d       ?fat_nop@MacroAssembler@@QAEXXZ 08007f9d f   assembler_i486.obj
 0001:00006fd0       ?null_check@MacroAssembler@@QAEXPAVRegisterImpl@@H@Z 08007fd0 f   assembler_i486.obj
 0001:00007015       ?load_unsigned_byte@MacroAssembler@@QAEHPAVRegisterImpl@@VAddress@@@Z 08008015 f   assembler_i486.obj
 0001:00007084       ?load_unsigned_word@MacroAssembler@@QAEHPAVRegisterImpl@@VAddress@@@Z 08008084 f   assembler_i486.obj
 0001:000070f3       ?load_signed_byte@MacroAssembler@@QAEHPAVRegisterImpl@@VAddress@@@Z 080080f3 f   assembler_i486.obj
 0001:00007163       ?load_signed_word@MacroAssembler@@QAEHPAVRegisterImpl@@VAddress@@@Z 08008163 f   assembler_i486.obj
 0001:000071d3       ?extend_sign@MacroAssembler@@QAEXPAVRegisterImpl@@0@Z 080081d3 f   assembler_i486.obj
 0001:00007217       ?increment@MacroAssembler@@QAEXPAVRegisterImpl@@H@Z 08008217 f   assembler_i486.obj
 0001:0000724c       ?decrement@MacroAssembler@@QAEXPAVRegisterImpl@@H@Z 0800824c f   assembler_i486.obj
 0001:00007281       ?align@MacroAssembler@@QAEXH@Z 08008281 f   assembler_i486.obj
 0001:000072a0       ?enter@MacroAssembler@@QAEXXZ 080082a0 f   assembler_i486.obj
 0001:000072c3       ?leave@MacroAssembler@@QAEXXZ 080082c3 f   assembler_i486.obj
 0001:000072e6       ?call_VM_leaf_base@MacroAssembler@@MAEXPAEH@Z 080082e6 f   assembler_i486.obj
 0001:0000730d       ?call_VM_base@MacroAssembler@@MAEXPAVRegisterImpl@@00PAEHH@Z 0800830d f   assembler_i486.obj
 0001:000074d8       ?call_VM_helper@MacroAssembler@@IAEXPAVRegisterImpl@@PAEHH@Z 080084d8 f   assembler_i486.obj
 0001:0000753b       ?call_VM@MacroAssembler@@QAEXPAVRegisterImpl@@PAEH@Z 0800853b f   assembler_i486.obj
 0001:00007597       ?call_VM@MacroAssembler@@QAEXPAVRegisterImpl@@PAE0H@Z 08008597 f   assembler_i486.obj
 0001:000075fe       ?call_VM@MacroAssembler@@QAEXPAVRegisterImpl@@PAE00H@Z 080085fe f   assembler_i486.obj
 0001:0000766f       ?call_VM@MacroAssembler@@QAEXPAVRegisterImpl@@PAE000H@Z 0800866f f   assembler_i486.obj
 0001:000076ea       ?call_VM@MacroAssembler@@QAEXPAVRegisterImpl@@0PAEHH@Z 080086ea f   assembler_i486.obj
 0001:0000770b       ?call_VM_leaf@MacroAssembler@@QAEXPAEH@Z 0800870b f   assembler_i486.obj
 0001:0000771b       ?call_VM_leaf@MacroAssembler@@QAEXPAEPAVRegisterImpl@@@Z 0800871b f   assembler_i486.obj
 0001:00007738       ?store_check@MacroAssembler@@QAEXPAVRegisterImpl@@@Z 08008738 f   assembler_i486.obj
 0001:00007753       ?store_check@MacroAssembler@@QAEXPAVRegisterImpl@@VAddress@@@Z 08008753 f   assembler_i486.obj
 0001:0000775f       ?store_check_part_1@MacroAssembler@@QAEXPAVRegisterImpl@@@Z 0800875f f   assembler_i486.obj
 0001:0000776d       ?store_check_part_2@MacroAssembler@@QAEXPAVRegisterImpl@@@Z 0800876d f   assembler_i486.obj
 0001:000077c3       ?c2bool@MacroAssembler@@QAEXPAVRegisterImpl@@@Z 080087c3 f   assembler_i486.obj
 0001:000077e5       ?corrected_idivl@MacroAssembler@@QAEHPAVRegisterImpl@@@Z 080087e5 f   assembler_i486.obj
 0001:00007871       ?lneg@MacroAssembler@@QAEXPAVRegisterImpl@@0@Z 08008871 f   assembler_i486.obj
 0001:00007899       ?lmul@MacroAssembler@@QAEXHH@Z 08008899 f   assembler_i486.obj
 0001:00007a0d       ?lshl@MacroAssembler@@QAEXPAVRegisterImpl@@0@Z 08008a0d f   assembler_i486.obj
 0001:00007a7b       ?lshr@MacroAssembler@@QAEXPAVRegisterImpl@@0H@Z 08008a7b f   assembler_i486.obj
 0001:00007b08       ?lcmp2int@MacroAssembler@@QAEXPAVRegisterImpl@@000@Z 08008b08 f   assembler_i486.obj
 0001:00007bce       ?save_eax@MacroAssembler@@IAEXPAVRegisterImpl@@@Z 08008bce f   assembler_i486.obj
 0001:00007bfa       ?restore_eax@MacroAssembler@@IAEXPAVRegisterImpl@@@Z 08008bfa f   assembler_i486.obj
 0001:00007c26       ?fremr@MacroAssembler@@QAEXPAVRegisterImpl@@@Z 08008c26 f   assembler_i486.obj
 0001:00007c8e       ?sincos@MacroAssembler@@QAEXHHH@Z 08008c8e f   assembler_i486.obj
 0001:00007e98       ?jC2@MacroAssembler@@QAEXPAVRegisterImpl@@AAVLabel@@@Z 08008e98 f   assembler_i486.obj
 0001:00007ed7       ?fcmp@MacroAssembler@@QAEXPAVRegisterImpl@@@Z 08008ed7 f   assembler_i486.obj
 0001:00007f29       ?fcmp2int@MacroAssembler@@QAEXPAVRegisterImpl@@H@Z 08008f29 f   assembler_i486.obj
 0001:00007fe2       ?fpop@MacroAssembler@@QAEXXZ 08008fe2 f   assembler_i486.obj
 0001:00007ff5       ?sign_extend_short@MacroAssembler@@QAEXPAVRegisterImpl@@@Z 08008ff5 f   assembler_i486.obj
 0001:0000802e       ?sign_extend_byte@MacroAssembler@@QAEXPAVRegisterImpl@@@Z 0800902e f   assembler_i486.obj
 0001:0000806a       ?stop@MacroAssembler@@QAEXPBD@Z 0800906a f   assembler_i486.obj
 0001:000080b5       ?debug@MacroAssembler@@SAXHHHHHHHHHPAD@Z 080090b5 f   assembler_i486.obj
 0001:0000820e       ?empty_FPU_stack@MacroAssembler@@QAEXXZ 0800920e f   assembler_i486.obj
 0001:00008227       ?push_FPU_state@MacroAssembler@@QAEXXZ 08009227 f   assembler_i486.obj
 0001:0000826e       ?pop_FPU_state@MacroAssembler@@QAEXXZ 0800926e f   assembler_i486.obj
 0001:000082b0       ?spec@external_word_Relocation@@SA?AVRelocationHolder@@PAE@Z 080092b0 f i assembler_i486.obj
 0001:000082f6       ?set_value@DataRelocation@@UAEXPAE@Z 080092f6 f i assembler_i486.obj
 0001:0000830e       ?value@internal_word_Relocation@@UAEPAEXZ 0800930e f i assembler_i486.obj
 0001:0000830e       ?value@external_word_Relocation@@UAEPAEXZ 0800930e f i assembler_i486.obj
 0001:00008313       ?spec@internal_word_Relocation@@SA?AVRelocationHolder@@PAE@Z 08009313 f i assembler_i486.obj
 0001:00008359       ?type@internal_word_Relocation@@EAE?AW4relocType@relocInfo@@XZ 08009359 f i assembler_i486.obj
 0001:0000835d       ?force_target@internal_word_Relocation@@UAEXPAE@Z 0800935d f i assembler_i486.obj
 0001:0000836e       ?pos@Label@@ABEHXZ         0800936e f i assembler_i486.obj
 0001:00008388       ??0Address@@QAE@PAVRegisterImpl@@H@Z 08009388 f i assembler_i486.obj
 0001:000083b4       ?init@Displacement@@AAEXAAVLabel@@W4Type@1@H@Z 080093b4 f i assembler_i486.obj
 0001:000083d8       ?emit_disp@Assembler@@IAEXAAVLabel@@HH@Z 080093d8 f i assembler_i486.obj
 0001:0000840a       ?int3@Assembler@@QAEXXZ    0800940a f   assembler_win32_i486.obj
 0001:00008415       ?get_thread@MacroAssembler@@QAEXPAVRegisterImpl@@@Z 08009415 f   assembler_win32_i486.obj
 0001:00008477       ?needs_explicit_null_check@MacroAssembler@@SAHH@Z 08009477 f   assembler_win32_i486.obj
 0001:00008490       ?compare_and_exchange_byte@atomic@@SACCPACC@Z 08009490 f   atomic.obj
 0001:000084f2       ?TosState_as_index@AbstractInterpreter@@SAHW4TosState@@@Z 080094f2 f   binaryTreeDictionary.obj
 0001:000084f2       ?as_TreeChunk@TreeChunk@@SAPAV1@PAVFreeChunk@@@Z 080094f2 f   binaryTreeDictionary.obj
 0001:000084f2       ?name_for_argument@FrameMap@@SAHH@Z 080094f2 f   binaryTreeDictionary.obj
 0001:000084f7       ?as_TreeList@TreeList@@KAPAV1@PAVTreeChunk@@@Z 080094f7 f   binaryTreeDictionary.obj
 0001:0000853b       ?as_TreeList@TreeList@@KAPAV1@PAVHeapWord@@I@Z 0800953b f   binaryTreeDictionary.obj
 0001:00008558       ?removeChunkReplaceIfNeeded@TreeList@@IAEPAV1@PAVTreeChunk@@@Z 08009558 f   binaryTreeDictionary.obj
 0001:00008612       ?returnChunkAtTail@TreeList@@IAEXPAVTreeChunk@@@Z 08009612 f   binaryTreeDictionary.obj
 0001:00008635       ?head_as_TreeChunk@TreeList@@IAEPAVTreeChunk@@XZ 08009635 f   binaryTreeDictionary.obj
 0001:0000863e       ?first_available@TreeList@@IAEPAVTreeChunk@@XZ 0800963e f   binaryTreeDictionary.obj
 0001:00008678       ??0BinaryTreeDictionary@@QAE@VMemRegion@@H@Z 08009678 f   binaryTreeDictionary.obj
 0001:000086a6       ?getChunk@BinaryTreeDictionary@@UAEPAVFreeChunk@@IW4Dither@FreeBlockDictionary@@@Z 080096a6 f i binaryTreeDictionary.obj
 0001:000086e4       ?returnChunk@BinaryTreeDictionary@@UAEXPAVFreeChunk@@@Z 080096e4 f i binaryTreeDictionary.obj
 0001:000086f0       ?removeChunk@BinaryTreeDictionary@@UAEXPAVFreeChunk@@@Z 080096f0 f i binaryTreeDictionary.obj
 0001:000086fc       ?type@HintItem@@UBEPAVValueType@@XZ 080096fc f i binaryTreeDictionary.obj
 0001:000086fc       ?totalChunkSize@BinaryTreeDictionary@@UBEIXZ 080096fc f i binaryTreeDictionary.obj
 0001:00008700       ?minSize@BinaryTreeDictionary@@UBEIXZ 08009700 f i binaryTreeDictionary.obj
 0001:00008704       ?reset@BinaryTreeDictionary@@QAEXVMemRegion@@@Z 08009704 f   binaryTreeDictionary.obj
 0001:0000872a       ?reset@BinaryTreeDictionary@@UAEXPAVHeapWord@@I@Z 0800972a f   binaryTreeDictionary.obj
 0001:0000874b       ?reset@BinaryTreeDictionary@@UAEXXZ 0800974b f   binaryTreeDictionary.obj
 0001:00008757       ?getChunkFromTree@BinaryTreeDictionary@@AAEPAVTreeChunk@@IW4Dither@FreeBlockDictionary@@H@Z 08009757 f   binaryTreeDictionary.obj
 0001:00008809       ?findList@BinaryTreeDictionary@@ABEPAVTreeList@@I@Z 08009809 f   binaryTreeDictionary.obj
 0001:00008828       ?findLargestDict@BinaryTreeDictionary@@UBEPAVFreeChunk@@XZ 08009828 f   binaryTreeDictionary.obj
 0001:00008842       ?removeChunkFromTree@BinaryTreeDictionary@@AAEPAVTreeChunk@@PAV2@@Z 08009842 f   binaryTreeDictionary.obj
 0001:000088f0       ?removeTreeMinimum@BinaryTreeDictionary@@AAEPAVTreeList@@PAV2@@Z 080098f0 f   binaryTreeDictionary.obj
 0001:00008927       ?semiSplayStep@BinaryTreeDictionary@@AAEXPAVTreeList@@@Z 08009927 f   binaryTreeDictionary.obj
 0001:0000893e       ?insertChunkInTree@BinaryTreeDictionary@@AAEXPAVFreeChunk@@@Z 0800993e f   binaryTreeDictionary.obj
 0001:000089da       ?maxChunkSize@BinaryTreeDictionary@@UBEIXZ 080099da f   binaryTreeDictionary.obj
 0001:000089f1       ?protection_domain_handle@ciInstanceKlass@@MAEPAV_jobject@@XZ 080099f1 f   binaryTreeDictionary.obj
 0001:000089f1       ?numFreeBlocks@BinaryTreeDictionary@@ABEIXZ 080099f1 f   binaryTreeDictionary.obj
 0001:000089f5       ?treeHeightHelper@BinaryTreeDictionary@@ABEIPAVTreeList@@@Z 080099f5 f   binaryTreeDictionary.obj
 0001:00008a27       ?treeHeight@BinaryTreeDictionary@@ABEIXZ 08009a27 f   binaryTreeDictionary.obj
 0001:00008a30       ?dictCensusUpdate@BinaryTreeDictionary@@UAEXIHH@Z 08009a30 f   binaryTreeDictionary.obj
 0001:00008a6c       ?coalDictOverPopulated@BinaryTreeDictionary@@UAEHI@Z 08009a6c f   binaryTreeDictionary.obj
 0001:00008a8f       ?beginSweepDictCensus@BinaryTreeDictionary@@UAEXN@Z 08009a8f f   binaryTreeDictionary.obj
 0001:00008ab1       ?do_tree@AscendTreeCensusClosure@@UAEXPAVTreeList@@@Z 08009ab1 f i binaryTreeDictionary.obj
 0001:00008adb       ?do_list@BeginSweepClosure@@UAEXPAVFreeList@@@Z 08009adb f i binaryTreeDictionary.obj
 0001:00008b17       ?setTreeSurplus@BinaryTreeDictionary@@QAEXN@Z 08009b17 f   binaryTreeDictionary.obj
 0001:00008b39       ?do_list@setTreeSurplusClosure@@UAEXPAVFreeList@@@Z 08009b39 f i binaryTreeDictionary.obj
 0001:00008b57       ?setTreeHints@BinaryTreeDictionary@@QAEXXZ 08009b57 f   binaryTreeDictionary.obj
 0001:00008b74       ?do_tree@DescendTreeCensusClosure@@UAEXPAVTreeList@@@Z 08009b74 f i binaryTreeDictionary.obj
 0001:00008b9e       ?do_list@setTreeHintsClosure@@UAEXPAVFreeList@@@Z 08009b9e f i binaryTreeDictionary.obj
 0001:00008bb7       ?clearTreeCensus@BinaryTreeDictionary@@QAEXXZ 08009bb7 f   binaryTreeDictionary.obj
 0001:00008bcf       ?do_list@clearTreeCensusClosure@@EAEXPAVFreeList@@@Z 08009bcf f i binaryTreeDictionary.obj
 0001:00008bea       ?endSweepDictCensus@BinaryTreeDictionary@@UAEXN@Z 08009bea f   binaryTreeDictionary.obj
 0001:00008c0d       ?reportStatistics@BinaryTreeDictionary@@UBEXXZ 08009c0d f   binaryTreeDictionary.obj
 0001:00008cb3       ?printDictCensus@BinaryTreeDictionary@@UBEXXZ 08009cb3 f   binaryTreeDictionary.obj
 0001:00008dcb       ??0printTreeCensusClosure@@QAE@XZ 08009dcb f i binaryTreeDictionary.obj
 0001:00008df9       ?initialize@AllocationStats@@QAEXXZ 08009df9 f i binaryTreeDictionary.obj
 0001:00008e1c       ?do_list@printTreeCensusClosure@@UAEXPAVFreeList@@@Z 08009e1c f i binaryTreeDictionary.obj
 0001:00008eae       ??0BitMap@@QAE@I@Z         08009eae f   bitMap.obj
 0001:00008ec0       ?resize@BitMap@@QAEXI@Z    08009ec0 f   bitMap.obj
 0001:00008ee3       ?set_range@BitMap@@QAEXII@Z 08009ee3 f   bitMap.obj
 0001:00008f5a       ?set_range_within_word@BitMap@@AAEXII@Z 08009f5a f i bitMap.obj
 0001:00008f98       ?clear_range@BitMap@@QAEXII@Z 08009f98 f   bitMap.obj
 0001:0000900e       ?clear_range_within_word@BitMap@@AAEXII@Z 0800a00e f i bitMap.obj
 0001:0000904a       ?at_put@BitMap@@QAEXIH@Z   0800a04a f   bitMap.obj
 0001:00009088       ?par_at_put@BitMap@@QAEXIH@Z 0800a088 f   bitMap.obj
 0001:000090e1       ?par_at_put_range@BitMap@@QAEXIIH@Z 0800a0e1 f   bitMap.obj
 0001:00009170       ?par_put_range_within_word@BitMap@@AAEXIIH@Z 0800a170 f i bitMap.obj
 0001:000091e0       ?set_intersection@BitMap@@QAEXV1@@Z 0800a1e0 f   bitMap.obj
 0001:00009203       ?set_intersection_with_result@BitMap@@QAEHV1@@Z 0800a203 f   bitMap.obj
 0001:0000923d       ?set_from@BitMap@@QAEXV1@@Z 0800a23d f   bitMap.obj
 0001:00009260       ?is_same@BitMap@@QAEHV1@@Z 0800a260 f   bitMap.obj
 0001:00009295       ?clear@BitMap@@QAEXXZ      0800a295 f   bitMap.obj
 0001:000092a9       ?iterate@BitMap@@QAEXPAVBitMapClosure@@II@Z 0800a2a9 f   bitMap.obj
 0001:00009320       ?get_next_one_offset@BitMap@@QBEIII@Z 0800a320 f   bitMap.obj
 0001:00009380       ?get_next_zero_offset@BitMap@@QBEIII@Z 0800a380 f   bitMap.obj
 0001:00009418       ??0BlockOffsetSharedArray@@QAE@VMemRegion@@I@Z 0800a418 f   blockOffsetTable.obj
 0001:00009496       ?resize@BlockOffsetSharedArray@@QAEXI@Z 0800a496 f   blockOffsetTable.obj
 0001:00009507       ??0BlockOffsetArray@@QAE@PAVBlockOffsetSharedArray@@VMemRegion@@H@Z 0800a507 f   blockOffsetTable.obj
 0001:00009553       ?set_aligned_region_to_point_to_start@BlockOffsetArray@@IAEXPAVHeapWord@@0@Z 0800a553 f   blockOffsetTable.obj
 0001:000095ba       ?fix_up_alloced_region@BlockOffsetArray@@IAEXII@Z 0800a5ba f   blockOffsetTable.obj
 0001:0000961d       ?alloc_block@BlockOffsetArray@@UAEXPAVHeapWord@@0@Z 0800a61d f   blockOffsetTable.obj
 0001:0000962d       ?do_block_internal@BlockOffsetArray@@IAEXPAVHeapWord@@0W4Action@1@@Z 0800a62d f   blockOffsetTable.obj
 0001:0000974f       ?single_block@BlockOffsetArray@@QAEXPAVHeapWord@@0@Z 0800a74f f   blockOffsetTable.obj
 0001:00009761       ?alloc_block@BlockOffsetArrayNonContigSpace@@UAEXPAVHeapWord@@0@Z 0800a761 f   blockOffsetTable.obj
 0001:0000978e       ?split_block@BlockOffsetArrayNonContigSpace@@QAEXPAVHeapWord@@II@Z 0800a78e f   blockOffsetTable.obj
 0001:000097aa       ?mark_block@BlockOffsetArrayNonContigSpace@@QAEXPAVHeapWord@@0@Z 0800a7aa f   blockOffsetTable.obj
 0001:000097bc       ?block_start_unsafe@BlockOffsetArrayNonContigSpace@@UBEPAVHeapWord@@PBX@Z 0800a7bc f   blockOffsetTable.obj
 0001:00009847       ?block_start_careful@BlockOffsetArrayNonContigSpace@@QBEPAVHeapWord@@PBX@Z 0800a847 f   blockOffsetTable.obj
 0001:000098a8       ?block_start_unsafe@BlockOffsetArrayContigSpace@@UBEPAVHeapWord@@PBX@Z 0800a8a8 f   blockOffsetTable.obj
 0001:00009917       ?alloc_block_work@BlockOffsetArrayContigSpace@@AAEXPAVHeapWord@@0@Z 0800a917 f   blockOffsetTable.obj
 0001:00009976       ?initialize_threshold@BlockOffsetArrayContigSpace@@QAEPAVHeapWord@@XZ 0800a976 f   blockOffsetTable.obj
 0001:00009990       ?zero_bottom_entry@BlockOffsetArrayContigSpace@@QAEXXZ 0800a990 f   blockOffsetTable.obj
 0001:000099a3       ?set_bottom@BlockOffsetTable@@UAEXPAVHeapWord@@@Z 0800a9a3 f i blockOffsetTable.obj
 0001:000099bc       ?set_offset_array@BlockOffsetSharedArray@@IAEXPAVHeapWord@@0E@Z 0800a9bc f i blockOffsetTable.obj
 0001:000099f9       ?resize@BlockOffsetArray@@UAEXI@Z 0800a9f9 f i blockOffsetTable.obj
 0001:00009a25       ?set_code@Bytecode@@QAEXW4Code@Bytecodes@@@Z 0800aa25 f   bytecode.obj
 0001:00009a2e       ?dest_offset_at@Bytecode_tableswitch@@QBEHH@Z 0800aa2e f   bytecode.obj
 0001:00009a52       ?signature@Bytecode_invoke@@QBEPAVsymbolOopDesc@@XZ 0800aa52 f   bytecode.obj
 0001:00009a69       ?result_type@Bytecode_invoke@@QBE?AW4BasicType@@PAVThread@@@Z 0800aa69 f   bytecode.obj
 0001:00009ab1       ?static_target@Bytecode_invoke@@QAE?AVmethodHandle@@PAVThread@@@Z 0800aab1 f   bytecode.obj
 0001:00009b41       ?index@Bytecode_invoke@@QBEHXZ 0800ab41 f   bytecode.obj
 0001:00009b64       ?index@Bytecode_field@@QBEHXZ 0800ab64 f   bytecode.obj
 0001:00009b6d       ??0ResultTypeFinder@@QAE@VsymbolHandle@@@Z 0800ab6d f i bytecode.obj
 0001:00009b97       ?do_bool@SignatureInfo@@MAEXXZ 0800ab97 f i bytecode.obj
 0001:00009ba1       ?do_char@SignatureInfo@@MAEXXZ 0800aba1 f i bytecode.obj
 0001:00009bab       ?do_float@SignatureInfo@@MAEXXZ 0800abab f i bytecode.obj
 0001:00009bb5       ?do_double@SignatureInfo@@MAEXXZ 0800abb5 f i bytecode.obj
 0001:00009bbf       ?do_byte@SignatureInfo@@MAEXXZ 0800abbf f i bytecode.obj
 0001:00009bc9       ?do_short@SignatureInfo@@MAEXXZ 0800abc9 f i bytecode.obj
 0001:00009bd3       ?do_int@SignatureInfo@@MAEXXZ 0800abd3 f i bytecode.obj
 0001:00009bdd       ?do_long@SignatureInfo@@MAEXXZ 0800abdd f i bytecode.obj
 0001:00009be7       ?do_void@SignatureInfo@@MAEXXZ 0800abe7 f i bytecode.obj
 0001:00009bf1       ?do_object@SignatureInfo@@MAEXHH@Z 0800abf1 f i bytecode.obj
 0001:00009bfd       ?do_array@SignatureInfo@@MAEXHH@Z 0800abfd f i bytecode.obj
 0001:00009c09       ?set@ResultTypeFinder@@EAEXHW4BasicType@@@Z 0800ac09 f i bytecode.obj
 0001:00009c13       ?java_word_at@ThisRelativeObj@@QBEHH@Z 0800ac13 f i bytecode.obj
 0001:00009c39       ?code@Bytecode@@QBE?AW4Code@Bytecodes@@XZ 0800ac39 f i bytecode.obj
 0001:00009c4e       ?code@Bytecode_invoke@@QBE?AW4Code@Bytecodes@@XZ 0800ac4e f i bytecode.obj
 0001:00009c82       ??0BytecodeStream@@QAE@VmethodHandle@@@Z 0800ac82 f   bytecodeStream.obj
 0001:00009c9f       ?set_interval@BytecodeStream@@QAEXHH@Z 0800ac9f f   bytecodeStream.obj
 0001:00009cd1       ?non_breakpoint_code_at@Bytecodes@@SA?AW4Code@1@PAEPAVmethodOopDesc@@@Z 0800acd1 f   bytecodes.obj
 0001:00009cfb       ?special_length_at@Bytecodes@@CAHPAE@Z 0800acfb f   bytecodes.obj
 0001:00009daf       ?def@Bytecodes@@CAXW4Code@1@PBD11W4BasicType@@HHH@Z 0800adaf f   bytecodes.obj
 0001:00009dd7       ?def@Bytecodes@@CAXW4Code@1@PBD11W4BasicType@@HH0H@Z 0800add7 f   bytecodes.obj
 0001:00009e56       ?initialize@Bytecodes@@SAXXZ 0800ae56 f   bytecodes.obj
 0001:0000b1d2       ?bytecodes_init@@YAXXZ     0800c1d2 f   bytecodes.obj
 0001:0000b1d7       ?is_free@c1_AllocTable@@QBEHH@Z 0800c1d7 f   c1_AllocTable.obj
 0001:0000b1ec       ?has_one_free@c1_AllocTable@@QBEHXZ 0800c1ec f   c1_AllocTable.obj
 0001:0000b1f9       ?has_one_free_masked@c1_AllocTable@@QBEHVc1_RegMask@@@Z 0800c1f9 f   c1_AllocTable.obj
 0001:0000b212       ?has_two_free@c1_AllocTable@@QBEHXZ 0800c212 f   c1_AllocTable.obj
 0001:0000b24a       ?set_free@c1_AllocTable@@QAEXH@Z 0800c24a f   c1_AllocTable.obj
 0001:0000b25c       ?set_locked@c1_AllocTable@@QAEXH@Z 0800c25c f   c1_AllocTable.obj
 0001:0000b271       ?merge@c1_AllocTable@@QAEXPAV1@@Z 0800c271 f   c1_AllocTable.obj
 0001:0000b282       ??0RegisterManager@@QAE@XZ 0800c282 f   c1_AllocTable.obj
 0001:0000b2c2       ?lock@RegisterManager@@QAEXVRInfo@@@Z 0800c2c2 f   c1_AllocTable.obj
 0001:0000b3ba       ?is_free_reg@RegisterManager@@QAEHVRInfo@@@Z 0800c3ba f   c1_AllocTable.obj
 0001:0000b450       ?has_free_reg@RegisterManager@@QAEHW4ValueTag@@@Z 0800c450 f   c1_AllocTable.obj
 0001:0000b48e       ?lock_free_reg@RegisterManager@@QAE?AVRInfo@@W4ValueTag@@@Z 0800c48e f   c1_AllocTable.obj
 0001:0000b55f       ?num_free_cpu@RegisterManager@@QAEHXZ 0800c55f f   c1_AllocTable.obj
 0001:0000b581       ??0c1_AllocTable@@QAE@H@Z  0800c581 f   c1_AllocTable_i486.obj
 0001:0000b59d       ?init_tables@c1_AllocTable@@SAXXZ 0800c59d f   c1_AllocTable_i486.obj
 0001:0000b613       ?get_free_helper@c1_AllocTable@@AAEHH@Z 0800c613 f   c1_AllocTable_i486.obj
 0001:0000b62b       ?get_free@c1_AllocTable@@QAEHXZ 0800c62b f   c1_AllocTable_i486.obj
 0001:0000b633       ?get_free_masked@c1_AllocTable@@QAEHVc1_RegMask@@@Z 0800c633 f   c1_AllocTable_i486.obj
 0001:0000b649       ?init_cached_regs@LocalMapping@@AAEXXZ 0800c649 f   c1_CacheLocals.obj
 0001:0000b723       ?get_cache_reg@LocalMapping@@QBEPAVLIR_OprDesc@@PAV2@@Z 0800c723 f   c1_CacheLocals.obj
 0001:0000b7bc       ?get_cache_reg@LocalMapping@@QBE?AVRInfo@@HW4ValueTag@@@Z 0800c7bc f   c1_CacheLocals.obj
 0001:0000b855       ?get_cache_reg@LocalMapping@@QBE?AVRInfo@@H@Z 0800c855 f   c1_CacheLocals.obj
 0001:0000b895       ?get_cache_reg_for_local_offset@LocalMapping@@QBE?AVRInfo@@H@Z 0800c895 f   c1_CacheLocals.obj
 0001:0000b8d5       ?is_cache_reg@LocalMapping@@QBEHPAVLIR_OprDesc@@@Z 0800c8d5 f   c1_CacheLocals.obj
 0001:0000b907       ?is_cache_reg@LocalMapping@@QBEHVRInfo@@@Z 0800c907 f   c1_CacheLocals.obj
 0001:0000b931       ?add@LocalMapping@@AAEXHVRInfo@@@Z 0800c931 f   c1_CacheLocals.obj
 0001:0000b97a       ?join@LocalMapping@@QAEXPAV1@@Z 0800c97a f   c1_CacheLocals.obj
 0001:0000b9d4       ?merge@LocalMapping@@QAEXPAV1@@Z 0800c9d4 f   c1_CacheLocals.obj
 0001:0000ba5e       ?emit_transition@LocalMapping@@SAXPAVLIR_List@@PAV1@1PAVIR@@@Z 0800ca5e f   c1_CacheLocals.obj
 0001:0000bc3f       ?block_do@LocalMappingSetter@@UAEXPAVBlockBegin@@@Z 0800cc3f f   c1_CacheLocals.obj
 0001:0000bc4c       ?cache_locals_for_blocks@LIR_LocalCaching@@AAEPAVLocalMapping@@PAVBlockList@@PAVRegisterManager@@H@Z 0800cc4c f   c1_CacheLocals.obj
 0001:0000bce4       ?cache_locals@LIR_LocalCaching@@AAEXXZ 0800cce4 f   c1_CacheLocals.obj
 0001:0000bf3b       ??0LocalMapping@@QAE@PAVWordSizeList@@@Z 0800cf3b f i c1_CacheLocals.obj
 0001:0000bf7c       ??0BlockListScanInfo@@QAE@PAVBlockList@@@Z 0800cf7c f i c1_CacheLocals.obj
 0001:0000c024       ?traverse@BlockListScanInfo@@AAEXPAVBlockBegin@@PAVLIR_OpList@@@Z 0800d024 f i c1_CacheLocals.obj
 0001:0000c0dd       ?check_stack@BlockListScanInfo@@AAEXPAVValueStack@@@Z 0800d0dd f i c1_CacheLocals.obj
 0001:0000c11a       ?stack_at_dec@ValueStack@@QBEPAVInstruction@@AAH@Z 0800d11a f i c1_CacheLocals.obj
 0001:0000c13c       ?compute_caching@LIR_LocalCaching@@AAEPAVLocalMapping@@PAVALocalList@@PAVRegisterManager@@@Z 0800d13c f   c1_CacheLocals.obj
 0001:0000c341       ?sort_by_index@ALocal@@SAHPAPAV1@0@Z 0800d341 f i c1_CacheLocals.obj
 0001:0000c354       ?insert_transition_blocks@LIR_LocalCaching@@AAEXXZ 0800d354 f   c1_CacheLocals.obj
 0001:0000c398       ?block_do@BlockTransition@@UAEXPAVBlockBegin@@@Z 0800d398 f i c1_CacheLocals.obj
 0001:0000c42a       ?emit_local_mapping_transition@BlockTransition@@QAEXPAVLIR_List@@PAVLocalMapping@@1PAVIR@@@Z 0800d42a f i c1_CacheLocals.obj
 0001:0000c485       ?compute_cached_locals@LIR_LocalCaching@@QAEXXZ 0800d485 f   c1_CacheLocals.obj
 0001:0000c496       ??0LIR_LocalCaching@@QAE@PAVIR@@@Z 0800d496 f   c1_CacheLocals.obj
 0001:0000c4b3       ?add_at_all_names@LIR_LocalCaching@@SAXPAVRInfoCollection@@HVRInfo@@PAVWordSizeList@@@Z 0800d4b3 f   c1_CacheLocals.obj
 0001:0000c4f1       ??0Array@@IAE@IH@Z         0800d4f1 f i c1_CacheLocals.obj
 0001:0000c51e       ??0RInfoCollection@@QAE@XZ 0800d51e f i c1_CacheLocals.obj
 0001:0000c53d       ?push@LocalList@@QAEXQAVLocal@@@Z 0800d53d f i c1_CacheLocals.obj
 0001:0000c53d       ?push@CodeEmitInfoList@@QAEXQAVCodeEmitInfo@@@Z 0800d53d f i c1_CacheLocals.obj
 0001:0000c53d       ?push@IRScopeList@@QAEXQAVIRScope@@@Z 0800d53d f i c1_CacheLocals.obj
 0001:0000c53d       ?push@SpillElemList@@QAEXQAVSpillElem@@@Z 0800d53d f i c1_CacheLocals.obj
 0001:0000c53d       ?push@ALocalList@@QAEXQAVALocal@@@Z 0800d53d f i c1_CacheLocals.obj
 0001:0000c53d       ?push@BucketList@@QAEXQAVBucket@@@Z 0800d53d f i c1_CacheLocals.obj
 0001:0000c53d       ?push@intStack@@QAEXH@Z    0800d53d f i c1_CacheLocals.obj
 0001:0000c53d       ?push@_BlockList@@QAEXQAVBlockBegin@@@Z 0800d53d f i c1_CacheLocals.obj
 0001:0000c53d       ?push@LIR_OprRefList@@QAEXQAPAVLIR_OprDesc@@@Z 0800d53d f i c1_CacheLocals.obj
 0001:0000c53d       ?push@ExceptionInfoList@@QAEXQAVExceptionInfo@@@Z 0800d53d f i c1_CacheLocals.obj
 0001:0000c53d       ?push@LIR_OpList@@QAEXQAVLIR_Op@@@Z 0800d53d f i c1_CacheLocals.obj
 0001:0000c53d       ?push@LabelStack@@QAEXQAVLabel@@@Z 0800d53d f i c1_CacheLocals.obj
 0001:0000c53d       ?push@BlockPairList@@QAEXQAVBlockPair@@@Z 0800d53d f i c1_CacheLocals.obj
 0001:0000c53d       ?push@intxStack@@QAEXH@Z   0800d53d f i c1_CacheLocals.obj
 0001:0000c53d       ?push@FPUConstEntryList@@QAEXQAVFPUConstEntry@@@Z 0800d53d f i c1_CacheLocals.obj
 0001:0000c53d       ?push@_CodeStubList@@QAEXQAVCodeStub@@@Z 0800d53d f i c1_CacheLocals.obj
 0001:0000c53d       ?push@BasicTypeList@@QAEXW4BasicType@@@Z 0800d53d f i c1_CacheLocals.obj
 0001:0000c53d       ?push@ValueTypeList@@QAEXQAVValueType@@@Z 0800d53d f i c1_CacheLocals.obj
 0001:0000c53d       ?push@XHandlerList@@QAEXQAVXHandler@@@Z 0800d53d f i c1_CacheLocals.obj
 0001:0000c53d       ?push@BlockLoopInfoList@@QAEXQAVBlockLoopInfo@@@Z 0800d53d f i c1_CacheLocals.obj
 0001:0000c53d       ?push@_LoopList@@QAEXQAVLoop@@@Z 0800d53d f i c1_CacheLocals.obj
 0001:0000c53d       ?push@LookupRangeList@@QAEXQAVLookupRange@@@Z 0800d53d f i c1_CacheLocals.obj
 0001:0000c53d       ?push@Values@@QAEXQAVInstruction@@@Z 0800d53d f i c1_CacheLocals.obj
 0001:0000c566       ?type@LIR_OprDesc@@QBE?AW4BasicType@@XZ 0800d566 f i c1_CacheLocals.obj
 0001:0000c58b       ?is_register@LIR_OprDesc@@QBEHXZ 0800d58b f i c1_CacheLocals.obj
 0001:0000c5a8       ?rinfo@LIR_OprFact@@SAPAVLIR_OprDesc@@VRInfo@@W4BasicType@@@Z 0800d5a8 f i c1_CacheLocals.obj
 0001:0000c63a       ?reg2single_stack@LIR_List@@QAEXVRInfo@@HW4BasicType@@@Z 0800d63a f i c1_CacheLocals.obj
 0001:0000c63a       ?reg2double_stack@LIR_List@@QAEXVRInfo@@HW4BasicType@@@Z 0800d63a f i c1_CacheLocals.obj
 0001:0000c6a6       ?stack@LIR_OprFact@@SAPAVLIR_OprDesc@@HW4BasicType@@@Z 0800d6a6 f i c1_CacheLocals.obj
 0001:0000c717       ??0LIR_OpVisitState@@QAE@XZ 0800d717 f i c1_CacheLocals.obj
 0001:0000c744       ?reset@LIR_OpVisitState@@QAEXXZ 0800d744 f i c1_CacheLocals.obj
 0001:0000c75b       ?default_sux@BlockEnd@@QBEPAVBlockBegin@@XZ 0800d75b f i c1_CacheLocals.obj
 0001:0000c770       ?preferred_locals@LIR_LocalCaching@@AAEPAVLocalMapping@@PBVciMethod@@@Z 0800d770 f   c1_CacheLocals_i486.obj
 0001:0000c7cb       ?set_canonical@Canonicalizer@@AAEXPAVInstruction@@@Z 0800d7cb f   c1_Canonicalizer.obj
 0001:0000c7eb       ?move_const_to_right@Canonicalizer@@AAEXPAVOp2@@@Z 0800d7eb f   c1_Canonicalizer.obj
 0001:0000c81d       ?do_Op2@Canonicalizer@@AAEXPAVOp2@@@Z 0800d81d f   c1_Canonicalizer.obj
 0001:0000c9e9       ?set_constant@Canonicalizer@@AAEXH@Z 0800d9e9 f i c1_Canonicalizer.obj
 0001:0000ca48       ?set_constant@Canonicalizer@@AAEX_J@Z 0800da48 f i c1_Canonicalizer.obj
 0001:0000caae       ?do_ArrayLength@Canonicalizer@@UAEXPAVArrayLength@@@Z 0800daae f   c1_Canonicalizer.obj
 0001:0000cadd       ?do_NegateOp@Canonicalizer@@UAEXPAVNegateOp@@@Z 0800dadd f   c1_Canonicalizer.obj
 0001:0000cb91       ?set_constant@Canonicalizer@@AAEXM@Z 0800db91 f i c1_Canonicalizer.obj
 0001:0000cbf0       ?set_constant@Canonicalizer@@AAEXN@Z 0800dbf0 f i c1_Canonicalizer.obj
 0001:0000cc4f       ?do_ShiftOp@Canonicalizer@@UAEXPAVShiftOp@@@Z 0800dc4f f   c1_Canonicalizer.obj
 0001:0000cd1d       ?do_LogicOp@Canonicalizer@@UAEXPAVLogicOp@@@Z 0800dd1d f   c1_Canonicalizer.obj
 0001:0000cd1d       ?do_ArithmeticOp@Canonicalizer@@UAEXPAVArithmeticOp@@@Z 0800dd1d f   c1_Canonicalizer.obj
 0001:0000cd29       ?do_IfOp@Canonicalizer@@UAEXPAVIfOp@@@Z 0800dd29 f   c1_Canonicalizer.obj
 0001:0000cd35       ?do_If@Canonicalizer@@UAEXPAVIf@@@Z 0800dd35 f   c1_Canonicalizer.obj
 0001:0000d0ed       ?do_UnsafeRawOp@Canonicalizer@@AAEXPAVUnsafeRawOp@@@Z 0800e0ed f   c1_Canonicalizer.obj
 0001:0000d31d       ?do_UnsafeGetRaw@Canonicalizer@@UAEXPAVUnsafeGetRaw@@@Z 0800e31d f   c1_Canonicalizer.obj
 0001:0000d31d       ?do_UnsafePutRaw@Canonicalizer@@UAEXPAVUnsafePutRaw@@@Z 0800e31d f   c1_Canonicalizer.obj
 0001:0000d329       ?base@IntType@@UBEPAVValueType@@XZ 0800e329 f i c1_Canonicalizer.obj
 0001:0000d32f       ?tchar@IntType@@UBE?BDXZ   0800e32f f i c1_Canonicalizer.obj
 0001:0000d332       ?name@IntType@@UBEPBDXZ    0800e332 f i c1_Canonicalizer.obj
 0001:0000d338       ?base@LongType@@UBEPAVValueType@@XZ 0800e338 f i c1_Canonicalizer.obj
 0001:0000d33e       ?tchar@LongType@@UBE?BDXZ  0800e33e f i c1_Canonicalizer.obj
 0001:0000d341       ?name@LongType@@UBEPBDXZ   0800e341 f i c1_Canonicalizer.obj
 0001:0000d347       ?base@FloatType@@UBEPAVValueType@@XZ 0800e347 f i c1_Canonicalizer.obj
 0001:0000d34d       ?tchar@FloatType@@UBE?BDXZ 0800e34d f i c1_Canonicalizer.obj
 0001:0000d350       ?name@FloatType@@UBEPBDXZ  0800e350 f i c1_Canonicalizer.obj
 0001:0000d356       ?base@DoubleType@@UBEPAVValueType@@XZ 0800e356 f i c1_Canonicalizer.obj
 0001:0000d35c       ?tchar@DoubleType@@UBE?BDXZ 0800e35c f i c1_Canonicalizer.obj
 0001:0000d35f       ?name@DoubleType@@UBEPBDXZ 0800e35f f i c1_Canonicalizer.obj
 0001:0000d365       ??0Instruction@@QAE@PAVValueType@@@Z 0800e365 f i c1_Canonicalizer.obj
 0001:0000d3aa       ?name@Constant@@UBEPBDXZ   0800e3aa f i c1_Canonicalizer.obj
 0001:0000d3b0       ?visit@Constant@@UAEXPAVInstructionVisitor@@@Z 0800e3b0 f i c1_Canonicalizer.obj
 0001:0000d3bf       ??0Goto@@QAE@PAVBlockBegin@@H@Z 0800e3bf f i c1_Canonicalizer.obj
 0001:0000d417       ??0BlockEnd@@QAE@PAVValueType@@H@Z 0800e417 f i c1_Canonicalizer.obj
 0001:0000d450       ?name@Goto@@UBEPBDXZ       0800e450 f i c1_Canonicalizer.obj
 0001:0000d456       ?visit@Goto@@UAEXPAVInstructionVisitor@@@Z 0800e456 f i c1_Canonicalizer.obj
 0001:0000d465       ??0If@@QAE@PAVInstruction@@W4Condition@1@H0PAVBlockBegin@@2PAVValueStack@@H@Z 0800e465 f i c1_Canonicalizer.obj
 0001:0000d4f9       ?name@If@@UBEPBDXZ         0800e4f9 f i c1_Canonicalizer.obj
 0001:0000d4ff       ?visit@If@@UAEXPAVInstructionVisitor@@@Z 0800e4ff f i c1_Canonicalizer.obj
 0001:0000d50e       ?swap_operands@If@@QAEXXZ  0800e50e f i c1_Canonicalizer.obj
 0001:0000d52b       ?input_values_do@If@@UAEXP6AXPAPAVInstruction@@@Z@Z 0800e52b f i c1_Canonicalizer.obj
 0001:0000d544       ??0HideReg@@QAE@PAVValueGen@@VRInfo@@H@Z 0800e544 f   c1_CodeGenerator.obj
 0001:0000d5a8       ??0HideReg@@QAE@PAVValueGen@@PAVValueType@@@Z 0800e5a8 f   c1_CodeGenerator.obj
 0001:0000d5de       ??1HideReg@@QAE@XZ         0800e5de f   c1_CodeGenerator.obj
 0001:0000d601       ??0CodeGenerator@@QAE@PAVValueGen@@PAVValueGenInvariant@@@Z 0800e601 f   c1_CodeGenerator.obj
 0001:0000d61e       ?block_do_prolog@CodeGenerator@@AAEXPAVBlockBegin@@@Z 0800e61e f   c1_CodeGenerator.obj
 0001:0000d664       ?block_do_epilog@CodeGenerator@@AAEXPAVBlockBegin@@@Z 0800e664 f   c1_CodeGenerator.obj
 0001:0000d694       ?block_do@CodeGenerator@@UAEXPAVBlockBegin@@@Z 0800e694 f   c1_CodeGenerator.obj
 0001:0000d715       ?clear_instruction_items@CodeGenerator@@SAXPAVBlockBegin@@@Z 0800e715 f   c1_CodeGenerator.obj
 0001:0000d747       ?init_value_gen@ValueGen@@SAXXZ 0800e747 f   c1_CodeGenerator.obj
 0001:0000d75b       ?do_root@ValueGen@@QAEXPAVInstruction@@@Z 0800e75b f   c1_CodeGenerator.obj
 0001:0000d896       ??0Item@@QAE@PAVInstruction@@@Z 0800e896 f i c1_CodeGenerator.obj
 0001:0000d8d9       ?type@Item@@UBEPAVValueType@@XZ 0800e8d9 f i c1_CodeGenerator.obj
 0001:0000d8e0       ?set_from_item@Item@@UAEXPBV1@@Z 0800e8e0 f i c1_CodeGenerator.obj
 0001:0000d905       ??0DelayedSpillMark@@QAE@PAVValueGen@@@Z 0800e905 f i c1_CodeGenerator.obj
 0001:0000d92f       ??1DelayedSpillMark@@QAE@XZ 0800e92f f i c1_CodeGenerator.obj
 0001:0000d963       ?release_item@ValueGen@@AAEXPAVItem@@@Z 0800e963 f   c1_CodeGenerator.obj
 0001:0000d9c8       ?walk@ValueGen@@QAEXPAVInstruction@@@Z 0800e9c8 f   c1_CodeGenerator.obj
 0001:0000da0f       ?item_free@ValueGen@@AAEXPAVItem@@@Z 0800ea0f f   c1_CodeGenerator.obj
 0001:0000da62       ?sfree@ValueGen@@AAEXPAVItem@@@Z 0800ea62 f   c1_CodeGenerator.obj
 0001:0000da85       ?lock_spill_rinfo@ValueGen@@AAEXPAVInstruction@@VRInfo@@@Z 0800ea85 f   c1_CodeGenerator.obj
 0001:0000dabe       ?lock_spill_temp@ValueGen@@AAEXPAVInstruction@@VRInfo@@@Z 0800eabe f   c1_CodeGenerator.obj
 0001:0000daf7       ?spill_one@ValueGen@@AAEXPAVValueType@@@Z 0800eaf7 f   c1_CodeGenerator.obj
 0001:0000db2d       ?spill_one@ValueGen@@AAEXVc1_RegMask@@@Z 0800eb2d f   c1_CodeGenerator.obj
 0001:0000db63       ?spill_register@ValueGen@@AAEXVRInfo@@@Z 0800eb63 f   c1_CodeGenerator.obj
 0001:0000db80       ?round_spill_item@ValueGen@@AAEXPAVItem@@H@Z 0800eb80 f   c1_CodeGenerator.obj
 0001:0000dbff       ?round_item@ValueGen@@AAEXPAVItem@@@Z 0800ebff f   c1_CodeGenerator.obj
 0001:0000dc1d       ?spill_item@ValueGen@@AAEXPAVItem@@@Z 0800ec1d f   c1_CodeGenerator.obj
 0001:0000dc2b       ?spill_value@ValueGen@@AAEXPAVInstruction@@@Z 0800ec2b f   c1_CodeGenerator.obj
 0001:0000dc3a       ?try_caller_to_callee@ValueGen@@AAEHPAVInstruction@@VRInfo@@@Z 0800ec3a f   c1_CodeGenerator.obj
 0001:0000dcf5       ?spill_values_on_stack@ValueGen@@AAEXPAVValueStack@@VRInfo@@H@Z 0800ecf5 f   c1_CodeGenerator.obj
 0001:0000ddb5       ?stack_at_inc@ValueStack@@QBEPAVInstruction@@AAH@Z 0800edb5 f i c1_CodeGenerator.obj
 0001:0000ddd4       ?release_roots@ValueGen@@AAEXPAVValueStack@@@Z 0800edd4 f   c1_CodeGenerator.obj
 0001:0000de1b       ?move_spill_to@ValueGen@@AAEXHHPAVInstruction@@@Z 0800ee1b f   c1_CodeGenerator.obj
 0001:0000dec6       ?compute_phi_arrays@ValueGen@@AAEPAVInstruction@@PAVValueStack@@PAVValues@@PAVintStack@@H@Z 0800eec6 f   c1_CodeGenerator.obj
 0001:0000df23       ?move_to_phi@ValueGen@@AAEXPAVValueStack@@H@Z 0800ef23 f   c1_CodeGenerator.obj
 0001:0000e100       ??1Item@@QAE@XZ            0800f100 f i c1_CodeGenerator.obj
 0001:0000e122       ?set_register@Item@@QAEXVRInfo@@@Z 0800f122 f i c1_CodeGenerator.obj
 0001:0000e134       ??0ValueGen@@QAE@PAVItem@@PBV1@PAV0@H@Z 0800f134 f i c1_CodeGenerator.obj
 0001:0000e181       ?rlock@ValueGen@@AAE?AVRInfo@@PAVInstruction@@PBVItem@@@Z 0800f181 f   c1_CodeGenerator.obj
 0001:0000e202       ?rlock_result_with_hint@ValueGen@@AAE?AVRInfo@@PAVInstruction@@PBVItem@@@Z 0800f202 f   c1_CodeGenerator.obj
 0001:0000e233       ?set_with_result_register@ValueGen@@AAE?AVRInfo@@PAVInstruction@@@Z 0800f233 f   c1_CodeGenerator.obj
 0001:0000e275       ?set_maynot_spill@ValueGen@@AAEXPAVItem@@@Z 0800f275 f   c1_CodeGenerator.obj
 0001:0000e295       ?rfree@ValueGen@@AAEXPAVItem@@@Z 0800f295 f   c1_CodeGenerator.obj
 0001:0000e314       ?raw_rfree@ValueGen@@AAEXPAVItem@@@Z 0800f314 f   c1_CodeGenerator.obj
 0001:0000e328       ?is_free_rinfo@ValueGen@@AAEHVRInfo@@@Z 0800f328 f   c1_CodeGenerator.obj
 0001:0000e339       ?lock_free_rinfo@ValueGen@@AAE?AVRInfo@@PAVInstruction@@PAVValueType@@@Z 0800f339 f   c1_CodeGenerator.obj
 0001:0000e37a       ?lock_free_rinfo@ValueGen@@AAE?AVRInfo@@PAVInstruction@@Vc1_RegMask@@@Z 0800f37a f   c1_CodeGenerator.obj
 0001:0000e3c6       ?set_no_result@ValueGen@@AAEXPAVInstruction@@@Z 0800f3c6 f   c1_CodeGenerator.obj
 0001:0000e3d3       ?must_copy_register@ValueGen@@AAEHPAVItem@@@Z 0800f3d3 f   c1_CodeGenerator.obj
 0001:0000e3fa       ?dont_load_item@ValueGen@@AAEXPAVItem@@@Z 0800f3fa f   c1_CodeGenerator.obj
 0001:0000e427       ?dont_load_item_nocheck@ValueGen@@AAEXPAVItem@@@Z 0800f427 f   c1_CodeGenerator.obj
 0001:0000e442       ?load_item@ValueGen@@AAEXPAVItem@@@Z 0800f442 f   c1_CodeGenerator.obj
 0001:0000e4e1       ?load_item_patching@ValueGen@@AAEXPAVIRScope@@HPAVItem@@PAVValueStack@@PAVExceptionScope@@@Z 0800f4e1 f   c1_CodeGenerator.obj
 0001:0000e5a0       ?load_item_hint@ValueGen@@AAEXPAVItem@@PBV2@@Z 0800f5a0 f   c1_CodeGenerator.obj
 0001:0000e666       ?load_item_force@ValueGen@@AAEXPAVItem@@VRInfo@@@Z 0800f666 f   c1_CodeGenerator.obj
 0001:0000e71f       ?start_block@ValueGen@@QAEXPAVBlockBegin@@@Z 0800f71f f   c1_CodeGenerator.obj
 0001:0000e749       ?block_prolog@ValueGen@@QAEXPAVBlockBegin@@@Z 0800f749 f   c1_CodeGenerator.obj
 0001:0000e931       ?bind_block_entry@ValueGen@@QAEXPAVBlockBegin@@@Z 0800f931 f   c1_CodeGenerator.obj
 0001:0000e943       ?exception_handler_start@ValueGen@@QAEXPAVIRScope@@HPAVValueStack@@@Z 0800f943 f   c1_CodeGenerator.obj
 0001:0000e951       ?result_register_for@ValueGen@@SA?AVRInfo@@PAVValueType@@H@Z 0800f951 f   c1_CodeGenerator.obj
 0001:0000e9ec       ?do_Constant@ValueGen@@UAEXPAVConstant@@@Z 0800f9ec f   c1_CodeGenerator.obj
 0001:0000ea70       ?do_Local@ValueGen@@UAEXPAVLocal@@@Z 0800fa70 f   c1_CodeGenerator.obj
 0001:0000ea85       ?do_getClass@ValueGen@@AAEXPAVIntrinsic@@@Z 0800fa85 f   c1_CodeGenerator.obj
 0001:0000eb4f       ?do_StoreLocal@ValueGen@@UAEXPAVStoreLocal@@@Z 0800fb4f f   c1_CodeGenerator.obj
 0001:0000ec2c       ?do_LoadLocal@ValueGen@@UAEXPAVLoadLocal@@@Z 0800fc2c f   c1_CodeGenerator.obj
 0001:0000ec51       ?do_StoreField@ValueGen@@UAEXPAVStoreField@@@Z 0800fc51 f   c1_CodeGenerator.obj
 0001:0000ef9a       ?do_LoadField@ValueGen@@UAEXPAVLoadField@@@Z 0800ff9a f   c1_CodeGenerator.obj
 0001:0000f21b       ?do_NIOCheckIndex@ValueGen@@AAEXPAVIntrinsic@@@Z 0801021b f   c1_CodeGenerator.obj
 0001:0000f37d       ?do_ArrayLength@ValueGen@@UAEXPAVArrayLength@@@Z 0801037d f   c1_CodeGenerator.obj
 0001:0000f49f       ?do_LoadIndexed@ValueGen@@UAEXPAVLoadIndexed@@@Z 0801049f f   c1_CodeGenerator.obj
 0001:0000f771       ?do_NullCheck@ValueGen@@UAEXPAVNullCheck@@@Z 08010771 f   c1_CodeGenerator.obj
 0001:0000f840       ?do_Throw@ValueGen@@UAEXPAVThrow@@@Z 08010840 f   c1_CodeGenerator.obj
 0001:0000fa0c       ?do_UnsafeGetRaw@ValueGen@@UAEXPAVUnsafeGetRaw@@@Z 08010a0c f   c1_CodeGenerator.obj
 0001:0000fc15       ?do_UnsafePutRaw@ValueGen@@UAEXPAVUnsafePutRaw@@@Z 08010c15 f   c1_CodeGenerator.obj
 0001:0000fe50       ?do_UnsafeGetObject@ValueGen@@UAEXPAVUnsafeGetObject@@@Z 08010e50 f   c1_CodeGenerator.obj
 0001:00010026       ?do_UnsafePutObject@ValueGen@@UAEXPAVUnsafePutObject@@@Z 08011026 f   c1_CodeGenerator.obj
 0001:0001021c       ?goto_default_successor@ValueGen@@AAEXPAVBlockEnd@@@Z 0801121c f   c1_CodeGenerator.obj
 0001:000102c0       ?is_initialized@ciInstanceKlass@@QAEHXZ 080112c0 f i c1_CodeGenerator.obj
 0001:000102f1       ?is_loaded@ciObject@@QBEHXZ 080112f1 f i c1_CodeGenerator.obj
 0001:00010305       ?is_float_kind@ValueType@@QBEHXZ 08011305 f i c1_CodeGenerator.obj
 0001:00010334       ?null_check@LIR_List@@QAEXVRInfo@@PAVCodeEmitInfo@@@Z 08011334 f i c1_CodeGenerator.obj
 0001:00010395       ?throw_exception@LIR_List@@QAEXVRInfo@@0PAVCodeEmitInfo@@@Z 08011395 f i c1_CodeGenerator.obj
 0001:00010418       ?rinfo@LIR_OprFact@@SAPAVLIR_OprDesc@@VRInfo@@@Z 08011418 f i c1_CodeGenerator.obj
 0001:00010478       ?unwind_exception@LIR_List@@QAEXVRInfo@@0PAVCodeEmitInfo@@@Z 08011478 f i c1_CodeGenerator.obj
 0001:000104fb       ?is_root@Instruction@@QBEHXZ 080114fb f i c1_CodeGenerator.obj
 0001:0001050c       ?needs_patching@AccessField@@QBEHXZ 0801150c f i c1_CodeGenerator.obj
 0001:0001051e       ?syncTempRInfo@ValueGen@@CA?AVRInfo@@XZ 0801151e f   c1_CodeGenerator_i486.obj
 0001:0001051e       ?divInRInfo@ValueGen@@CA?AVRInfo@@XZ 0801151e f   c1_CodeGenerator_i486.obj
 0001:0001051e       ?return1RInfo@ValueGen@@CA?AVRInfo@@XZ 0801151e f   c1_CodeGenerator_i486.obj
 0001:0001051e       ?icKlassRInfo@ValueGen@@CA?AVRInfo@@XZ 0801151e f   c1_CodeGenerator_i486.obj
 0001:0001051e       ?divOutRInfo@ValueGen@@CA?AVRInfo@@XZ 0801151e f   c1_CodeGenerator_i486.obj
 0001:0001051e       ?exceptionOopRInfo@ValueGen@@CA?AVRInfo@@XZ 0801151e f   c1_CodeGenerator_i486.obj
 0001:0001051e       ?callee_return1RInfo@ValueGen@@CA?AVRInfo@@XZ 0801151e f   c1_CodeGenerator_i486.obj
 0001:0001052b       ?exceptionPcRInfo@ValueGen@@CA?AVRInfo@@XZ 0801152b f   c1_CodeGenerator_i486.obj
 0001:0001052b       ?remOutRInfo@ValueGen@@CA?AVRInfo@@XZ 0801152b f   c1_CodeGenerator_i486.obj
 0001:00010538       ?receiverRInfo@ValueGen@@SA?AVRInfo@@XZ 08011538 f   c1_CodeGenerator_i486.obj
 0001:00010538       ?shiftCountRInfo@ValueGen@@CA?AVRInfo@@XZ 08011538 f   c1_CodeGenerator_i486.obj
 0001:00010545       ?return2RInfo@ValueGen@@CA?AVRInfo@@XZ 08011545 f   c1_CodeGenerator_i486.obj
 0001:00010545       ?callee_return2RInfo@ValueGen@@CA?AVRInfo@@XZ 08011545 f   c1_CodeGenerator_i486.obj
 0001:00010552       ?returnF0RInfo@ValueGen@@CA?AVRInfo@@XZ 08011552 f   c1_CodeGenerator_i486.obj
 0001:0001055f       ?returnD0RInfo@ValueGen@@CA?AVRInfo@@XZ 0801155f f   c1_CodeGenerator_i486.obj
 0001:0001056c       ?nonReturnRInfo@ValueGen@@CA?AVRInfo@@XZ 0801156c f   c1_CodeGenerator_i486.obj
 0001:00010579       ?check_float_register@ValueGen@@AAEXPAVItem@@@Z 08011579 f   c1_CodeGenerator_i486.obj
 0001:00010600       ?load_byte_item@ValueGen@@AAEXPAVItem@@@Z 08011600 f   c1_CodeGenerator_i486.obj
 0001:00010694       ?rlock_byte_result_with_hint@ValueGen@@AAE?AVRInfo@@PAVInstruction@@PBVItem@@@Z 08011694 f   c1_CodeGenerator_i486.obj
 0001:0001074e       ?fpu_fanout_handled@ValueGen@@AAEHPAVItem@@@Z 0801174e f   c1_CodeGenerator_i486.obj
 0001:000107dc       ?scratch1_RInfo@ValueGen@@ABE?AVRInfo@@XZ 080117dc f   c1_CodeGenerator_i486.obj
 0001:000107eb       ?do_StoreIndexed@ValueGen@@UAEXPAVStoreIndexed@@@Z 080117eb f   c1_CodeGenerator_i486.obj
 0001:00010bac       ?do_MonitorEnter@ValueGen@@UAEXPAVMonitorEnter@@@Z 08011bac f   c1_CodeGenerator_i486.obj
 0001:00010d37       ?do_MonitorExit@ValueGen@@UAEXPAVMonitorExit@@@Z 08011d37 f   c1_CodeGenerator_i486.obj
 0001:00010e34       ?must_round@ValueGen@@AAEHPAVInstruction@@PBVItem@@@Z 08011e34 f   c1_CodeGenerator_i486.obj
 0001:00010e94       ?is_32bit_mode@ValueGen@@AAEHXZ 08011e94 f   c1_CodeGenerator_i486.obj
 0001:00010ea4       ?do_NegateOp@ValueGen@@UAEXPAVNegateOp@@@Z 08011ea4 f   c1_CodeGenerator_i486.obj
 0001:00010f55       ?do_ArithmeticOp_FPU@ValueGen@@AAEXPAVArithmeticOp@@@Z 08011f55 f   c1_CodeGenerator_i486.obj
 0001:0001113e       ?do_ArithmeticOp_Long@ValueGen@@AAEXPAVArithmeticOp@@@Z 0801213e f   c1_CodeGenerator_i486.obj
 0001:0001151f       ?do_ArithmeticOp_Int@ValueGen@@AAEXPAVArithmeticOp@@@Z 0801251f f   c1_CodeGenerator_i486.obj
 0001:000119ef       ?do_ArithmeticOp@ValueGen@@UAEXPAVArithmeticOp@@@Z 080129ef f   c1_CodeGenerator_i486.obj
 0001:00011a47       ?do_ShiftOp@ValueGen@@UAEXPAVShiftOp@@@Z 08012a47 f   c1_CodeGenerator_i486.obj
 0001:00011bcb       ?do_LogicOp@ValueGen@@UAEXPAVLogicOp@@@Z 08012bcb f   c1_CodeGenerator_i486.obj
 0001:00011cc8       ?do_CompareOp@ValueGen@@UAEXPAVCompareOp@@@Z 08012cc8 f   c1_CodeGenerator_i486.obj
 0001:00011e92       ?do_IfOp@ValueGen@@UAEXPAVIfOp@@@Z 08012e92 f   c1_CodeGenerator_i486.obj
 0001:000121ff       ?do_MathIntrinsic@ValueGen@@AAEXPAVIntrinsic@@@Z 080131ff f   c1_CodeGenerator_i486.obj
 0001:000122b8       ?do_ArrayCopy@ValueGen@@AAEXPAVIntrinsic@@@Z 080132b8 f   c1_CodeGenerator_i486.obj
 0001:00012531       ?do_Intrinsic@ValueGen@@UAEXPAVIntrinsic@@@Z 08013531 f   c1_CodeGenerator_i486.obj
 0001:000128a3       ?do_Convert@ValueGen@@UAEXPAVConvert@@@Z 080138a3 f   c1_CodeGenerator_i486.obj
 0001:00012aad       ?do_CachingChange@ValueGen@@UAEXPAVCachingChange@@@Z 08013aad f   c1_CodeGenerator_i486.obj
 0001:00012add       ?invoke_visit_arguments@ValueGen@@AAEPAVItemArray@@PAVInvoke@@PAVCallingConvention@@@Z 08013add f   c1_CodeGenerator_i486.obj
 0001:00012b6c       ?invoke_load_arguments@ValueGen@@AAEXPAVInvoke@@PAVItemArray@@PAVCallingConvention@@@Z 08013b6c f   c1_CodeGenerator_i486.obj
 0001:00012bf7       ?invoke_do_spill@ValueGen@@AAEXPAVInvoke@@VRInfo@@@Z 08013bf7 f   c1_CodeGenerator_i486.obj
 0001:00012c0c       ?invoke_do_result@ValueGen@@AAEXPAVInvoke@@HPAVItem@@@Z 08013c0c f   c1_CodeGenerator_i486.obj
 0001:00012d4f       ?do_Invoke@ValueGen@@UAEXPAVInvoke@@@Z 08013d4f f   c1_CodeGenerator_i486.obj
 0001:00012eca       ?do_NewInstance@ValueGen@@UAEXPAVNewInstance@@@Z 08013eca f   c1_CodeGenerator_i486.obj
 0001:00012ff7       ?do_NewTypeArray@ValueGen@@UAEXPAVNewTypeArray@@@Z 08013ff7 f   c1_CodeGenerator_i486.obj
 0001:0001317a       ?do_NewObjectArray@ValueGen@@UAEXPAVNewObjectArray@@@Z 0801417a f   c1_CodeGenerator_i486.obj
 0001:0001335d       ?do_NewMultiArray@ValueGen@@UAEXPAVNewMultiArray@@@Z 0801435d f   c1_CodeGenerator_i486.obj
 0001:00013550       ?do_CheckCast@ValueGen@@UAEXPAVCheckCast@@@Z 08014550 f   c1_CodeGenerator_i486.obj
 0001:00013738       ?do_InstanceOf@ValueGen@@UAEXPAVInstanceOf@@@Z 08014738 f   c1_CodeGenerator_i486.obj
 0001:0001389a       ?do_Goto@ValueGen@@UAEXPAVGoto@@@Z 0801489a f   c1_CodeGenerator_i486.obj
 0001:000138e1       ?do_If@ValueGen@@UAEXPAVIf@@@Z 080148e1 f   c1_CodeGenerator_i486.obj
 0001:00013bd7       ?do_IfInstanceOf@ValueGen@@UAEXPAVIfInstanceOf@@@Z 08014bd7 f   c1_CodeGenerator_i486.obj
 0001:00013d96       ?setup_phis_for_switch@ValueGen@@AAEXPAVItem@@PAVValueStack@@@Z 08014d96 f   c1_CodeGenerator_i486.obj
 0001:00013e1d       ?do_TableSwitch@ValueGen@@UAEXPAVTableSwitch@@@Z 08014e1d f   c1_CodeGenerator_i486.obj
 0001:00013f6e       ?do_LookupSwitch@ValueGen@@UAEXPAVLookupSwitch@@@Z 08014f6e f   c1_CodeGenerator_i486.obj
 0001:000141be       ?do_Return@ValueGen@@UAEXPAVReturn@@@Z 080151be f   c1_CodeGenerator_i486.obj
 0001:00014324       ?do_Base@ValueGen@@UAEXPAVBase@@@Z 08015324 f   c1_CodeGenerator_i486.obj
 0001:00014373       ?do_currentThread@ValueGen@@AAEXPAVIntrinsic@@@Z 08015373 f   c1_CodeGenerator_i486.obj
 0001:000143c8       ?intConst@LIR_OprFact@@SAPAVLIR_OprDesc@@H@Z 080153c8 f i c1_CodeGenerator_i486.obj
 0001:000143f8       ?get_thread@LIR_List@@QAEXVRInfo@@@Z 080153f8 f i c1_CodeGenerator_i486.obj
 0001:0001443f       ?branch_destination@LIR_List@@QAEXPAVLabel@@@Z 0801543f f i c1_CodeGenerator_i486.obj
 0001:00014485       ?add@LIR_List@@QAEXPAVLIR_OprDesc@@00@Z 08015485 f i c1_CodeGenerator_i486.obj
 0001:000144ea       ?call_runtime_leaf@LIR_List@@QAEXPAEVRInfo@@HH@Z 080154ea f i c1_CodeGenerator_i486.obj
 0001:0001454f       ?usux@If@@QBEPAVBlockBegin@@XZ 0801554f f i c1_CodeGenerator_i486.obj
 0001:00014564       ?hi_key@TableSwitch@@QBEHXZ 08015564 f i c1_CodeGenerator_i486.obj
 0001:00014579       ?inline_cache_check@C1_CodePatterns@@QAEXPAVRegisterImpl@@0@Z 08015579 f   c1_CodePatterns_i486.obj
 0001:000145d4       ?method_exit@C1_CodePatterns@@QAEXH@Z 080155d4 f   c1_CodePatterns_i486.obj
 0001:00014627       ?build_frame@C1_CodePatterns@@QAEXH@Z 08015627 f   c1_CodePatterns_i486.obj
 0001:0001464f       ?exception_handler@C1_CodePatterns@@QAEXHH@Z 0801564f f   c1_CodePatterns_i486.obj
 0001:000146b5       ?fast_ObjectHashCode@C1_CodePatterns@@QAEXPAVRegisterImpl@@0@Z 080156b5 f   c1_CodePatterns_i486.obj
 0001:0001473e       ?unverified_entry@C1_CodePatterns@@QAEXPAVRegisterImpl@@0@Z 0801573e f   c1_CodePatterns_i486.obj
 0001:0001474e       ?verified_entry@C1_CodePatterns@@QAEXXZ 0801574e f   c1_CodePatterns_i486.obj
 0001:0001475b       ?emit_code@StaticCallStub@@UAEXPAVLIR_Assembler@@@Z 0801575b f   c1_CodeStubs_i486.obj
 0001:000147d7       ??0RangeCheckStub@@QAE@PAVCodeEmitInfo@@VRInfo@@HH@Z 080157d7 f   c1_CodeStubs_i486.obj
 0001:0001482e       ?visit@RangeCheckStub@@UAEXPAVLIR_OpVisitState@@@Z 0801582e f i c1_CodeStubs_i486.obj
 0001:00014856       ?emit_code@RangeCheckStub@@UAEXPAVLIR_Assembler@@@Z 08015856 f   c1_CodeStubs_i486.obj
 0001:000148da       ?emit_code@DivByZeroStub@@UAEXPAVLIR_Assembler@@@Z 080158da f   c1_CodeStubs_i486.obj
 0001:00014963       ??0NewInstanceStub@@QAE@VRInfo@@PAVCodeEmitInfo@@@Z 08015963 f   c1_CodeStubs_i486.obj
 0001:000149aa       ?visit@NewInstanceStub@@UAEXPAVLIR_OpVisitState@@@Z 080159aa f i c1_CodeStubs_i486.obj
 0001:000149d9       ?emit_code@NewInstanceStub@@UAEXPAVLIR_Assembler@@@Z 080159d9 f   c1_CodeStubs_i486.obj
 0001:00014a47       ??0NewTypeArrayStub@@QAE@W4BasicType@@VRInfo@@1PAVCodeEmitInfo@@@Z 08015a47 f   c1_CodeStubs_i486.obj
 0001:00014a99       ?info@NewTypeArrayStub@@UBEPAVCodeEmitInfo@@XZ 08015a99 f i c1_CodeStubs_i486.obj
 0001:00014a99       ?info@NewObjectArrayStub@@UBEPAVCodeEmitInfo@@XZ 08015a99 f i c1_CodeStubs_i486.obj
 0001:00014a9d       ?visit@NewTypeArrayStub@@UAEXPAVLIR_OpVisitState@@@Z 08015a9d f i c1_CodeStubs_i486.obj
 0001:00014adc       ?emit_code@NewTypeArrayStub@@UAEXPAVLIR_Assembler@@@Z 08015adc f   c1_CodeStubs_i486.obj
 0001:00014b4d       ??0NewObjectArrayStub@@QAE@VRInfo@@00PAVCodeEmitInfo@@@Z 08015b4d f   c1_CodeStubs_i486.obj
 0001:00014baa       ?visit@NewObjectArrayStub@@UAEXPAVLIR_OpVisitState@@@Z 08015baa f i c1_CodeStubs_i486.obj
 0001:00014bf9       ?emit_code@NewObjectArrayStub@@UAEXPAVLIR_Assembler@@@Z 08015bf9 f   c1_CodeStubs_i486.obj
 0001:00014c70       ??0MonitorEnterStub@@QAE@VRInfo@@0PAVCodeEmitInfo@@@Z 08015c70 f   c1_CodeStubs_i486.obj
 0001:00014cb1       ??0MonitorAccessStub@@QAE@VRInfo@@0@Z 08015cb1 f i c1_CodeStubs_i486.obj
 0001:00014cda       ?visit@MonitorAccessStub@@UAEXPAVLIR_OpVisitState@@@Z 08015cda f i c1_CodeStubs_i486.obj
 0001:00014d0e       ?info@MonitorEnterStub@@UBEPAVCodeEmitInfo@@XZ 08015d0e f i c1_CodeStubs_i486.obj
 0001:00014d12       ?visit@MonitorEnterStub@@UAEXPAVLIR_OpVisitState@@@Z 08015d12 f i c1_CodeStubs_i486.obj
 0001:00014d30       ?emit_code@MonitorEnterStub@@UAEXPAVLIR_Assembler@@@Z 08015d30 f   c1_CodeStubs_i486.obj
 0001:00014ddc       ?emit_code@MonitorExitStub@@UAEXPAVLIR_Assembler@@@Z 08015ddc f   c1_CodeStubs_i486.obj
 0001:00014e40       ?align_patch_site@PatchingStub@@AAEXPAVMacroAssembler@@@Z 08015e40 f   c1_CodeStubs_i486.obj
 0001:00014e4e       ?emit_code@PatchingStub@@UAEXPAVLIR_Assembler@@@Z 08015e4e f   c1_CodeStubs_i486.obj
 0001:00014ff1       ??0ClassCastExceptionStub@@QAE@VRInfo@@PAVCodeEmitInfo@@@Z 08015ff1 f   c1_CodeStubs_i486.obj
 0001:00015012       ?visit@ClassCastExceptionStub@@UAEXPAVLIR_OpVisitState@@@Z 08016012 f i c1_CodeStubs_i486.obj
 0001:0001503a       ?emit_code@ClassCastExceptionStub@@UAEXPAVLIR_Assembler@@@Z 0801603a f   c1_CodeStubs_i486.obj
 0001:0001509e       ??0ArrayStoreExceptionStub@@QAE@PAVCodeEmitInfo@@@Z 0801609e f   c1_CodeStubs_i486.obj
 0001:000150b8       ?emit_code@ArrayStoreExceptionStub@@UAEXPAVLIR_Assembler@@@Z 080160b8 f   c1_CodeStubs_i486.obj
 0001:000150fd       ?visit@ArrayCopyStub@@UAEXPAVLIR_OpVisitState@@@Z 080160fd f i c1_CodeStubs_i486.obj
 0001:0001517b       ?emit_code@ArrayCopyStub@@UAEXPAVLIR_Assembler@@@Z 0801617b f   c1_CodeStubs_i486.obj
 0001:00015190       ?spec@static_stub_Relocation@@SA?AVRelocationHolder@@PAE@Z 08016190 f i c1_CodeStubs_i486.obj
 0001:000151e3       ?append@LIR_OpVisitState@@QAEXVRInfo@@@Z 080161e3 f i c1_CodeStubs_i486.obj
 0001:000152dd       ?initialize@Compilation@@AAEXXZ 080162dd f   c1_Compilation.obj
 0001:00015321       ?initialize_oop_maps@Compilation@@AAEXXZ 08016321 f   c1_Compilation.obj
 0001:00015331       ?build_hir@Compilation@@AAEXXZ 08016331 f   c1_Compilation.obj
 0001:000153c7       ?init_framemap@Compilation@@AAEXPAVFrameMap@@@Z 080163c7 f   c1_Compilation.obj
 0001:00015440       ?emit_lir@Compilation@@AAEXXZ 08016440 f   c1_Compilation.obj
 0001:00015525       ?emit_code_prolog_native@Compilation@@AAEXPAVFrameMap@@@Z 08016525 f   c1_Compilation.obj
 0001:000155d1       ?emit_code_prolog_non_native@Compilation@@AAEXPAVFrameMap@@@Z 080165d1 f   c1_Compilation.obj
 0001:00015609       ?emit_code_epilog@Compilation@@AAEXPAVLIR_Assembler@@@Z 08016609 f   c1_Compilation.obj
 0001:00015679       ?get_init_vars@Compilation@@QAEPAVintStack@@XZ 08016679 f   c1_Compilation.obj
 0001:000156c2       ?emit_code_body@Compilation@@AAEHPAVCodeOffsets@@@Z 080166c2 f   c1_Compilation.obj
 0001:0001573e       ?compile_java_method@Compilation@@AAEHPAVCodeOffsets@@@Z 0801673e f   c1_Compilation.obj
 0001:0001584e       ?emit_code_for_native@Compilation@@AAEXPAEPAVCodeOffsets@@@Z 0801684e f   c1_Compilation.obj
 0001:00015947       ??0CodeEmitInfo@@QAE@PAVIRScope@@HPAVintStack@@@Z 08016947 f i c1_Compilation.obj
 0001:0001597a       ?compile_native_method@Compilation@@AAEHPAVCodeOffsets@@@Z 0801697a f   c1_Compilation.obj
 0001:00015998       ?is_optimized_library_method@Compilation@@QBEHXZ 08016998 f   c1_Compilation.obj
 0001:000159c2       ?compile_library_method@Compilation@@AAEHPAVCodeOffsets@@@Z 080169c2 f   c1_Compilation.obj
 0001:00015a82       ?install_code@Compilation@@AAEXPAVCodeOffsets@@H@Z 08016a82 f   c1_Compilation.obj
 0001:00015ac1       ?compile_method@Compilation@@AAEXXZ 08016ac1 f   c1_Compilation.obj
 0001:00015b50       ?generate_exception_range_table@Compilation@@AAEXXZ 08016b50 f   c1_Compilation.obj
 0001:00015bc1       ?add_exception_range_entries@Compilation@@AAEXHHPAVExceptionScope@@HPAPAV2@PAH@Z 08016bc1 f   c1_Compilation.obj
 0001:00015c82       ??0Compilation@@QAE@PAVciEnv@@PAVciMethod@@HPAVC1_MacroAssembler@@@Z 08016c82 f   c1_Compilation.obj
 0001:00015d62       ??1Compilation@@QAE@XZ     08016d62 f   c1_Compilation.obj
 0001:00015d8b       ?add_exception_handlers_for_pco@Compilation@@QAEXHHPAVExceptionScope@@@Z 08016d8b f   c1_Compilation.obj
 0001:00015dc3       ?notice_inlined_method@Compilation@@QAEXPAVciMethod@@@Z 08016dc3 f   c1_Compilation.obj
 0001:00015dd1       ?bailout@Compilation@@QAEXPBD@Z 08016dd1 f   c1_Compilation.obj
 0001:00015de1       ?print_timers@Compilation@@SAXXZ 08016de1 f   c1_Compilation.obj
 0001:0001607b       ?lir_opr_for_instruction@Compilation@@QAEPAVLIR_OprDesc@@PAVInstruction@@@Z 0801707b f   c1_Compilation.obj
 0001:00016119       ?value_stack2lir_stack@Compilation@@QAEPAV?$GrowableArray@PAVLIR_OprDesc@@@@PAVValueStack@@@Z 08017119 f   c1_Compilation.obj
 0001:00016193       ?item2lir@Compilation@@QAEPAVLIR_OprDesc@@PBVItem@@@Z 08017193 f   c1_Compilation.obj
 0001:00016277       ?item2stack@Compilation@@QAEHPBVItem@@@Z 08017277 f   c1_Compilation.obj
 0001:000162c9       ??0ExceptionInfo@@QAE@HHPAVExceptionScope@@@Z 080172c9 f   c1_Compilation.obj
 0001:000162e2       ?jvmpi_event_method_enabled@Compilation@@QBEHXZ 080172e2 f i c1_Compilation.obj
 0001:00016304       ?double_stack@LIR_OprFact@@SAPAVLIR_OprDesc@@HW4BasicType@@@Z 08017304 f i c1_Compilation.obj
 0001:00016314       ?osr_entry@IR@@QBEPAVBlockBegin@@XZ 08017314 f i c1_Compilation.obj
 0001:0001632c       ?osr_entry@Base@@QBEPAVBlockBegin@@XZ 0801732c f i c1_Compilation.obj
 0001:00016347       ??0Compiler@@QAE@XZ        08017347 f   c1_Compiler.obj
 0001:00016354       ?compile_adapter@AbstractCompiler@@UAEXPAVciEnv@@PAVciMethod@@H@Z 08017354 f i c1_Compiler.obj
 0001:00016366       ?name@Compiler@@UAEPBDXZ   08017366 f i c1_Compiler.obj
 0001:0001636c       ?initialize@Compiler@@UAEXXZ 0801736c f   c1_Compiler.obj
 0001:000163b1       ?compile_method@Compiler@@UAEXPAVciEnv@@PAVciScope@@PAVciMethod@@HH@Z 080173b1 f   c1_Compiler.obj
 0001:00016404       ?print_timers@Compiler@@UAEXXZ 08017404 f   c1_Compiler.obj
 0001:00016409       ?compiler1_init@@YAXXZ     08017409 f   c1_Compiler.obj
 0001:00016424       ?bang_stack_with_offset@MacroAssembler@@UAEXH@Z 08017424 f i c1_Compiler.obj
 0001:00016463       ?signature_type_array_for@FrameMap@@SAPAVBasicTypeList@@PBVciMethod@@@Z 08017463 f   c1_FrameMap.obj
 0001:00016505       ?cpu_rnr2reg@FrameMap@@CAPAVRegisterImpl@@H@Z 08017505 f   c1_FrameMap.obj
 0001:00016511       ?cpu_reg2rnr@FrameMap@@CAHPAVRegisterImpl@@@Z 08017511 f   c1_FrameMap.obj
 0001:00016548       ?caller_save_cpu_reg_at@FrameMap@@SAPAVLIR_OprDesc@@H@Z 08017548 f   c1_FrameMap.obj
 0001:00016563       ?calling_convention@FrameMap@@SAPAVCallingConvention@@PBVciMethod@@PAVintArray@@@Z 08017563 f   c1_FrameMap.obj
 0001:00016587       ?add_spill_slots@FrameMap@@QAEXH@Z 08017587 f   c1_FrameMap.obj
 0001:00016591       ?set_local_name_to_offset_map@FrameMap@@QAEXPAVWordSizeList@@@Z 08017591 f   c1_FrameMap.obj
 0001:0001659b       ?num_local_names@FrameMap@@QBEHXZ 0801759b f   c1_FrameMap.obj
 0001:00016645       ??0FpuStackSim@FrameMap@@QAE@XZ 08017645 f   c1_FrameMap_i486.obj
 0001:00016698       ?pop@FpuStackSim@FrameMap@@QAEHH@Z 08017698 f   c1_FrameMap_i486.obj
 0001:000166c5       ?push@FpuStackSim@FrameMap@@QAEXH@Z 080176c5 f   c1_FrameMap_i486.obj
 0001:000166e1       ?swap@FpuStackSim@FrameMap@@QAEXXZ 080176e1 f   c1_FrameMap_i486.obj
 0001:000166e9       ?offset_from_tos@FpuStackSim@FrameMap@@QBEHH@Z 080176e9 f   c1_FrameMap_i486.obj
 0001:00016748       ?exchange_with_tos@FpuStackSim@FrameMap@@AAEXH@Z 08017748 f   c1_FrameMap_i486.obj
 0001:00016775       ?move_on_tos@FpuStackSim@FrameMap@@QAEHH@Z 08017775 f   c1_FrameMap_i486.obj
 0001:00016793       ?clear@FpuStackSim@FrameMap@@QAEXXZ 08017793 f   c1_FrameMap_i486.obj
 0001:000167a9       ??0FrameMap@@QAE@H@Z       080177a9 f   c1_FrameMap_i486.obj
 0001:000167df       ?init@FrameMap@@SAXXZ      080177df f   c1_FrameMap_i486.obj
 0001:0001692b       ?calling_convention@FrameMap@@SAPAVCallingConvention@@HABVBasicTypeArray@@PAVintArray@@@Z 0801792b f   c1_FrameMap_i486.obj
 0001:00016b58       ?framesize@FrameMap@@QBEHXZ 08017b58 f   c1_FrameMap_i486.obj
 0001:00016b6e       ?is_byte_rinfo@FrameMap@@SAHVRInfo@@@Z 08017b6e f   c1_FrameMap_i486.obj
 0001:00016b9e       ?fp_offset_for_slot@FrameMap@@ABEHH@Z 08017b9e f   c1_FrameMap_i486.obj
 0001:00016bb8       ?local_to_slot@FrameMap@@ABEHHH@Z 08017bb8 f   c1_FrameMap_i486.obj
 0001:00016bd2       ?fp_offset_for_name@FrameMap@@ABEHHHH@Z 08017bd2 f   c1_FrameMap_i486.obj
 0001:00016c1e       ?fp_offset_for_monitor_lock@FrameMap@@ABEHH@Z 08017c1e f   c1_FrameMap_i486.obj
 0001:00016c32       ?fp_offset_for_monitor_object@FrameMap@@ABEHH@Z 08017c32 f   c1_FrameMap_i486.obj
 0001:00016c45       ?make_new_address@FrameMap@@ABE?AVAddress@@H@Z 08017c45 f   c1_FrameMap_i486.obj
 0001:00016c74       ?location_for_fp_offset@FrameMap@@ABEHHW4Type@Location@@PAV3@@Z 08017c74 f   c1_FrameMap_i486.obj
 0001:00016cc7       ?fp2sp_offset@FrameMap@@ABEHH@Z 08017cc7 f   c1_FrameMap_i486.obj
 0001:00016cd7       ?spill_name@FrameMap@@QBEHH@Z 08017cd7 f   c1_FrameMap_i486.obj
 0001:00016ce3       ?address_for_name@FrameMap@@QBE?AVAddress@@HHH@Z 08017ce3 f   c1_FrameMap_i486.obj
 0001:00016d19       ?address_for_monitor_lock_index@FrameMap@@QBE?AVAddress@@H@Z 08017d19 f   c1_FrameMap_i486.obj
 0001:00016d49       ?address_for_monitor_object_index@FrameMap@@QBE?AVAddress@@H@Z 08017d49 f   c1_FrameMap_i486.obj
 0001:00016d79       ?location_for_monitor_lock_index@FrameMap@@QBEHHPAVLocation@@@Z 08017d79 f   c1_FrameMap_i486.obj
 0001:00016d97       ?location_for_monitor_object_index@FrameMap@@QBEHHPAVLocation@@@Z 08017d97 f   c1_FrameMap_i486.obj
 0001:00016db5       ?location_for_name@FrameMap@@QBEHHW4Type@Location@@PAV3@HH@Z 08017db5 f   c1_FrameMap_i486.obj
 0001:00016ddc       ?location_for_local_offset@FrameMap@@QBEHHW4Type@Location@@PAV3@@Z 08017ddc f   c1_FrameMap_i486.obj
 0001:00016dfc       ?are_adjacent_indeces@FrameMap@@QBEHHH@Z 08017dfc f   c1_FrameMap_i486.obj
 0001:00016e34       ?single_word_regname@FrameMap@@QBE?AW4Name@OptoReg@@H@Z 08017e34 f   c1_FrameMap_i486.obj
 0001:00016e58       ?monitor_object_regname@FrameMap@@QBE?AW4Name@OptoReg@@H@Z 08017e58 f   c1_FrameMap_i486.obj
 0001:00016e78       ?fpu_stack_regname@FrameMap@@SA?AW4Name@OptoReg@@H@Z 08017e78 f   c1_FrameMap_i486.obj
 0001:00016e81       ?fpu_regname@FrameMap@@QAE?AW4Name@OptoReg@@H@Z 08017e81 f   c1_FrameMap_i486.obj
 0001:00016e94       ?first_register@FrameMap@@SAPAVRegisterImpl@@XZ 08017e94 f   c1_FrameMap_i486.obj
 0001:00016e9f       ?set_register_location@ArgumentLocation@@AAEXH@Z 08017e9f f   c1_FrameMap_i486.obj
 0001:00016eb4       ?remove@_LoopList@@QAEXPAVLoop@@@Z 08017eb4 f i c1_FrameMap_i486.obj
 0001:00016eb4       ?remove@intStack@@QAEXH@Z  08017eb4 f i c1_FrameMap_i486.obj
 0001:00016eb4       ?remove@LabelStack@@QAEXPAVLabel@@@Z 08017eb4 f i c1_FrameMap_i486.obj
 0001:00016eef       ??0ArgumentLocation@@AAE@DH@Z 08017eef f i c1_FrameMap_i486.obj
 0001:00016f32       ?new_stack_arg@ArgumentLocation@@SA?AV1@H@Z 08017f32 f i c1_FrameMap_i486.obj
 0001:00016f4a       ??0CallingConvention@@AAE@H@Z 08017f4a f i c1_FrameMap_i486.obj
 0001:00016f72       ?new_block_at@BlockListBuilder@@AAEPAVBlockBegin@@HW4Flag@2@@Z 08017f72 f   c1_GraphBuilder.obj
 0001:00016fc0       ?set_leaders@BlockListBuilder@@AAEXXZ 08017fc0 f   c1_GraphBuilder.obj
 0001:00017168       ?next@ciBytecodeStream@@QAE?AW4Code@Bytecodes@@XZ 08018168 f i c1_GraphBuilder.obj
 0001:000171c1       ?dest@ciBytecodeStream@@QBEHXZ 080181c1 f i c1_GraphBuilder.obj
 0001:000171e0       ?dest_w@ciBytecodeStream@@QBEHXZ 080181e0 f i c1_GraphBuilder.obj
 0001:000171fa       ?set_xhandler_entries@BlockListBuilder@@AAEXXZ 080181fa f   c1_GraphBuilder.obj
 0001:00017238       ??0BlockListBuilder@@QAE@PAVIRScope@@HH@Z 08018238 f   c1_GraphBuilder.obj
 0001:000172af       ??0ScopeData@GraphBuilder@@QAE@PAV01@@Z 080182af f   c1_GraphBuilder.obj
 0001:0001730f       ?block_at@ScopeData@GraphBuilder@@QAEPAVBlockBegin@@H@Z 0801830f f   c1_GraphBuilder.obj
 0001:00017392       ?xhandlers@ScopeData@GraphBuilder@@QBEPAVXHandlers@@XZ 08018392 f   c1_GraphBuilder.obj
 0001:000173a0       ?set_scope@ScopeData@GraphBuilder@@QAEXPAVIRScope@@@Z 080183a0 f   c1_GraphBuilder.obj
 0001:000173c8       ?set_inline_cleanup_info@ScopeData@GraphBuilder@@QAEXPAVBlockBegin@@PAVInstruction@@PAVValueStack@@@Z 080183c8 f   c1_GraphBuilder.obj
 0001:000173e0       ?add_to_work_list@ScopeData@GraphBuilder@@QAEXPAVBlockBegin@@@Z 080183e0 f   c1_GraphBuilder.obj
 0001:00017433       ?caller_stack_size@ScopeData@GraphBuilder@@QBEHXZ 08018433 f   c1_GraphBuilder.obj
 0001:00017442       ?remove_from_work_list@ScopeData@GraphBuilder@@QAEPAVBlockBegin@@XZ 08018442 f   c1_GraphBuilder.obj
 0001:00017461       ?is_work_list_empty@ScopeData@GraphBuilder@@QBEHXZ 08018461 f   c1_GraphBuilder.obj
 0001:00017474       ?setup_jsr_xhandlers@ScopeData@GraphBuilder@@QAEXXZ 08018474 f   c1_GraphBuilder.obj
 0001:000174d4       ?num_returns@ScopeData@GraphBuilder@@QAEHXZ 080184d4 f   c1_GraphBuilder.obj
 0001:000174e2       ?incr_num_returns@ScopeData@GraphBuilder@@QAEXXZ 080184e2 f   c1_GraphBuilder.obj
 0001:000174f0       ?load_constant@GraphBuilder@@AAEXXZ 080184f0 f   c1_GraphBuilder.obj
 0001:00017716       ?push@ValueStack@@QAEXPAVValueType@@PAVInstruction@@@Z 08018716 f i c1_GraphBuilder.obj
 0001:0001776f       ?load_local@GraphBuilder@@AAEXPAVValueType@@H@Z 0801876f f   c1_GraphBuilder.obj
 0001:000177f5       ?store_local@GraphBuilder@@AAEXPAVValueType@@H@Z 080187f5 f   c1_GraphBuilder.obj
 0001:0001781d       ?pop@ValueStack@@QAEPAVInstruction@@PAVValueType@@@Z 0801881d f i c1_GraphBuilder.obj
 0001:00017878       ?lpop@ValueStack@@QAEPAVInstruction@@XZ 08018878 f i c1_GraphBuilder.obj
 0001:00017878       ?dpop@ValueStack@@QAEPAVInstruction@@XZ 08018878 f i c1_GraphBuilder.obj
 0001:00017888       ?store_local@GraphBuilder@@AAEXPAVValueStack@@PAVInstruction@@PAVValueType@@HH@Z 08018888 f   c1_GraphBuilder.obj
 0001:0001799e       ?load_indexed@GraphBuilder@@AAEXW4BasicType@@@Z 0801899e f   c1_GraphBuilder.obj
 0001:00017a15       ?apop@GraphBuilder@@ABEPAVInstruction@@XZ 08018a15 f i c1_GraphBuilder.obj
 0001:00017a15       ?ipop@GraphBuilder@@ABEPAVInstruction@@XZ 08018a15 f i c1_GraphBuilder.obj
 0001:00017a15       ?fpop@GraphBuilder@@ABEPAVInstruction@@XZ 08018a15 f i c1_GraphBuilder.obj
 0001:00017a26       ?store_indexed@GraphBuilder@@AAEXW4BasicType@@@Z 08018a26 f   c1_GraphBuilder.obj
 0001:00017ab1       ?stack_op@GraphBuilder@@AAEXW4Code@Bytecodes@@@Z 08018ab1 f   c1_GraphBuilder.obj
 0001:00017d2a       ?arithmetic_op@GraphBuilder@@AAEXPAVValueType@@W4Code@Bytecodes@@PAVValueStack@@@Z 08018d2a f   c1_GraphBuilder.obj
 0001:00017d9d       ?negate_op@GraphBuilder@@AAEXPAVValueType@@@Z 08018d9d f   c1_GraphBuilder.obj
 0001:00017de6       ?shift_op@GraphBuilder@@AAEXPAVValueType@@W4Code@Bytecodes@@@Z 08018de6 f   c1_GraphBuilder.obj
 0001:00017f5a       ?logic_op@GraphBuilder@@AAEXPAVValueType@@W4Code@Bytecodes@@@Z 08018f5a f   c1_GraphBuilder.obj
 0001:00017fb8       ?compare_op@GraphBuilder@@AAEXPAVValueType@@W4Code@Bytecodes@@@Z 08018fb8 f   c1_GraphBuilder.obj
 0001:00018041       ?convert@GraphBuilder@@AAEXW4Code@Bytecodes@@W4BasicType@@1@Z 08019041 f   c1_GraphBuilder.obj
 0001:000180b8       ?increment@GraphBuilder@@AAEXXZ 080190b8 f   c1_GraphBuilder.obj
 0001:00018194       ?get_index@ciBytecodeStream@@QBEHXZ 08019194 f i c1_GraphBuilder.obj
 0001:000181c6       ?if_node@GraphBuilder@@AAEXPAVInstruction@@W4Condition@2@0PAVValueStack@@@Z 080191c6 f   c1_GraphBuilder.obj
 0001:0001824f       ?if_zero@GraphBuilder@@AAEXPAVValueType@@W4Condition@Instruction@@@Z 0801924f f   c1_GraphBuilder.obj
 0001:000182b4       ?if_null@GraphBuilder@@AAEXPAVValueType@@W4Condition@Instruction@@@Z 080192b4 f   c1_GraphBuilder.obj
 0001:00018319       ?if_same@GraphBuilder@@AAEXPAVValueType@@W4Condition@Instruction@@@Z 08019319 f   c1_GraphBuilder.obj
 0001:00018356       ?jsr@GraphBuilder@@AAEXH@Z 08019356 f   c1_GraphBuilder.obj
 0001:00018405       ?ret@GraphBuilder@@AAEXH@Z 08019405 f   c1_GraphBuilder.obj
 0001:0001845e       ?table_switch@GraphBuilder@@AAEXXZ 0801945e f   c1_GraphBuilder.obj
 0001:000186a9       ?lookup_switch@GraphBuilder@@AAEXXZ 080196a9 f   c1_GraphBuilder.obj
 0001:00018946       ?method_return@GraphBuilder@@AAEXPAVInstruction@@@Z 08019946 f   c1_GraphBuilder.obj
 0001:00018a36       ?access_field@GraphBuilder@@AAEXW4Code@Bytecodes@@@Z 08019a36 f   c1_GraphBuilder.obj
 0001:00018d35       ?add_dependent@GraphBuilder@@AAEXPAVciInstanceKlass@@PAVciMethod@@@Z 08019d35 f   c1_GraphBuilder.obj
 0001:00018d57       ?invoke@GraphBuilder@@AAEXW4Code@Bytecodes@@@Z 08019d57 f   c1_GraphBuilder.obj
 0001:00018fdc       ?new_instance@GraphBuilder@@AAEXH@Z 08019fdc f   c1_GraphBuilder.obj
 0001:00019022       ?new_type_array@GraphBuilder@@AAEXXZ 0801a022 f   c1_GraphBuilder.obj
 0001:0001907a       ?new_object_array@GraphBuilder@@AAEXXZ 0801a07a f   c1_GraphBuilder.obj
 0001:000190f0       ?direct_compare@GraphBuilder@@AAEHPAVciKlass@@@Z 0801a0f0 f   c1_GraphBuilder.obj
 0001:0001913a       ?check_cast@GraphBuilder@@AAEXH@Z 0801a13a f   c1_GraphBuilder.obj
 0001:000191ce       ?instance_of@GraphBuilder@@AAEXH@Z 0801a1ce f   c1_GraphBuilder.obj
 0001:00019262       ?monitorenter@GraphBuilder@@AAEXPAVInstruction@@@Z 0801a262 f   c1_GraphBuilder.obj
 0001:000192ba       ?monitorexit@GraphBuilder@@AAEXPAVInstruction@@@Z 0801a2ba f   c1_GraphBuilder.obj
 0001:00019311       ?new_multi_array@GraphBuilder@@AAEXH@Z 0801a311 f   c1_GraphBuilder.obj
 0001:000193db       ?throw_op@GraphBuilder@@AAEXXZ 0801a3db f   c1_GraphBuilder.obj
 0001:00019433       ?append_base@GraphBuilder@@AAEPAVInstruction@@PAV2@@Z 0801a433 f   c1_GraphBuilder.obj
 0001:0001954c       ?append@GraphBuilder@@AAEPAVInstruction@@PAV2@@Z 0801a54c f   c1_GraphBuilder.obj
 0001:0001954c       ?append_split@GraphBuilder@@AAEPAVInstruction@@PAVStateSplit@@@Z 0801a54c f   c1_GraphBuilder.obj
 0001:00019558       ?bailout@GraphBuilder@@AAEXPBD@Z 0801a558 f   c1_GraphBuilder.obj
 0001:00019562       ?handle_exception@GraphBuilder@@AAEXH@Z 0801a562 f   c1_GraphBuilder.obj
 0001:0001973c       ?connect_to_end@GraphBuilder@@AAEPAVBlockEnd@@PAVBlockBegin@@@Z 0801a73c f   c1_GraphBuilder.obj
 0001:0001976c       ?iterate_bytecodes_for_block@GraphBuilder@@AAEPAVBlockEnd@@H@Z 0801a76c f   c1_GraphBuilder.obj
 0001:0001a825       ?iterate_all_blocks@GraphBuilder@@AAEXH@Z 0801b825 f   c1_GraphBuilder.obj
 0001:0001a87a       ?initialize@GraphBuilder@@SAXXZ 0801b87a f   c1_GraphBuilder.obj
 0001:0001aa00       ??0GraphBuilder@@QAE@PAVCompilation@@PAVIRScope@@PAVBlockList@@PAVBlockBegin@@@Z 0801ba00 f   c1_GraphBuilder.obj
 0001:0001aa61       ?push_exception_scope@GraphBuilder@@AAEXXZ 0801ba61 f   c1_GraphBuilder.obj
 0001:0001aa93       ?pop_exception_scope@GraphBuilder@@AAEXXZ 0801ba93 f   c1_GraphBuilder.obj
 0001:0001aaa3       ?lock_stack@GraphBuilder@@AAEPAVValueStack@@XZ 0801baa3 f   c1_GraphBuilder.obj
 0001:0001aaab       ?recursive_inline_level@GraphBuilder@@ABEHPAVciMethod@@@Z 0801baab f   c1_GraphBuilder.obj
 0001:0001aac8       ?try_inline@GraphBuilder@@AAEHPAVciMethod@@@Z 0801bac8 f   c1_GraphBuilder.obj
 0001:0001ab40       ?try_inline_intrinsics@GraphBuilder@@AAEHPAVciMethod@@@Z 0801bb40 f   c1_GraphBuilder.obj
 0001:0001ae4d       ?try_inline_jsr@GraphBuilder@@AAEHH@Z 0801be4d f   c1_GraphBuilder.obj
 0001:0001af85       ?try_inline_full@GraphBuilder@@AAEHPAVciMethod@@@Z 0801bf85 f   c1_GraphBuilder.obj
 0001:0001b3ce       ?inline_bailout@GraphBuilder@@AAEXPBD@Z 0801c3ce f   c1_GraphBuilder.obj
 0001:0001b3d8       ?clear_inline_bailout@GraphBuilder@@AAEXXZ 0801c3d8 f   c1_GraphBuilder.obj
 0001:0001b3dd       ?push_root_scope@GraphBuilder@@AAEXPAVIRScope@@PAVBlockList@@PAVBlockBegin@@@Z 0801c3dd f   c1_GraphBuilder.obj
 0001:0001b425       ?push_scope@GraphBuilder@@AAEXPAVciMethod@@PAVBlockBegin@@@Z 0801c425 f   c1_GraphBuilder.obj
 0001:0001b4d7       ?push_scope_for_jsr@GraphBuilder@@AAEXPAVBlockBegin@@H@Z 0801c4d7 f   c1_GraphBuilder.obj
 0001:0001b5b0       ?pop_scope@GraphBuilder@@AAEXXZ 0801c5b0 f   c1_GraphBuilder.obj
 0001:0001b5bb       ?pop_scope_for_jsr@GraphBuilder@@AAEXXZ 0801c5bb f   c1_GraphBuilder.obj
 0001:0001b5c2       ?append_unsafe_get_obj32@GraphBuilder@@AAEXPAVciMethod@@W4BasicType@@@Z 0801c5c2 f   c1_GraphBuilder.obj
 0001:0001b65f       ?append_unsafe_put_obj32@GraphBuilder@@AAEXPAVciMethod@@W4BasicType@@@Z 0801c65f f   c1_GraphBuilder.obj
 0001:0001b6ea       ?append_unsafe_get_obj@GraphBuilder@@AAEXPAVciMethod@@W4BasicType@@@Z 0801c6ea f   c1_GraphBuilder.obj
 0001:0001b7d3       ?append_unsafe_put_obj@GraphBuilder@@AAEXPAVciMethod@@W4BasicType@@@Z 0801c7d3 f   c1_GraphBuilder.obj
 0001:0001b8aa       ?append_unsafe_get_raw@GraphBuilder@@AAEXPAVciMethod@@W4BasicType@@@Z 0801c8aa f   c1_GraphBuilder.obj
 0001:0001b942       ?append_unsafe_put_raw@GraphBuilder@@AAEXPAVciMethod@@W4BasicType@@@Z 0801c942 f   c1_GraphBuilder.obj
 0001:0001b9d0       ?length_at@Bytecodes@@SAHPAE@Z 0801c9d0 f i c1_GraphBuilder.obj
 0001:0001b9fd       ?offset@LookupswitchPair@@QBEHXZ 0801c9fd f i c1_GraphBuilder.obj
 0001:0001ba05       ?default_offset@Bytecode_tableswitch@@QBEHXZ 0801ca05 f i c1_GraphBuilder.obj
 0001:0001ba05       ?default_offset@Bytecode_lookupswitch@@QBEHXZ 0801ca05 f i c1_GraphBuilder.obj
 0001:0001ba13       ?low_key@Bytecode_tableswitch@@QBEHXZ 0801ca13 f i c1_GraphBuilder.obj
 0001:0001ba13       ?number_of_pairs@Bytecode_lookupswitch@@QBEHXZ 0801ca13 f i c1_GraphBuilder.obj
 0001:0001ba21       ?high_key@Bytecode_tableswitch@@QBEHXZ 0801ca21 f i c1_GraphBuilder.obj
 0001:0001ba2f       ?has_subklass@ciInstanceKlass@@QAEHXZ 0801ca2f f i c1_GraphBuilder.obj
 0001:0001ba4d       ?is_final_method@ciMethod@@QBEHXZ 0801ca4d f i c1_GraphBuilder.obj
 0001:0001ba64       ?base@ObjectType@@UBEPAVValueType@@XZ 0801ca64 f i c1_GraphBuilder.obj
 0001:0001ba6a       ?tchar@ObjectType@@UBE?BDXZ 0801ca6a f i c1_GraphBuilder.obj
 0001:0001ba6d       ?name@ObjectType@@UBEPBDXZ 0801ca6d f i c1_GraphBuilder.obj
 0001:0001ba73       ?base@AddressType@@UBEPAVValueType@@XZ 0801ca73 f i c1_GraphBuilder.obj
 0001:0001ba79       ?tchar@AddressType@@UBE?BDXZ 0801ca79 f i c1_GraphBuilder.obj
 0001:0001ba7c       ?name@AddressType@@UBEPBDXZ 0801ca7c f i c1_GraphBuilder.obj
 0001:0001ba82       ??0ValueSetList@@QAE@HQAVValueSet@@@Z 0801ca82 f i c1_GraphBuilder.obj
 0001:0001ba82       ??0Values@@QAE@HQAVInstruction@@@Z 0801ca82 f i c1_GraphBuilder.obj
 0001:0001ba82       ??0intStack@@QAE@HH@Z      0801ca82 f i c1_GraphBuilder.obj
 0001:0001ba82       ??0BlockLoopInfoList@@QAE@HQAVBlockLoopInfo@@@Z 0801ca82 f i c1_GraphBuilder.obj
 0001:0001ba82       ??0_BlockList@@QAE@HQAVBlockBegin@@@Z 0801ca82 f i c1_GraphBuilder.obj
 0001:0001baba       ??0Phi@@QAE@PAVValueType@@@Z 0801caba f i c1_GraphBuilder.obj
 0001:0001badd       ?name@Phi@@UBEPBDXZ        0801cadd f i c1_GraphBuilder.obj
 0001:0001bae3       ?visit@Phi@@UAEXPAVInstructionVisitor@@@Z 0801cae3 f i c1_GraphBuilder.obj
 0001:0001baf1       ?hash@Phi@@UBEHXZ          0801caf1 f i c1_GraphBuilder.obj
 0001:0001bb04       ?is_equal@Phi@@UBEHPAVInstruction@@@Z 0801cb04 f i c1_GraphBuilder.obj
 0001:0001bb25       ?name@LoadLocal@@UBEPBDXZ  0801cb25 f i c1_GraphBuilder.obj
 0001:0001bb2b       ?visit@LoadLocal@@UAEXPAVInstructionVisitor@@@Z 0801cb2b f i c1_GraphBuilder.obj
 0001:0001bb3a       ??0StoreLocal@@QAE@PAVLocal@@PAVInstruction@@H@Z 0801cb3a f i c1_GraphBuilder.obj
 0001:0001bb87       ?name@StoreLocal@@UBEPBDXZ 0801cb87 f i c1_GraphBuilder.obj
 0001:0001bb8d       ?visit@StoreLocal@@UAEXPAVInstructionVisitor@@@Z 0801cb8d f i c1_GraphBuilder.obj
 0001:0001bb9c       ?input_values_do@StoreLocal@@UAEXP6AXPAPAVInstruction@@@Z@Z 0801cb9c f i c1_GraphBuilder.obj
 0001:0001bbc1       ??0AccessField@@QAE@PAVInstruction@@HPAVciField@@HPAVValueStack@@HH@Z 0801cbc1 f i c1_GraphBuilder.obj
 0001:0001bc5a       ?from_space@PSYoungGen@@QBEPAVMutableSpace@@XZ 0801cc5a f i c1_GraphBuilder.obj
 0001:0001bc5a       ?lock_stack@AccessField@@UBEPAVValueStack@@XZ 0801cc5a f i c1_GraphBuilder.obj
 0001:0001bc5e       ?set_lock_stack@AccessField@@UAEXPAVValueStack@@@Z 0801cc5e f i c1_GraphBuilder.obj
 0001:0001bc68       ?name@LoadField@@UBEPBDXZ  0801cc68 f i c1_GraphBuilder.obj
 0001:0001bc6e       ?visit@LoadField@@UAEXPAVInstructionVisitor@@@Z 0801cc6e f i c1_GraphBuilder.obj
 0001:0001bc7d       ?hash@LoadField@@UBEHXZ    0801cc7d f i c1_GraphBuilder.obj
 0001:0001bca3       ?is_equal@LoadField@@UBEHPAVInstruction@@@Z 0801cca3 f i c1_GraphBuilder.obj
 0001:0001bcd6       ??0StoreField@@QAE@PAVInstruction@@HPAVciField@@0HPAVValueStack@@HH@Z 0801ccd6 f i c1_GraphBuilder.obj
 0001:0001bd35       ?name@StoreField@@UBEPBDXZ 0801cd35 f i c1_GraphBuilder.obj
 0001:0001bd3b       ?visit@StoreField@@UAEXPAVInstructionVisitor@@@Z 0801cd3b f i c1_GraphBuilder.obj
 0001:0001bd4a       ?input_values_do@StoreField@@UAEXP6AXPAPAVInstruction@@@Z@Z 0801cd4a f i c1_GraphBuilder.obj
 0001:0001bd63       ?set_lock_stack@NullCheck@@UAEXPAVValueStack@@@Z 0801cd63 f i c1_GraphBuilder.obj
 0001:0001bd63       ?set_lock_stack@AccessArray@@UAEXPAVValueStack@@@Z 0801cd63 f i c1_GraphBuilder.obj
 0001:0001bd6d       ??0ArrayLength@@QAE@PAVInstruction@@PAVValueStack@@@Z 0801cd6d f i c1_GraphBuilder.obj
 0001:0001bd93       ??0AccessArray@@QAE@PAVValueType@@PAVInstruction@@PAVValueStack@@@Z 0801cd93 f i c1_GraphBuilder.obj
 0001:0001bdc1       ?name@ArrayLength@@UBEPBDXZ 0801cdc1 f i c1_GraphBuilder.obj
 0001:0001bdc7       ?visit@ArrayLength@@UAEXPAVInstructionVisitor@@@Z 0801cdc7 f i c1_GraphBuilder.obj
 0001:0001bdd6       ?hash@ArrayLength@@UBEHXZ  0801cdd6 f i c1_GraphBuilder.obj
 0001:0001bde9       ?is_equal@ArrayLength@@UBEHPAVInstruction@@@Z 0801cde9 f i c1_GraphBuilder.obj
 0001:0001be0a       ??0AccessIndexed@@QAE@PAVInstruction@@00W4BasicType@@PAVValueStack@@@Z 0801ce0a f i c1_GraphBuilder.obj
 0001:0001be4a       ?input_values_do@AccessIndexed@@UAEXP6AXPAPAVInstruction@@@Z@Z 0801ce4a f i c1_GraphBuilder.obj
 0001:0001be72       ?name@LoadIndexed@@UBEPBDXZ 0801ce72 f i c1_GraphBuilder.obj
 0001:0001be78       ?visit@LoadIndexed@@UAEXPAVInstructionVisitor@@@Z 0801ce78 f i c1_GraphBuilder.obj
 0001:0001be87       ?hash@LoadIndexed@@UBEHXZ  0801ce87 f i c1_GraphBuilder.obj
 0001:0001bea4       ?is_equal@LoadIndexed@@UBEHPAVInstruction@@@Z 0801cea4 f i c1_GraphBuilder.obj
 0001:0001bed1       ??0StoreIndexed@@QAE@PAVInstruction@@00W4BasicType@@0PAVValueStack@@@Z 0801ced1 f i c1_GraphBuilder.obj
 0001:0001bf46       ?name@StoreIndexed@@UBEPBDXZ 0801cf46 f i c1_GraphBuilder.obj
 0001:0001bf4c       ?visit@StoreIndexed@@UAEXPAVInstructionVisitor@@@Z 0801cf4c f i c1_GraphBuilder.obj
 0001:0001bf5b       ?input_values_do@StoreIndexed@@UAEXP6AXPAPAVInstruction@@@Z@Z 0801cf5b f i c1_GraphBuilder.obj
 0001:0001bf74       ??0NegateOp@@QAE@PAVInstruction@@@Z 0801cf74 f i c1_GraphBuilder.obj
 0001:0001bf9b       ?name@NegateOp@@UBEPBDXZ   0801cf9b f i c1_GraphBuilder.obj

 0001:0001bfa1       ?visit@NegateOp@@UAEXPAVInstructionVisitor@@@Z 0801cfa1 f i c1_GraphBuilder.obj
 0001:0001bfb0       ?input_values_do@UnsafeOp@@UAEXP6AXPAPAVInstruction@@@Z@Z 0801cfb0 f i c1_GraphBuilder.obj
 0001:0001bfb0       ?input_values_do@AccessField@@UAEXP6AXPAPAVInstruction@@@Z@Z 0801cfb0 f i c1_GraphBuilder.obj
 0001:0001bfb0       ?input_values_do@AccessLocal@@UAEXP6AXPAPAVInstruction@@@Z@Z 0801cfb0 f i c1_GraphBuilder.obj
 0001:0001bfb0       ?input_values_do@NegateOp@@UAEXP6AXPAPAVInstruction@@@Z@Z 0801cfb0 f i c1_GraphBuilder.obj
 0001:0001bfb0       ?input_values_do@NullCheck@@UAEXP6AXPAPAVInstruction@@@Z@Z 0801cfb0 f i c1_GraphBuilder.obj
 0001:0001bfb0       ?input_values_do@AccessArray@@UAEXP6AXPAPAVInstruction@@@Z@Z 0801cfb0 f i c1_GraphBuilder.obj
 0001:0001bfbc       ?input_values_do@Op2@@UAEXP6AXPAPAVInstruction@@@Z@Z 0801cfbc f i c1_GraphBuilder.obj
 0001:0001bfd5       ??0ArithmeticOp@@QAE@W4Code@Bytecodes@@PAVInstruction@@1HPAVValueStack@@@Z 0801cfd5 f i c1_GraphBuilder.obj
 0001:0001c03b       ?name@ArithmeticOp@@UBEPBDXZ 0801d03b f i c1_GraphBuilder.obj
 0001:0001c041       ?visit@ArithmeticOp@@UAEXPAVInstructionVisitor@@@Z 0801d041 f i c1_GraphBuilder.obj
 0001:0001c050       ?set_lock_stack@ArithmeticOp@@UAEXPAVValueStack@@@Z 0801d050 f i c1_GraphBuilder.obj
 0001:0001c05a       ??0ShiftOp@@QAE@W4Code@Bytecodes@@PAVInstruction@@1@Z 0801d05a f i c1_GraphBuilder.obj
 0001:0001c08f       ?name@ShiftOp@@UBEPBDXZ    0801d08f f i c1_GraphBuilder.obj
 0001:0001c095       ?visit@ShiftOp@@UAEXPAVInstructionVisitor@@@Z 0801d095 f i c1_GraphBuilder.obj
 0001:0001c0a4       ?is_equal@LogicOp@@UBEHPAVInstruction@@@Z 0801d0a4 f i c1_GraphBuilder.obj
 0001:0001c0a4       ?is_equal@ArithmeticOp@@UBEHPAVInstruction@@@Z 0801d0a4 f i c1_GraphBuilder.obj
 0001:0001c0a4       ?is_equal@ShiftOp@@UBEHPAVInstruction@@@Z 0801d0a4 f i c1_GraphBuilder.obj
 0001:0001c0a4       ?is_equal@CompareOp@@UBEHPAVInstruction@@@Z 0801d0a4 f i c1_GraphBuilder.obj
 0001:0001c0d9       ??0LogicOp@@QAE@W4Code@Bytecodes@@PAVInstruction@@1@Z 0801d0d9 f i c1_GraphBuilder.obj
 0001:0001c115       ?name@LogicOp@@UBEPBDXZ    0801d115 f i c1_GraphBuilder.obj
 0001:0001c11b       ?visit@LogicOp@@UAEXPAVInstructionVisitor@@@Z 0801d11b f i c1_GraphBuilder.obj
 0001:0001c12a       ?hash@ShiftOp@@UBEHXZ      0801d12a f i c1_GraphBuilder.obj
 0001:0001c12a       ?hash@CompareOp@@UBEHXZ    0801d12a f i c1_GraphBuilder.obj
 0001:0001c12a       ?hash@LogicOp@@UBEHXZ      0801d12a f i c1_GraphBuilder.obj
 0001:0001c12a       ?hash@ArithmeticOp@@UBEHXZ 0801d12a f i c1_GraphBuilder.obj
 0001:0001c151       ?name@CompareOp@@UBEPBDXZ  0801d151 f i c1_GraphBuilder.obj
 0001:0001c157       ?visit@CompareOp@@UAEXPAVInstructionVisitor@@@Z 0801d157 f i c1_GraphBuilder.obj
 0001:0001c166       ?name@Convert@@UBEPBDXZ    0801d166 f i c1_GraphBuilder.obj
 0001:0001c16c       ?visit@Convert@@UAEXPAVInstructionVisitor@@@Z 0801d16c f i c1_GraphBuilder.obj
 0001:0001c17b       ?hash@Convert@@UBEHXZ      0801d17b f i c1_GraphBuilder.obj
 0001:0001c198       ?is_equal@Convert@@UBEHPAVInstruction@@@Z 0801d198 f i c1_GraphBuilder.obj
 0001:0001c1c5       ??0NullCheck@@QAE@PAVInstruction@@PAVValueStack@@@Z 0801d1c5 f i c1_GraphBuilder.obj
 0001:0001c1f4       ?as_OpAllocObj@LIR_OpAllocObj@@UAEPAV1@XZ 0801d1f4 f i c1_GraphBuilder.obj
 0001:0001c1f4       ?as_UnsafeGetRaw@UnsafeGetRaw@@UAEPAV1@XZ 0801d1f4 f i c1_GraphBuilder.obj
 0001:0001c1f4       ?as_NegateOp@NegateOp@@UAEPAV1@XZ 0801d1f4 f i c1_GraphBuilder.obj
 0001:0001c1f4       ?as_IntConstant@IntConstant@@UAEPAV1@XZ 0801d1f4 f i c1_GraphBuilder.obj
 0001:0001c1f4       ?as_BlockBegin@BlockBegin@@UAEPAV1@XZ 0801d1f4 f i c1_GraphBuilder.obj
 0001:0001c1f4       ?toCarSpace@CarSpace@@UAEPAV1@XZ 0801d1f4 f i c1_GraphBuilder.obj
 0001:0001c1f4       ?as_hint@HintItem@@UAEPAV1@XZ 0801d1f4 f i c1_GraphBuilder.obj
 0001:0001c1f4       ?as_OpCompareAndSwap@LIR_OpCompareAndSwap@@UAEPAV1@XZ 0801d1f4 f i c1_GraphBuilder.obj
 0001:0001c1f4       ?as_Invoke@Invoke@@UAEPAV1@XZ 0801d1f4 f i c1_GraphBuilder.obj
 0001:0001c1f4       ?as_NewTypeArray@NewTypeArray@@UAEPAV1@XZ 0801d1f4 f i c1_GraphBuilder.obj
 0001:0001c1f4       ?as_NewObjectArray@NewObjectArray@@UAEPAV1@XZ 0801d1f4 f i c1_GraphBuilder.obj
 0001:0001c1f4       ?as_ClassType@ClassType@@UAEPAV1@XZ 0801d1f4 f i c1_GraphBuilder.obj
 0001:0001c1f4       ?as_Op3@LIR_Op3@@UAEPAV1@XZ 0801d1f4 f i c1_GraphBuilder.obj
 0001:0001c1f4       ?as_NullCheck@NullCheck@@UAEPAV1@XZ 0801d1f4 f i c1_GraphBuilder.obj
 0001:0001c1f4       ?as_LoadLocal@LoadLocal@@UAEPAV1@XZ 0801d1f4 f i c1_GraphBuilder.obj
 0001:0001c1f4       ?as_LoadIndexed@LoadIndexed@@UAEPAV1@XZ 0801d1f4 f i c1_GraphBuilder.obj
 0001:0001c1f4       ?as_Goto@Goto@@UAEPAV1@XZ  0801d1f4 f i c1_GraphBuilder.obj
 0001:0001c1f4       ?as_UnsafeRawOp@UnsafeRawOp@@UAEPAV1@XZ 0801d1f4 f i c1_GraphBuilder.obj
 0001:0001c1f4       ?as_IllegalType@IllegalType@@UAEPAV1@XZ 0801d1f4 f i c1_GraphBuilder.obj
 0001:0001c1f4       ?as_StoreLocal@StoreLocal@@UAEPAV1@XZ 0801d1f4 f i c1_GraphBuilder.obj
 0001:0001c1f4       ?as_AccessLocal@AccessLocal@@UAEPAV1@XZ 0801d1f4 f i c1_GraphBuilder.obj
 0001:0001c1f4       ?as_MonitorExit@MonitorExit@@UAEPAV1@XZ 0801d1f4 f i c1_GraphBuilder.obj
 0001:0001c1f4       ?as_CompareOp@CompareOp@@UAEPAV1@XZ 0801d1f4 f i c1_GraphBuilder.obj
 0001:0001c1f4       ?as_ClassConstant@ClassConstant@@UAEPAV1@XZ 0801d1f4 f i c1_GraphBuilder.obj
 0001:0001c1f4       ?as_InstanceConstant@InstanceConstant@@UAEPAV1@XZ 0801d1f4 f i c1_GraphBuilder.obj
 0001:0001c1f4       ?as_VoidType@VoidType@@UAEPAV1@XZ 0801d1f4 f i c1_GraphBuilder.obj
 0001:0001c1f4       ?as_OpAllocArray@LIR_OpAllocArray@@UAEPAV1@XZ 0801d1f4 f i c1_GraphBuilder.obj
 0001:0001c1f4       ?as_Constant@Constant@@UAEPAV1@XZ 0801d1f4 f i c1_GraphBuilder.obj
 0001:0001c1f4       ?as_TypeCheck@TypeCheck@@UAEPAV1@XZ 0801d1f4 f i c1_GraphBuilder.obj
 0001:0001c1f4       ?as_AddressType@AddressType@@UAEPAV1@XZ 0801d1f4 f i c1_GraphBuilder.obj
 0001:0001c1f4       ?as_CodePatterns@C1_CodePatterns@@UAEPAV1@XZ 0801d1f4 f i c1_GraphBuilder.obj
 0001:0001c1f4       ?as_OpLock@LIR_OpLock@@UAEPAV1@XZ 0801d1f4 f i c1_GraphBuilder.obj
 0001:0001c1f4       ?as_Convert@Convert@@UAEPAV1@XZ 0801d1f4 f i c1_GraphBuilder.obj
 0001:0001c1f4       ?as_AccessMonitor@AccessMonitor@@UAEPAV1@XZ 0801d1f4 f i c1_GraphBuilder.obj
 0001:0001c1f4       ?as_Op1@LIR_Op1@@UAEPAV1@XZ 0801d1f4 f i c1_GraphBuilder.obj
 0001:0001c1f4       ?as_address@LIR_Address@@UAEPAV1@XZ 0801d1f4 f i c1_GraphBuilder.obj
 0001:0001c1f4       ?as_If@If@@UAEPAV1@XZ      0801d1f4 f i c1_GraphBuilder.obj
 0001:0001c1f4       ?as_NewMultiArray@NewMultiArray@@UAEPAV1@XZ 0801d1f4 f i c1_GraphBuilder.obj
 0001:0001c1f4       ?as_ArithmeticOp@ArithmeticOp@@UAEPAV1@XZ 0801d1f4 f i c1_GraphBuilder.obj
 0001:0001c1f4       ?as_FloatConstant@FloatConstant@@UAEPAV1@XZ 0801d1f4 f i c1_GraphBuilder.obj
 0001:0001c1f4       ?as_StoreField@StoreField@@UAEPAV1@XZ 0801d1f4 f i c1_GraphBuilder.obj
 0001:0001c1f4       ?as_OpConvert@LIR_OpConvert@@UAEPAV1@XZ 0801d1f4 f i c1_GraphBuilder.obj
 0001:0001c1f4       ?as_InstanceType@InstanceType@@UAEPAV1@XZ 0801d1f4 f i c1_GraphBuilder.obj
 0001:0001c1f4       ?as_UnsafeGetObject@UnsafeGetObject@@UAEPAV1@XZ 0801d1f4 f i c1_GraphBuilder.obj
 0001:0001c1f4       ?as_UnsafePutObject@UnsafePutObject@@UAEPAV1@XZ 0801d1f4 f i c1_GraphBuilder.obj
 0001:0001c1f4       ?as_MonitorEnter@MonitorEnter@@UAEPAV1@XZ 0801d1f4 f i c1_GraphBuilder.obj
 0001:0001c1f4       ?as_ArrayType@ArrayType@@UAEPAV1@XZ 0801d1f4 f i c1_GraphBuilder.obj
 0001:0001c1f4       ?as_OpBranch@LIR_OpBranch@@UAEPAV1@XZ 0801d1f4 f i c1_GraphBuilder.obj
 0001:0001c1f4       ?as_OpTypeCheck@LIR_OpTypeCheck@@UAEPAV1@XZ 0801d1f4 f i c1_GraphBuilder.obj
 0001:0001c1f4       ?as_OpRTCall@LIR_OpRTCall@@UAEPAV1@XZ 0801d1f4 f i c1_GraphBuilder.obj
 0001:0001c1f4       ?as_Instruction@Instruction@@UAEPAV1@XZ 0801d1f4 f i c1_GraphBuilder.obj
 0001:0001c1f4       ?as_UnsafePutRaw@UnsafePutRaw@@UAEPAV1@XZ 0801d1f4 f i c1_GraphBuilder.obj
 0001:0001c1f4       ?as_deoptimization_stub@DeoptimizationBlob@@UBEPBV1@XZ 0801d1f4 f i c1_GraphBuilder.obj
 0001:0001c1f4       ?as_OpArrayCopy@LIR_OpArrayCopy@@UAEPAV1@XZ 0801d1f4 f i c1_GraphBuilder.obj
 0001:0001c1f4       ?as_ArrayLength@ArrayLength@@UAEPAV1@XZ 0801d1f4 f i c1_GraphBuilder.obj
 0001:0001c1f4       ?as_Return@Return@@UAEPAV1@XZ 0801d1f4 f i c1_GraphBuilder.obj
 0001:0001c1f4       ?as_Throw@Throw@@UAEPAV1@XZ 0801d1f4 f i c1_GraphBuilder.obj
 0001:0001c1f4       ?as_CheckCast@CheckCast@@UAEPAV1@XZ 0801d1f4 f i c1_GraphBuilder.obj
 0001:0001c1f4       ?as_ArrayConstant@ArrayConstant@@UAEPAV1@XZ 0801d1f4 f i c1_GraphBuilder.obj
 0001:0001c1f4       ?as_AccessArray@AccessArray@@UAEPAV1@XZ 0801d1f4 f i c1_GraphBuilder.obj
 0001:0001c1f4       ?as_ObjectType@ObjectType@@UAEPAV1@XZ 0801d1f4 f i c1_GraphBuilder.obj
 0001:0001c1f4       ?as_CardTableRS@CardTableRS@@UAEPAV1@XZ 0801d1f4 f i c1_GraphBuilder.obj
 0001:0001c1f4       ?as_Phi@Phi@@UAEPAV1@XZ    0801d1f4 f i c1_GraphBuilder.obj
 0001:0001c1f4       ?as_DoubleType@DoubleType@@UAEPAV1@XZ 0801d1f4 f i c1_GraphBuilder.obj
 0001:0001c1f4       ?as_InstanceOf@InstanceOf@@UAEPAV1@XZ 0801d1f4 f i c1_GraphBuilder.obj
 0001:0001c1f4       ?as_Op2@Op2@@UAEPAV1@XZ    0801d1f4 f i c1_GraphBuilder.obj
 0001:0001c1f4       ?as_LongConstant@LongConstant@@UAEPAV1@XZ 0801d1f4 f i c1_GraphBuilder.obj
 0001:0001c1f4       ?as_Op2@LIR_Op2@@UAEPAV1@XZ 0801d1f4 f i c1_GraphBuilder.obj
 0001:0001c1f4       ?as_Base@Base@@UAEPAV1@XZ  0801d1f4 f i c1_GraphBuilder.obj
 0001:0001c1f4       ?as_ShiftOp@ShiftOp@@UAEPAV1@XZ 0801d1f4 f i c1_GraphBuilder.obj
 0001:0001c1f4       ?as_root@RootItem@@UAEPAV1@XZ 0801d1f4 f i c1_GraphBuilder.obj
 0001:0001c1f4       ?as_LongType@LongType@@UAEPAV1@XZ 0801d1f4 f i c1_GraphBuilder.obj
 0001:0001c1f4       ?as_DoubleConstant@DoubleConstant@@UAEPAV1@XZ 0801d1f4 f i c1_GraphBuilder.obj
 0001:0001c1f4       ?as_OpLabel@LIR_OpLabel@@UAEPAV1@XZ 0801d1f4 f i c1_GraphBuilder.obj
 0001:0001c1f4       ?as_AddressConstant@AddressConstant@@UAEPAV1@XZ 0801d1f4 f i c1_GraphBuilder.obj
 0001:0001c1f4       ?as_AccessField@AccessField@@UAEPAV1@XZ 0801d1f4 f i c1_GraphBuilder.obj
 0001:0001c1f4       ?toContiguousSpace@ContiguousSpace@@UAEPAV1@XZ 0801d1f4 f i c1_GraphBuilder.obj
 0001:0001c1f4       ?as_AccessIndexed@AccessIndexed@@UAEPAV1@XZ 0801d1f4 f i c1_GraphBuilder.obj
 0001:0001c1f4       ?as_TableSwitch@TableSwitch@@UAEPAV1@XZ 0801d1f4 f i c1_GraphBuilder.obj
 0001:0001c1f4       ?as_Intrinsic@Intrinsic@@UAEPAV1@XZ 0801d1f4 f i c1_GraphBuilder.obj
 0001:0001c1f4       ?as_Op0@LIR_Op0@@UAEPAV1@XZ 0801d1f4 f i c1_GraphBuilder.obj
 0001:0001c1f4       ?as_constant@LIR_Const@@UAEPAV1@XZ 0801d1f4 f i c1_GraphBuilder.obj
 0001:0001c1f4       ?as_BlockEnd@BlockEnd@@UAEPAV1@XZ 0801d1f4 f i c1_GraphBuilder.obj
 0001:0001c1f4       ?as_OpJavaCall@LIR_OpJavaCall@@UAEPAV1@XZ 0801d1f4 f i c1_GraphBuilder.obj
 0001:0001c1f4       ?as_NewArray@NewArray@@UAEPAV1@XZ 0801d1f4 f i c1_GraphBuilder.obj
 0001:0001c1f4       ?as_LoadField@LoadField@@UAEPAV1@XZ 0801d1f4 f i c1_GraphBuilder.obj
 0001:0001c1f4       ?as_IntType@IntType@@UAEPAV1@XZ 0801d1f4 f i c1_GraphBuilder.obj
 0001:0001c1f4       ?as_LookupSwitch@LookupSwitch@@UAEPAV1@XZ 0801d1f4 f i c1_GraphBuilder.obj
 0001:0001c1f4       ?as_LogicOp@LogicOp@@UAEPAV1@XZ 0801d1f4 f i c1_GraphBuilder.obj
 0001:0001c1f4       ?as_NewInstance@NewInstance@@UAEPAV1@XZ 0801d1f4 f i c1_GraphBuilder.obj
 0001:0001c1f4       ?as_CachingChange@CachingChange@@UAEPAV1@XZ 0801d1f4 f i c1_GraphBuilder.obj
 0001:0001c1f4       ?as_StoreIndexed@StoreIndexed@@UAEPAV1@XZ 0801d1f4 f i c1_GraphBuilder.obj
 0001:0001c1f4       ?as_UnsafeObjectOp@UnsafeObjectOp@@UAEPAV1@XZ 0801d1f4 f i c1_GraphBuilder.obj
 0001:0001c1f4       ?as_Switch@Switch@@UAEPAV1@XZ 0801d1f4 f i c1_GraphBuilder.obj
 0001:0001c1f4       ?as_UnsafeOp@UnsafeOp@@UAEPAV1@XZ 0801d1f4 f i c1_GraphBuilder.obj
 0001:0001c1f4       ?as_Local@Local@@UAEPAV1@XZ 0801d1f4 f i c1_GraphBuilder.obj
 0001:0001c1f4       ?as_ObjectConstant@ObjectConstant@@UAEPAV1@XZ 0801d1f4 f i c1_GraphBuilder.obj
 0001:0001c1f4       ?as_FloatType@FloatType@@UAEPAV1@XZ 0801d1f4 f i c1_GraphBuilder.obj
 0001:0001c1f4       ?as_IfOp@IfOp@@UAEPAV1@XZ  0801d1f4 f i c1_GraphBuilder.obj
 0001:0001c1f4       ?as_StateSplit@StateSplit@@UAEPAV1@XZ 0801d1f4 f i c1_GraphBuilder.obj
 0001:0001c1f7       ?name@NullCheck@@UBEPBDXZ  0801d1f7 f i c1_GraphBuilder.obj
 0001:0001c1fd       ?visit@NullCheck@@UAEXPAVInstructionVisitor@@@Z 0801d1fd f i c1_GraphBuilder.obj
 0001:0001c20c       ?can_trap@NullCheck@@UBEHXZ 0801d20c f i c1_GraphBuilder.obj
 0001:0001c213       ??0NewInstance@@QAE@PAVciInstanceKlass@@@Z 0801d213 f i c1_GraphBuilder.obj
 0001:0001c23c       ?name@NewInstance@@UBEPBDXZ 0801d23c f i c1_GraphBuilder.obj
 0001:0001c242       ?visit@NewInstance@@UAEXPAVInstructionVisitor@@@Z 0801d242 f i c1_GraphBuilder.obj
 0001:0001c251       ??0NewArray@@QAE@PAVInstruction@@@Z 0801d251 f i c1_GraphBuilder.obj
 0001:0001c27e       ?input_values_do@NewArray@@UAEXP6AXPAPAVInstruction@@@Z@Z 0801d27e f i c1_GraphBuilder.obj
 0001:0001c27e       ?input_values_do@Convert@@UAEXP6AXPAPAVInstruction@@@Z@Z 0801d27e f i c1_GraphBuilder.obj
 0001:0001c27e       ?input_values_do@AccessMonitor@@UAEXP6AXPAPAVInstruction@@@Z@Z 0801d27e f i c1_GraphBuilder.obj
 0001:0001c28a       ?name@NewTypeArray@@UBEPBDXZ 0801d28a f i c1_GraphBuilder.obj
 0001:0001c290       ?visit@NewTypeArray@@UAEXPAVInstructionVisitor@@@Z 0801d290 f i c1_GraphBuilder.obj
 0001:0001c29f       ?name@NewObjectArray@@UBEPBDXZ 0801d29f f i c1_GraphBuilder.obj
 0001:0001c2a5       ?visit@NewObjectArray@@UAEXPAVInstructionVisitor@@@Z 0801d2a5 f i c1_GraphBuilder.obj
 0001:0001c2b4       ?name@NewMultiArray@@UBEPBDXZ 0801d2b4 f i c1_GraphBuilder.obj
 0001:0001c2ba       ?visit@NewMultiArray@@UAEXPAVInstructionVisitor@@@Z 0801d2ba f i c1_GraphBuilder.obj
 0001:0001c2c9       ?input_values_do@NewMultiArray@@UAEXP6AXPAPAVInstruction@@@Z@Z 0801d2c9 f i c1_GraphBuilder.obj
 0001:0001c2ef       ??0TypeCheck@@QAE@PAVciKlass@@PAVInstruction@@PAVValueType@@@Z 0801d2ef f i c1_GraphBuilder.obj
 0001:0001c325       ?input_values_do@TypeCheck@@UAEXP6AXPAPAVInstruction@@@Z@Z 0801d325 f i c1_GraphBuilder.obj
 0001:0001c331       ?name@CheckCast@@UBEPBDXZ  0801d331 f i c1_GraphBuilder.obj
 0001:0001c337       ?visit@CheckCast@@UAEXPAVInstructionVisitor@@@Z 0801d337 f i c1_GraphBuilder.obj
 0001:0001c346       ?name@InstanceOf@@UBEPBDXZ 0801d346 f i c1_GraphBuilder.obj
 0001:0001c34c       ?visit@InstanceOf@@UAEXPAVInstructionVisitor@@@Z 0801d34c f i c1_GraphBuilder.obj
 0001:0001c35b       ??0AccessMonitor@@QAE@PAVInstruction@@H@Z 0801d35b f i c1_GraphBuilder.obj
 0001:0001c38f       ?name@MonitorEnter@@UBEPBDXZ 0801d38f f i c1_GraphBuilder.obj
 0001:0001c395       ?visit@MonitorEnter@@UAEXPAVInstructionVisitor@@@Z 0801d395 f i c1_GraphBuilder.obj
 0001:0001c3a4       ?name@MonitorExit@@UBEPBDXZ 0801d3a4 f i c1_GraphBuilder.obj
 0001:0001c3aa       ?visit@MonitorExit@@UAEXPAVInstructionVisitor@@@Z 0801d3aa f i c1_GraphBuilder.obj
 0001:0001c3b9       ??0Intrinsic@@QAE@PAVValueType@@W4IntrinsicId@ciMethod@@PAVValues@@HPAVValueStack@@H@Z 0801d3b9 f i c1_GraphBuilder.obj
 0001:0001c41b       ?name@Intrinsic@@UBEPBDXZ  0801d41b f i c1_GraphBuilder.obj
 0001:0001c421       ?visit@Intrinsic@@UAEXPAVInstructionVisitor@@@Z 0801d421 f i c1_GraphBuilder.obj
 0001:0001c430       ?input_values_do@Intrinsic@@UAEXP6AXPAPAVInstruction@@@Z@Z 0801d430 f i c1_GraphBuilder.obj
 0001:0001c456       ??0BlockBegin@@QAE@H@Z     0801d456 f i c1_GraphBuilder.obj
 0001:0001c4c8       ?name@BlockBegin@@UBEPBDXZ 0801d4c8 f i c1_GraphBuilder.obj
 0001:0001c4ce       ?visit@BlockBegin@@UAEXPAVInstructionVisitor@@@Z 0801d4ce f i c1_GraphBuilder.obj
 0001:0001c4dd       ?name@TableSwitch@@UBEPBDXZ 0801d4dd f i c1_GraphBuilder.obj
 0001:0001c4e3       ?visit@TableSwitch@@UAEXPAVInstructionVisitor@@@Z 0801d4e3 f i c1_GraphBuilder.obj
 0001:0001c4f5       ?name@LookupSwitch@@UBEPBDXZ 0801d4f5 f i c1_GraphBuilder.obj
 0001:0001c4fb       ?visit@LookupSwitch@@UAEXPAVInstructionVisitor@@@Z 0801d4fb f i c1_GraphBuilder.obj
 0001:0001c50d       ?name@Return@@UBEPBDXZ     0801d50d f i c1_GraphBuilder.obj
 0001:0001c513       ?visit@Return@@UAEXPAVInstructionVisitor@@@Z 0801d513 f i c1_GraphBuilder.obj
 0001:0001c525       ?input_values_do@Return@@UAEXP6AXPAPAVInstruction@@@Z@Z 0801d525 f i c1_GraphBuilder.obj
 0001:0001c537       ?name@Throw@@UBEPBDXZ      0801d537 f i c1_GraphBuilder.obj
 0001:0001c53d       ?visit@Throw@@UAEXPAVInstructionVisitor@@@Z 0801d53d f i c1_GraphBuilder.obj
 0001:0001c54f       ?input_values_do@Throw@@UAEXP6AXPAPAVInstruction@@@Z@Z 0801d54f f i c1_GraphBuilder.obj
 0001:0001c54f       ?input_values_do@Switch@@UAEXP6AXPAPAVInstruction@@@Z@Z 0801d54f f i c1_GraphBuilder.obj
 0001:0001c55b       ??0UnsafeOp@@IAE@W4BasicType@@PAVInstruction@@HPAVValueStack@@@Z 0801d55b f i c1_GraphBuilder.obj
 0001:0001c5a2       ?lock_stack@UnsafeOp@@UBEPAVValueStack@@XZ 0801d5a2 f i c1_GraphBuilder.obj
 0001:0001c5a6       ??0UnsafeRawOp@@IAE@W4BasicType@@PAVInstruction@@1HPAVValueStack@@@Z 0801d5a6 f i c1_GraphBuilder.obj
 0001:0001c5fb       ?input_values_do@UnsafeRawOp@@UAEXP6AXPAPAVInstruction@@@Z@Z 0801d5fb f i c1_GraphBuilder.obj
 0001:0001c623       ?name@UnsafeGetRaw@@UBEPBDXZ 0801d623 f i c1_GraphBuilder.obj
 0001:0001c629       ?visit@UnsafeGetRaw@@UAEXPAVInstructionVisitor@@@Z 0801d629 f i c1_GraphBuilder.obj
 0001:0001c63b       ?name@UnsafePutRaw@@UBEPBDXZ 0801d63b f i c1_GraphBuilder.obj
 0001:0001c641       ?visit@UnsafePutRaw@@UAEXPAVInstructionVisitor@@@Z 0801d641 f i c1_GraphBuilder.obj
 0001:0001c653       ?input_values_do@UnsafePutRaw@@UAEXP6AXPAPAVInstruction@@@Z@Z 0801d653 f i c1_GraphBuilder.obj
 0001:0001c66c       ?input_values_do@UnsafeObjectOp@@UAEXP6AXPAPAVInstruction@@@Z@Z 0801d66c f i c1_GraphBuilder.obj
 0001:0001c68e       ?name@UnsafeGetObject@@UBEPBDXZ 0801d68e f i c1_GraphBuilder.obj
 0001:0001c694       ?visit@UnsafeGetObject@@UAEXPAVInstructionVisitor@@@Z 0801d694 f i c1_GraphBuilder.obj
 0001:0001c6a6       ??0UnsafePutObject@@QAE@W4BasicType@@PAVInstruction@@111PAVValueStack@@@Z 0801d6a6 f i c1_GraphBuilder.obj
 0001:0001c6ec       ?name@UnsafePutObject@@UBEPBDXZ 0801d6ec f i c1_GraphBuilder.obj
 0001:0001c6f2       ?visit@UnsafePutObject@@UAEXPAVInstructionVisitor@@@Z 0801d6f2 f i c1_GraphBuilder.obj
 0001:0001c704       ?input_values_do@UnsafePutObject@@UAEXP6AXPAPAVInstruction@@@Z@Z 0801d704 f i c1_GraphBuilder.obj
 0001:0001c72c       ?local_at@IRScope@@QAEPAVLocal@@PAVValueType@@HH@Z 0801d72c f i c1_GraphBuilder.obj
 0001:0001c77b       ?for_type@LocalSlot@@QAEPAVLocal@@PAVValueType@@HH@Z 0801d77b f i c1_GraphBuilder.obj
 0001:0001c7e0       ?name@Local@@UBEPBDXZ      0801d7e0 f i c1_GraphBuilder.obj
 0001:0001c7e6       ?visit@Local@@UAEXPAVInstructionVisitor@@@Z 0801d7e6 f i c1_GraphBuilder.obj
 0001:0001c7f5       ??0XHandlers@@QAE@PAVciMethod@@@Z 0801d7f5 f   c1_IR.obj
 0001:0001c870       ??0LocalSlot@@QAE@XZ       0801d870 f   c1_IR.obj
 0001:0001c880       ?collect_locals@LocalSlot@@QAEXPAVLocalList@@@Z 0801d880 f   c1_IR.obj
 0001:0001c8a2       ?collect_argument_locals@LocalSlot@@QAEXPAVLocalList@@@Z 0801d8a2 f   c1_IR.obj
 0001:0001c8ca       ?init@ExceptionScope@@AAEXXZ 0801d8ca f   c1_IR.obj
 0001:0001c90f       ??0ExceptionScope@@AAE@PAV0@@Z 0801d90f f   c1_IR.obj
 0001:0001c923       ??0ExceptionScope@@QAE@XZ  0801d923 f   c1_IR.obj
 0001:0001c92f       ?clear@ExceptionScope@@QAEXXZ 0801d92f f   c1_IR.obj
 0001:0001c936       ?add_handler@ExceptionScope@@QAEXPAVXHandler@@@Z 0801d936 f   c1_IR.obj
 0001:0001c945       ?length@ExceptionScope@@QBEHXZ 0801d945 f   c1_IR.obj
 0001:0001c945       ?length@GrowableCache@@QAEHXZ 0801d945 f   c1_IR.obj
 0001:0001c94b       ?handler_at@ExceptionScope@@QBEPAVXHandler@@H@Z 0801d94b f   c1_IR.obj
 0001:0001c95b       ?id@ExceptionScope@@QBEHXZ 0801d95b f   c1_IR.obj
 0001:0001c95f       ?push_scope@ExceptionScope@@QAEPAV1@XZ 0801d95f f   c1_IR.obj
 0001:0001c981       ?equals@ExceptionScope@@QBEHPAV1@@Z 0801d981 f   c1_IR.obj
 0001:0001c9f4       ?could_catch@ExceptionScope@@QBEHPAVciInstanceKlass@@H@Z 0801d9f4 f   c1_IR.obj
 0001:0001ca87       ?copy@ExceptionScope@@QAEPAV1@XZ 0801da87 f   c1_IR.obj
 0001:0001caf3       ?header_block@IRScope@@AAEPAVBlockBegin@@PAV2@W4Flag@2@@Z 0801daf3 f   c1_IR.obj
 0001:0001cb6b       ?build_graph@IRScope@@AAEPAVBlockBegin@@PAVCompilation@@H@Z 0801db6b f   c1_IR.obj
 0001:0001cd5f       ??0IRScope@@QAE@PAVCompilation@@PAV0@HPAVciMethod@@HH@Z 0801dd5f f   c1_IR.obj
 0001:0001ce87       ?max_stack@IRScope@@QBEHXZ 0801de87 f   c1_IR.obj
 0001:0001cebb       ?compute_lock_stack_size@IRScope@@QAEXXZ 0801debb f   c1_IR.obj
 0001:0001cec0       ?argument_locals@IRScope@@AAEPAVLocalList@@XZ 0801dec0 f   c1_IR.obj
 0001:0001cf24       ?locals@IRScope@@QAEPAVLocalList@@XZ 0801df24 f   c1_IR.obj
 0001:0001cf81       ?allocate_locals@IRScope@@QAEHHPAVWordSizeList@@@Z 0801df81 f   c1_IR.obj
 0001:0001d2e6       ?top_scope_bci@IRScope@@QBEHXZ 0801e2e6 f   c1_IR.obj
 0001:0001d2f7       ??0IR@@QAE@PAVCompilation@@PAVciMethod@@H@Z 0801e2f7 f   c1_IR.obj
 0001:0001d363       ?optimize@IR@@QAEXXZ       0801e363 f   c1_IR.obj
 0001:0001d38a       ?notice_used_offset@IR@@QAEXH@Z 0801e38a f   c1_IR.obj
 0001:0001d399       ?allocate_local_name@IR@@QAEHXZ 0801e399 f   c1_IR.obj
 0001:0001d3a3       ?compute_locals_size@IR@@QAEXXZ 0801e3a3 f   c1_IR.obj
 0001:0001d3d6       ?compute_loops@IR@@QAEXXZ  0801e3d6 f   c1_IR.obj
 0001:0001d40d       ?iterate_and_set_weight@IR@@ABEXAAVboolArray@@PAVBlockBegin@@PAVBlockList@@H@Z 0801e40d f   c1_IR.obj
 0001:0001d4a5       ?compute_code@IR@@QAEXXZ   0801e4a5 f   c1_IR.obj
 0001:0001d551       ?compute_use_count@UseCountComputer@@SAXPAVBlockBegin@@@Z 0801e551 f i c1_IR.obj
 0001:0001d578       ?basic_compute_use_count@UseCountComputer@@CAXPAVBlockBegin@@@Z 0801e578 f i c1_IR.obj
 0001:0001d59f       ?uses_do@UseCountComputer@@CAXPAPAVInstruction@@@Z 0801e59f f i c1_IR.obj
 0001:0001d5d1       ?update_use_count@UseCountComputer@@CAXPAPAVInstruction@@@Z 0801e5d1 f i c1_IR.obj
 0001:0001d5f2       ?updated_pinning@UseCountComputer@@CAHPAVBlockBegin@@@Z 0801e5f2 f i c1_IR.obj
 0001:0001d629       ?clear_use_count@UseCountComputer@@CAXPAVBlockBegin@@@Z 0801e629 f i c1_IR.obj
 0001:0001d67d       ?block_do@SuxAndWeightAdjuster@@UAEXPAVBlockBegin@@@Z 0801e67d f i c1_IR.obj
 0001:0001d72c       ?iterate_preorder@IR@@QAEXPAVBlockClosure@@@Z 0801e72c f   c1_IR.obj
 0001:0001d73e       ??0ciExceptionHandlerStream@@QAE@PAVciMethod@@@Z 0801e73e f i c1_IR.obj
 0001:0001d770       ?next@ciExceptionHandlerStream@@QAEXXZ 0801e770 f i c1_IR.obj
 0001:0001d7f8       ?swap_sux@If@@QAEXXZ       0801e7f8 f i c1_IR.obj
 0001:0001d83a       ?swap_sux@IfInstanceOf@@QAEXXZ 0801e83a f i c1_IR.obj
 0001:0001d85d       ??0Base@@QAE@PAVBlockBegin@@0@Z 0801e85d f i c1_IR.obj
 0001:0001d8c5       ?name@Base@@UBEPBDXZ       0801e8c5 f i c1_IR.obj
 0001:0001d8cb       ?visit@Base@@UAEXPAVInstructionVisitor@@@Z 0801e8cb f i c1_IR.obj
 0001:0001d8dd       ?mirror@Instruction@@SA?AW4Condition@1@W421@@Z 0801e8dd f   c1_Instruction.obj
 0001:0001d91f       ?negate@Instruction@@SA?AW4Condition@1@W421@@Z 0801e91f f   c1_Instruction.obj
 0001:0001d961       ?prev@Instruction@@QAEPAV1@PAVBlockBegin@@@Z 0801e961 f   c1_Instruction.obj
 0001:0001d975       ?exact_type@LoadIndexed@@UBEPAVciType@@XZ 0801e975 f   c1_Instruction.obj
 0001:0001d98c       ?declared_type@LoadIndexed@@UBEPAVciType@@XZ 0801e98c f   c1_Instruction.obj
 0001:0001d9a3       ?declared_type@LoadField@@UBEPAVciType@@XZ 0801e9a3 f   c1_Instruction.obj
 0001:0001d9aa       ?exact_type@LoadField@@UBEPAVciType@@XZ 0801e9aa f   c1_Instruction.obj
 0001:0001d9c4       ?exact_type@NewTypeArray@@UBEPAVciType@@XZ 0801e9c4 f   c1_Instruction.obj
 0001:0001d9ce       ?exact_type@NewObjectArray@@UBEPAVciType@@XZ 0801e9ce f   c1_Instruction.obj
 0001:0001d9d8       ?exact_type@NewInstance@@UBEPAVciType@@XZ 0801e9d8 f   c1_Instruction.obj
 0001:0001d9dc       ?is_commutative@ArithmeticOp@@UBEHXZ 0801e9dc f   c1_Instruction.obj
 0001:0001d9fa       ?can_trap@ArithmeticOp@@UBEHXZ 0801e9fa f   c1_Instruction.obj
 0001:0001da18       ?is_commutative@IfOp@@UBEHXZ 0801ea18 f   c1_Instruction.obj
 0001:0001da2b       ?scope@StateSplit@@QBEPAVIRScope@@XZ 0801ea2b f   c1_Instruction.obj
 0001:0001da31       ?state_values_do@StateSplit@@UAEXP6AXPAPAVInstruction@@@Z@Z 0801ea31 f   c1_Instruction.obj
 0001:0001da44       ??0Invoke@@QAE@W4Code@Bytecodes@@PAVValueType@@PAVInstruction@@PAVValues@@HHH@Z 0801ea44 f   c1_Instruction.obj
 0001:0001db62       ?size_of_arguments@Invoke@@QBEHXZ 0801eb62 f   c1_Instruction.obj
 0001:0001db96       ?hash@Constant@@UBEHXZ     0801eb96 f   c1_Instruction.obj
 0001:0001dc7a       ?is_equal@Constant@@UBEHPAVInstruction@@@Z 0801ec7a f   c1_Instruction.obj
 0001:0001de12       ?other_values_do@CompareOp@@UAEXP6AXPAPAVInstruction@@@Z@Z 0801ee12 f   c1_Instruction.obj
 0001:0001de12       ?other_values_do@AccessField@@UAEXP6AXPAPAVInstruction@@@Z@Z 0801ee12 f   c1_Instruction.obj
 0001:0001de12       ?other_values_do@TypeCheck@@UAEXP6AXPAPAVInstruction@@@Z@Z 0801ee12 f   c1_Instruction.obj
 0001:0001de25       ?set_weight@BlockBegin@@QAEXH@Z 0801ee25 f   c1_Instruction.obj
 0001:0001dea7       ?add_exception_handler@BlockBegin@@QAEXPAV1@@Z 0801eea7 f   c1_Instruction.obj
 0001:0001dedd       ?iterate_preorder@BlockBegin@@AAEXAAVboolArray@@PAVBlockClosure@@@Z 0801eedd f   c1_Instruction.obj
 0001:0001df53       ?iterate_preorder@BlockBegin@@QAEXPAVBlockClosure@@@Z 0801ef53 f   c1_Instruction.obj
 0001:0001df9a       ?block_values_do@BlockBegin@@QAEXP6AXPAPAVInstruction@@@Z@Z 0801ef9a f   c1_Instruction.obj
 0001:0001dfb5       ?try_join@BlockBegin@@QAEHPAVValueStack@@@Z 0801efb5 f   c1_Instruction.obj
 0001:0001dff4       ?resolve_substitution@BlockBegin@@QAEXXZ 0801eff4 f   c1_Instruction.obj
 0001:0001e016       ?iterate_forward@BlockList@@QAEXPAVBlockClosure@@@Z 0801f016 f   c1_Instruction.obj
 0001:0001e041       ?blocks_do@BlockList@@QAEXP6AXPAVBlockBegin@@@Z@Z 0801f041 f   c1_Instruction.obj
 0001:0001e05c       ?substitute_sux@BlockEnd@@QAEXPAVBlockBegin@@0@Z 0801f05c f   c1_Instruction.obj
 0001:0001e08c       ?other_values_do@BlockEnd@@UAEXP6AXPAPAVInstruction@@@Z@Z 0801f08c f   c1_Instruction.obj
 0001:0001e08c       ?other_values_do@NewArray@@UAEXP6AXPAPAVInstruction@@@Z@Z 0801f08c f   c1_Instruction.obj
 0001:0001e09f       ?subst@Instruction@@QAEPAV1@XZ 0801f09f f i c1_Instruction.obj
 0001:0001e0ae       ?values_do@Instruction@@QAEXP6AXPAPAV1@@Z@Z 0801f0ae f i c1_Instruction.obj
 0001:0001e0da       ?name@Invoke@@UBEPBDXZ     0801f0da f i c1_Instruction.obj
 0001:0001e0e0       ?visit@Invoke@@UAEXPAVInstructionVisitor@@@Z 0801f0e0 f i c1_Instruction.obj
 0001:0001e0ef       ?input_values_do@Invoke@@UAEXP6AXPAPAVInstruction@@@Z@Z 0801f0ef f i c1_Instruction.obj
 0001:0001e172       ?is_same@HintItem@@UAEHPAVItem@@@Z 0801f172 f   c1_Items.obj
 0001:0001e19e       ?set_from_item@HintItem@@UAEXPBVItem@@@Z 0801f19e f   c1_Items.obj
 0001:0001e1bb       ?update@Item@@QAEXXZ       0801f1bb f   c1_Items.obj
 0001:0001e1de       ?is_same@Item@@UAEHPAV1@@Z 0801f1de f   c1_Items.obj
 0001:0001e238       ?get_jobject_constant@Item@@QBEPAVciObject@@XZ 0801f238 f   c1_Items.obj
 0001:0001e2a6       ?get_jint_constant@Item@@QBEHXZ 0801f2a6 f   c1_Items.obj
 0001:0001e2b6       ?get_jlong_constant@Item@@QBE_JXZ 0801f2b6 f   c1_Items.obj
 0001:0001e2cb       ?handle_float_kind@Item@@QAEXXZ 0801f2cb f   c1_Items_i486.obj
 0001:0001e2f7       ?value_type@LIR_OprFact@@SAPAVLIR_OprDesc@@PAVValueType@@@Z 0801f2f7 f   c1_LIR.obj
 0001:0001e3c2       ?dummy_value_type@LIR_OprFact@@SAPAVLIR_OprDesc@@PAVValueType@@@Z 0801f3c2 f   c1_LIR.obj
 0001:0001e42e       ?scale@LIR_Address@@SA?AW4Scale@1@W4BasicType@@@Z 0801f42e f   c1_LIR.obj
 0001:0001e46d       ?is_oop@LIR_OprDesc@@QBEHXZ 0801f46d f   c1_LIR.obj
 0001:0001e4a0       ??0LIR_OpBranch@@QAE@W4LIR_Condition@0@PAVBlockBegin@@PAVCodeEmitInfo@@@Z 0801f4a0 f   c1_LIR.obj
 0001:0001e4ed       ??0LIR_OpBranch@@QAE@W4LIR_Condition@0@PAVCodeStub@@PAVCodeEmitInfo@@@Z 0801f4ed f   c1_LIR.obj
 0001:0001e53a       ??0LIR_OpTypeCheck@@QAE@W4LIR_Code@@PAVLIR_OprDesc@@1PAVciKlass@@11HPAVCodeEmitInfo@@3@Z 0801f53a f   c1_LIR.obj
 0001:0001e5f5       ??0LIR_OpTypeCheck@@QAE@W4LIR_Code@@PAVLIR_OprDesc@@1111PAVCodeEmitInfo@@@Z 0801f5f5 f   c1_LIR.obj
 0001:0001e688       ?visit@LIR_Op@@UAEXPAVLIR_OpVisitState@@@Z 0801f688 f   c1_LIR.obj
 0001:0001e6bc       ?visit@LIR_OpArrayCopy@@UAEXPAVLIR_OpVisitState@@@Z 0801f6bc f   c1_LIR.obj
 0001:0001e727       ?visit@LIR_OpAllocObj@@UAEXPAVLIR_OpVisitState@@@Z 0801f727 f   c1_LIR.obj
 0001:0001e7bf       ?visit@LIR_OpAllocArray@@UAEXPAVLIR_OpVisitState@@@Z 0801f7bf f   c1_LIR.obj
 0001:0001e881       ?visit@LIR_OpTypeCheck@@UAEXPAVLIR_OpVisitState@@@Z 0801f881 f   c1_LIR.obj
 0001:0001e93e       ?visit@LIR_OpCompareAndSwap@@UAEXPAVLIR_OpVisitState@@@Z 0801f93e f   c1_LIR.obj
 0001:0001e9de       ?visit@LIR_Op1@@UAEXPAVLIR_OpVisitState@@@Z 0801f9de f   c1_LIR.obj
 0001:0001ea82       ?visit@LIR_Op2@@UAEXPAVLIR_OpVisitState@@@Z 0801fa82 f   c1_LIR.obj
 0001:0001eb58       ?visit@LIR_Op3@@UAEXPAVLIR_OpVisitState@@@Z 0801fb58 f   c1_LIR.obj
 0001:0001ebce       ?visit@LIR_OpLabel@@UAEXPAVLIR_OpVisitState@@@Z 0801fbce f   c1_LIR.obj
 0001:0001ebe5       ?visit@LIR_OpJavaCall@@UAEXPAVLIR_OpVisitState@@@Z 0801fbe5 f   c1_LIR.obj
 0001:0001ec41       ?visit@LIR_OpRTCall@@UAEXPAVLIR_OpVisitState@@@Z 0801fc41 f   c1_LIR.obj
 0001:0001ec92       ?visit@LIR_OpBranch@@UAEXPAVLIR_OpVisitState@@@Z 0801fc92 f   c1_LIR.obj
 0001:0001ecb2       ?visit@LIR_OpLock@@UAEXPAVLIR_OpVisitState@@@Z 0801fcb2 f   c1_LIR.obj
 0001:0001ed4a       ?emit_code@LIR_OpJavaCall@@UAEXPAVLIR_AbstractAssembler@@@Z 0801fd4a f   c1_LIR.obj
 0001:0001ed59       ?emit_code@LIR_OpRTCall@@UAEXPAVLIR_AbstractAssembler@@@Z 0801fd59 f   c1_LIR.obj
 0001:0001ed68       ?emit_code@LIR_OpLabel@@UAEXPAVLIR_AbstractAssembler@@@Z 0801fd68 f   c1_LIR.obj
 0001:0001ed77       ?emit_code@LIR_OpArrayCopy@@UAEXPAVLIR_AbstractAssembler@@@Z 0801fd77 f   c1_LIR.obj
 0001:0001ed86       ?emit_code@LIR_Op0@@UAEXPAVLIR_AbstractAssembler@@@Z 0801fd86 f   c1_LIR.obj
 0001:0001ed94       ?emit_code@LIR_Op1@@UAEXPAVLIR_AbstractAssembler@@@Z 0801fd94 f   c1_LIR.obj
 0001:0001eda3       ?emit_code@LIR_OpAllocObj@@UAEXPAVLIR_AbstractAssembler@@@Z 0801fda3 f   c1_LIR.obj
 0001:0001edc7       ?emit_code@LIR_OpBranch@@UAEXPAVLIR_AbstractAssembler@@@Z 0801fdc7 f   c1_LIR.obj
 0001:0001edeb       ?emit_code@LIR_OpConvert@@UAEXPAVLIR_AbstractAssembler@@@Z 0801fdeb f   c1_LIR.obj
 0001:0001edfa       ?emit_code@LIR_Op2@@UAEXPAVLIR_AbstractAssembler@@@Z 0801fdfa f   c1_LIR.obj
 0001:0001ee09       ?emit_code@LIR_OpAllocArray@@UAEXPAVLIR_AbstractAssembler@@@Z 0801fe09 f   c1_LIR.obj
 0001:0001ee2d       ?emit_code@LIR_OpTypeCheck@@UAEXPAVLIR_AbstractAssembler@@@Z 0801fe2d f   c1_LIR.obj
 0001:0001ee51       ?emit_code@LIR_OpCompareAndSwap@@UAEXPAVLIR_AbstractAssembler@@@Z 0801fe51 f   c1_LIR.obj
 0001:0001ee60       ?emit_code@LIR_Op3@@UAEXPAVLIR_AbstractAssembler@@@Z 0801fe60 f   c1_LIR.obj
 0001:0001ee6f       ?emit_code@LIR_OpLock@@UAEXPAVLIR_AbstractAssembler@@@Z 0801fe6f f   c1_LIR.obj
 0001:0001ee93       ??0LIR_List@@QAE@PAVCompilation@@@Z 0801fe93 f   c1_LIR.obj
 0001:0001eedc       ?oop2reg_patch@LIR_List@@QAEXPAV_jobject@@VRInfo@@PAVCodeEmitInfo@@@Z 0801fedc f   c1_LIR.obj
 0001:0001ef4c       ?load_mem_reg@LIR_List@@QAEXVRInfo@@H0W4BasicType@@PAVCodeEmitInfo@@W4LIR_PatchCode@LIR_Op1@@@Z 0801ff4c f   c1_LIR.obj
 0001:0001efec       ?load_mem_reg@LIR_List@@QAEXPAVLIR_Address@@VRInfo@@W4BasicType@@PAVCodeEmitInfo@@W4LIR_PatchCode@LIR_Op1@@@Z 0801ffec f   c1_LIR.obj
 0001:0001f04e       ?volatile_load_mem_reg@LIR_List@@QAEXVRInfo@@H0W4BasicType@@PAVCodeEmitInfo@@W4LIR_PatchCode@LIR_Op1@@@Z 0802004e f   c1_LIR.obj
 0001:0001f0ee       ?store_mem_int@LIR_List@@QAEXHVRInfo@@HW4BasicType@@PAVCodeEmitInfo@@W4LIR_PatchCode@LIR_Op1@@@Z 080200ee f   c1_LIR.obj
 0001:0001f18c       ?store_mem_oop@LIR_List@@QAEXPAV_jobject@@VRInfo@@HW4BasicType@@PAVCodeEmitInfo@@W4LIR_PatchCode@LIR_Op1@@@Z 0802018c f   c1_LIR.obj
 0001:0001f22a       ?store_mem_reg@LIR_List@@QAEXVRInfo@@0HW4BasicType@@PAVCodeEmitInfo@@W4LIR_PatchCode@LIR_Op1@@@Z 0802022a f   c1_LIR.obj
 0001:0001f2ca       ?store_mem_reg@LIR_List@@QAEXVRInfo@@PAVLIR_Address@@W4BasicType@@PAVCodeEmitInfo@@W4LIR_PatchCode@LIR_Op1@@@Z 080202ca f   c1_LIR.obj
 0001:0001f32c       ?store@LIR_List@@QAEXPAVLIR_OprDesc@@PAVLIR_Address@@W4BasicType@@PAVCodeEmitInfo@@W4LIR_PatchCode@LIR_Op1@@@Z 0802032c f   c1_LIR.obj
 0001:0001f380       ?volatile_store_mem_reg@LIR_List@@QAEXVRInfo@@0HW4BasicType@@PAVCodeEmitInfo@@W4LIR_PatchCode@LIR_Op1@@@Z 08020380 f   c1_LIR.obj
 0001:0001f420       ?jump@LIR_List@@QAEXPAVBlockBegin@@PAVCodeEmitInfo@@@Z 08020420 f   c1_LIR.obj
 0001:0001f456       ?branch@LIR_List@@QAEXW4LIR_Condition@LIR_OpBranch@@PAVLabel@@@Z 08020456 f   c1_LIR.obj
 0001:0001f48c       ?branch@LIR_List@@QAEXW4LIR_Condition@LIR_OpBranch@@PAVBlockBegin@@@Z 0802048c f   c1_LIR.obj
 0001:0001f4c2       ?branch@LIR_List@@QAEXW4LIR_Condition@LIR_OpBranch@@PAVCodeStub@@@Z 080204c2 f   c1_LIR.obj
 0001:0001f4f8       ?branch_float@LIR_List@@QAEXW4LIR_Condition@LIR_OpBranch@@PAVLabel@@1@Z 080204f8 f   c1_LIR.obj
 0001:0001f532       ?store_array@LIR_List@@QAEXVRInfo@@PAVLIR_Address@@W4BasicType@@PAVCodeEmitInfo@@@Z 08020532 f   c1_LIR.obj
 0001:0001f58e       ?store_array@LIR_List@@QAEXHPAVLIR_Address@@W4BasicType@@PAVCodeEmitInfo@@@Z 0802058e f   c1_LIR.obj
 0001:0001f5ea       ?store_array@LIR_List@@QAEXPAV_jobject@@PAVLIR_Address@@W4BasicType@@PAVCodeEmitInfo@@@Z 080205ea f   c1_LIR.obj
 0001:0001f646       ?idiv@LIR_List@@QAEXVRInfo@@000PAVCodeEmitInfo@@@Z 08020646 f   c1_LIR.obj
 0001:0001f6c6       ?idiv@LIR_List@@QAEXVRInfo@@H00PAVCodeEmitInfo@@@Z 080206c6 f   c1_LIR.obj
 0001:0001f746       ?irem@LIR_List@@QAEXVRInfo@@000PAVCodeEmitInfo@@@Z 08020746 f   c1_LIR.obj
 0001:0001f7c6       ?irem@LIR_List@@QAEXVRInfo@@H00PAVCodeEmitInfo@@@Z 080207c6 f   c1_LIR.obj
 0001:0001f846       ?cmp_mem_int@LIR_List@@QAEXW4LIR_Condition@LIR_OpBranch@@VRInfo@@HHPAVCodeEmitInfo@@@Z 08020846 f   c1_LIR.obj
 0001:0001f900       ?cmp_reg_mem@LIR_List@@QAEXW4LIR_Condition@LIR_OpBranch@@VRInfo@@PAVLIR_Address@@W4BasicType@@PAVCodeEmitInfo@@@Z 08020900 f   c1_LIR.obj
 0001:0001f979       ?allocate_object@LIR_List@@QAEXVRInfo@@000HH0PAVCodeStub@@@Z 08020979 f   c1_LIR.obj
 0001:0001fa25       ?allocate_array@LIR_List@@QAEXVRInfo@@00000W4BasicType@@0PAVCodeStub@@@Z 08020a25 f   c1_LIR.obj
 0001:0001fb00       ?shift_left@LIR_List@@QAEXPAVLIR_OprDesc@@000@Z 08020b00 f   c1_LIR.obj
 0001:0001fb5d       ?shift_right@LIR_List@@QAEXPAVLIR_OprDesc@@000@Z 08020b5d f   c1_LIR.obj
 0001:0001fbba       ?unsigned_shift_right@LIR_List@@QAEXPAVLIR_OprDesc@@000@Z 08020bba f   c1_LIR.obj
 0001:0001fc17       ?fcmp2int@LIR_List@@QAEXVRInfo@@00H@Z 08020c17 f   c1_LIR.obj
 0001:0001fca3       ?lock_object@LIR_List@@QAEXVRInfo@@000PAVCodeStub@@PAVCodeEmitInfo@@@Z 08020ca3 f   c1_LIR.obj
 0001:0001fd32       ?unlock_object@LIR_List@@QAEXVRInfo@@00PAVCodeStub@@@Z 08020d32 f   c1_LIR.obj
 0001:0001fdc2       ?single_stack2reg@LIR_List@@QAEXHVRInfo@@W4BasicType@@@Z 08020dc2 f   c1_LIR.obj
 0001:0001fdc2       ?double_stack2reg@LIR_List@@QAEXHVRInfo@@W4BasicType@@@Z 08020dc2 f   c1_LIR.obj
 0001:0001fe2e       ?checkcast@LIR_List@@QAEXPAVLIR_OprDesc@@0PAVciKlass@@00HPAVCodeEmitInfo@@2@Z 08020e2e f   c1_LIR.obj
 0001:0001fe78       ?instanceof@LIR_List@@QAEXPAVLIR_OprDesc@@0PAVciKlass@@00HPAVCodeEmitInfo@@@Z 08020e78 f   c1_LIR.obj
 0001:0001fec1       ?store_check@LIR_List@@QAEXPAVLIR_OprDesc@@0000PAVCodeEmitInfo@@@Z 08020ec1 f   c1_LIR.obj
 0001:0001ff05       ?cas_long@LIR_List@@QAEXPAVLIR_OprDesc@@0000@Z 08020f05 f   c1_LIR.obj
 0001:0001ff73       ?grow@WordSizeList@@IAEXHH@Z 08020f73 f i c1_LIR.obj
 0001:0001ff73       ?grow@LIR_OprList@@IAEXHQAVLIR_OprDesc@@@Z 08020f73 f i c1_LIR.obj
 0001:0001ff73       ?grow@intStack@@IAEXHH@Z   08020f73 f i c1_LIR.obj
 0001:0001ffa7       ?is_float_kind@LIR_OprDesc@@QBEHXZ 08020fa7 f i c1_LIR.obj
 0001:0001ffd3       ?type@LIR_Address@@UBE?AW4BasicType@@XZ 08020fd3 f i c1_LIR.obj
 0001:0001ffd7       ?longConst@LIR_OprFact@@SAPAVLIR_OprDesc@@_J@Z 08020fd7 f i c1_LIR.obj
 0001:0002000e       ?floatConst@LIR_OprFact@@SAPAVLIR_OprDesc@@M@Z 0802100e f i c1_LIR.obj
 0001:0002003e       ?doubleConst@LIR_OprFact@@SAPAVLIR_OprDesc@@N@Z 0802103e f i c1_LIR.obj
 0001:0002006e       ?oopConst@LIR_OprFact@@SAPAVLIR_OprDesc@@PAV_jobject@@@Z 0802106e f i c1_LIR.obj
 0001:0002009e       ??0LIR_OpBranch@@QAE@W4LIR_Condition@0@PAVLabel@@PAVCodeEmitInfo@@@Z 0802109e f i c1_LIR.obj
 0001:000200e6       ??0LIR_OpBranch@@QAE@W4LIR_Condition@0@PAVLabel@@1PAVCodeEmitInfo@@@Z 080210e6 f i c1_LIR.obj
 0001:00020132       ??0ConstantTable@@QAE@XZ   08021132 f   c1_LIRAssembler.obj
 0001:00020155       ?append_float@ConstantTable@@QAEXM@Z 08021155 f   c1_LIRAssembler.obj
 0001:0002019e       ?append_double@ConstantTable@@QAEXN@Z 0802119e f   c1_LIRAssembler.obj
 0001:000201e7       ?address_of_float_constant@ConstantTable@@QAEPAEM@Z 080211e7 f   c1_LIRAssembler.obj
 0001:0002027a       ?address_of_double_constant@ConstantTable@@QAEPAEN@Z 0802127a f   c1_LIRAssembler.obj
 0001:00020315       ?emit_entries@ConstantTable@@QAEXPAVMacroAssembler@@H@Z 08021315 f   c1_LIRAssembler.obj
 0001:000203ab       ?patching_epilog@LIR_Assembler@@AAEXPAVPatchingStub@@W4LIR_PatchCode@LIR_Op1@@PAVRegisterImpl@@PAVCodeEmitInfo@@@Z 080213ab f   c1_LIRAssembler.obj
 0001:000203ee       ?install@PatchingStub@@QAEXPAVMacroAssembler@@W4LIR_PatchCode@LIR_Op1@@PAVRegisterImpl@@PAVCodeEmitInfo@@@Z 080213ee f i c1_LIRAssembler.obj
 0001:00020470       ??0LIR_Assembler@@QAE@PAVCompilation@@PAVCodeOffsets@@@Z 08021470 f   c1_LIRAssembler.obj
 0001:000204f5       ?emit_delay@LIR_AbstractAssembler@@UAEXPAVLIR_OpDelay@@@Z 080214f5 f i c1_LIRAssembler.obj
 0001:00020507       ??1LIR_Assembler@@QAE@XZ   08021507 f   c1_LIRAssembler.obj
 0001:0002050e       ?append_patching_stub@LIR_Assembler@@AAEXPAVPatchingStub@@@Z 0802150e f   c1_LIRAssembler.obj
 0001:0002051d       ?append@CodeStubList@@QAEXPAVCodeStub@@@Z 0802151d f i c1_LIRAssembler.obj
 0001:0002054f       ?check_codespace@LIR_Assembler@@AAEXXZ 0802154f f   c1_LIRAssembler.obj
 0001:00020591       ?emit_code_stub@LIR_Assembler@@UAEXPAVCodeStub@@@Z 08021591 f   c1_LIRAssembler.obj
 0001:000205cb       ?emit_stubs@LIR_Assembler@@AAEXPAVCodeStubList@@@Z 080215cb f   c1_LIRAssembler.obj
 0001:0002060d       ?emit_slow_case_stubs@LIR_Assembler@@QAEXXZ 0802160d f   c1_LIRAssembler.obj
 0001:00020616       ?needs_icache@LIR_Assembler@@ABEHPAVciMethod@@@Z 08021616 f   c1_LIRAssembler.obj
 0001:00020628       ?block_do@LIR_CodeGen@@UAEXPAVBlockBegin@@@Z 08021628 f   c1_LIRAssembler.obj
 0001:000206a3       ?emit_code@LIR_Assembler@@QAEXPAVBlockList@@@Z 080216a3 f   c1_LIRAssembler.obj
 0001:000206e7       ?block_do@CollectConstants@@UAEXPAVBlockBegin@@@Z 080216e7 f i c1_LIRAssembler.obj
 0001:00020752       ?add_debug_info_for_branch@LIR_Assembler@@AAEXPAVCodeEmitInfo@@@Z 08021752 f   c1_LIRAssembler.obj
 0001:00020798       ?add_debug_info_here@LIR_Assembler@@AAEXPAVCodeEmitInfo@@@Z 08021798 f   c1_LIRAssembler.obj
 0001:000207b0       ?add_call_info@LIR_Assembler@@AAEXHPAVCodeEmitInfo@@@Z 080217b0 f   c1_LIRAssembler.obj
 0001:000207c2       ?add_debug_info@LIR_Assembler@@AAEXHPAVCodeEmitInfo@@H@Z 080217c2 f   c1_LIRAssembler.obj
 0001:000207fb       ?emit_rtcall@LIR_Assembler@@UAEXPAVLIR_OpRTCall@@@Z 080217fb f   c1_LIRAssembler.obj
 0001:0002082f       ?emit_call@LIR_Assembler@@UAEXPAVLIR_OpJavaCall@@@Z 0802182f f   c1_LIRAssembler.obj
 0001:000208a8       ?emit_opLabel@LIR_Assembler@@UAEXPAVLIR_OpLabel@@@Z 080218a8 f   c1_LIRAssembler.obj
 0001:000208ba       ?emit_op1@LIR_Assembler@@UAEXPAVLIR_Op1@@@Z 080218ba f   c1_LIRAssembler.obj
 0001:00020b2e       ?emit_op0@LIR_Assembler@@UAEXPAVLIR_Op0@@@Z 08021b2e f   c1_LIRAssembler.obj
 0001:00020d18       ?emit_op2@LIR_Assembler@@UAEXPAVLIR_Op2@@@Z 08021d18 f   c1_LIRAssembler.obj
 0001:00020f48       ?build_frame@LIR_Assembler@@QAEXXZ 08021f48 f   c1_LIRAssembler.obj
 0001:00020f5b       ?array_move_op@LIR_Assembler@@QAEXPAVLIR_OprDesc@@0W4BasicType@@PAVCodeEmitInfo@@@Z 08021f5b f   c1_LIRAssembler.obj
 0001:00021046       ?round32_op@LIR_Assembler@@QAEXPAVLIR_OprDesc@@0@Z 08022046 f   c1_LIRAssembler.obj
 0001:0002106b       ?move_op@LIR_Assembler@@QAEXPAVLIR_OprDesc@@0W4BasicType@@W4LIR_PatchCode@LIR_Op1@@PAVCodeEmitInfo@@@Z 0802206b f   c1_LIRAssembler.obj
 0001:000212dd       ?set_bailout@LIR_Assembler@@AAEXPBD@Z 080222dd f   c1_LIRAssembler.obj
 0001:000212e7       ?set_offset@NativeMovRegMem@@QAEXH@Z 080222e7 f i c1_LIRAssembler.obj
 0001:00021325       ?value_without_type@LIR_OprDesc@@ABEHXZ 08022325 f i c1_LIRAssembler.obj
 0001:00021336       ?is_constant@LIR_OprDesc@@QBEHXZ 08022336 f i c1_LIRAssembler.obj
 0001:0002134d       ?is_address@LIR_OprDesc@@QBEHXZ 0802234d f i c1_LIRAssembler.obj
 0001:000213a5       ?fpu_pop@LIR_Assembler@@AAEXVRInfo@@@Z 080223a5 f   c1_LIRAssembler_i486.obj
 0001:000213cf       ?fpu_push@LIR_Assembler@@AAEXVRInfo@@@Z 080223cf f   c1_LIRAssembler_i486.obj
 0001:000213f9       ?set_fpu_stack_empty@LIR_Assembler@@AAEXXZ 080223f9 f   c1_LIRAssembler_i486.obj
 0001:00021401       ?fpu_on_tos@LIR_Assembler@@AAEXVRInfo@@@Z 08022401 f   c1_LIRAssembler_i486.obj
 0001:0002145e       ?fpu_two_on_tos@LIR_Assembler@@AAEXVRInfo@@0H@Z 0802245e f   c1_LIRAssembler_i486.obj
 0001:00021596       ?set_24bit_FPU@LIR_Assembler@@AAEXXZ 08022596 f   c1_LIRAssembler_i486.obj
 0001:000215c9       ?reset_FPU@LIR_Assembler@@AAEXXZ 080225c9 f   c1_LIRAssembler_i486.obj
 0001:000215fc       ?remove_fpu_result@LIR_Assembler@@AAEXVRInfo@@@Z 080225fc f   c1_LIRAssembler_i486.obj
 0001:00021632       ?fpop@LIR_Assembler@@AAEXXZ 08022632 f   c1_LIRAssembler_i486.obj
 0001:0002163a       ?breakpoint@LIR_Assembler@@AAEXXZ 0802263a f   c1_LIRAssembler_i486.obj
 0001:00021642       ?push@LIR_Assembler@@AAEXPAVLIR_OprDesc@@@Z 08022642 f   c1_LIRAssembler_i486.obj
 0001:0002180b       ?pop@LIR_Assembler@@AAEXPAVLIR_OprDesc@@@Z 0802280b f   c1_LIRAssembler_i486.obj
 0001:0002188a       ?as_Address@LIR_Assembler@@AAE?AVAddress@@PAVLIR_Address@@@Z 0802288a f   c1_LIRAssembler_i486.obj
 0001:00021969       ?as_Address_hi@LIR_Assembler@@AAE?AVAddress@@PAVLIR_Address@@@Z 08022969 f   c1_LIRAssembler_i486.obj
 0001:000219fc       ?as_Address_lo@LIR_Assembler@@AAE?AVAddress@@PAVLIR_Address@@@Z 080229fc f   c1_LIRAssembler_i486.obj
 0001:00021a22       ?as_ArrayAddress@LIR_Assembler@@AAE?AVAddress@@PAVLIR_Address@@W4BasicType@@@Z 08022a22 f   c1_LIRAssembler_i486.obj
 0001:00021a53       ?emit_osr_entry@LIR_Assembler@@QAEXPAVIRScope@@HPAVLabel@@H@Z 08022a53 f   c1_LIRAssembler_i486.obj
 0001:00021eca       ?emit_constants@LIR_Assembler@@QAEXXZ 08022eca f   c1_LIRAssembler_i486.obj
 0001:00021ed8       ?check_icache@LIR_Assembler@@AAEXXZ 08022ed8 f   c1_LIRAssembler_i486.obj
 0001:00021eed       ?jvmpi_method_exit@LIR_Assembler@@AAEXPAVciMethod@@H@Z 08022eed f   c1_LIRAssembler_i486.obj
 0001:00021fb0       ?jvmpi_method_enter@LIR_Assembler@@AAEXPAVCodeEmitInfo@@@Z 08022fb0 f   c1_LIRAssembler_i486.obj
 0001:0002206a       ?jobject2reg_with_patching@LIR_Assembler@@AAEXPAVRegisterImpl@@PAVCodeEmitInfo@@@Z 0802306a f   c1_LIRAssembler_i486.obj
 0001:000220b8       ??0PatchingStub@@QAE@PAVMacroAssembler@@W4PatchID@0@@Z 080230b8 f i c1_LIRAssembler_i486.obj
 0001:0002210b       ?set_code_pc@PatchingStub@@UAEXPAE@Z 0802310b f i c1_LIRAssembler_i486.obj
 0001:00022120       ?visit@PatchingStub@@UAEXPAVLIR_OpVisitState@@@Z 08023120 f i c1_LIRAssembler_i486.obj
 0001:00022139       ?monitorenter@LIR_Assembler@@AAEXVRInfo@@0PAVRegisterImpl@@HPAVCodeEmitInfo@@@Z 08023139 f   c1_LIRAssembler_i486.obj
 0001:000221f2       ?monitorexit@LIR_Assembler@@AAEXVRInfo@@0PAVRegisterImpl@@H1@Z 080231f2 f   c1_LIRAssembler_i486.obj
 0001:0002232b       ??0CodeStub@@QAE@XZ        0802332b f i c1_LIRAssembler_i486.obj
 0001:0002233c       ?initial_frame_size_in_bytes@LIR_Assembler@@QAEHXZ 0802333c f   c1_LIRAssembler_i486.obj
 0001:0002234c       ?load_receiver_reg@LIR_Assembler@@QAEXPAVRegisterImpl@@@Z 0802334c f   c1_LIRAssembler_i486.obj
 0001:0002238f       ?emit_exception_handler@LIR_Assembler@@QAEHXZ 0802338f f   c1_LIRAssembler_i486.obj
 0001:00022435       ?emit_method_entry@LIR_Assembler@@QAEXPAVLIR_Emitter@@PAVIRScope@@@Z 08023435 f   c1_LIRAssembler_i486.obj
 0001:00022604       ?emit_native_call@LIR_Assembler@@QAEXPAEPAVCodeEmitInfo@@@Z 08023604 f   c1_LIRAssembler_i486.obj
 0001:00022ab1       ?emit_native_method_exit@LIR_Assembler@@QAEXPAVCodeEmitInfo@@@Z 08023ab1 f   c1_LIRAssembler_i486.obj
 0001:0002306e       ?emit_string_compare@LIR_Assembler@@QAEXPAVIRScope@@@Z 0802406e f   c1_LIRAssembler_i486.obj
 0001:0002367c       ?emit_triglib@LIR_Assembler@@QAEXW4IntrinsicId@ciMethod@@@Z 0802467c f   c1_LIRAssembler_i486.obj
 0001:00023706       ?return_op@LIR_Assembler@@QAEXVRInfo@@H@Z 08024706 f   c1_LIRAssembler_i486.obj
 0001:00023753       ?const2reg@LIR_Assembler@@QAEXPAVLIR_Const@@VRInfo@@W4LIR_PatchCode@LIR_Op1@@PAVCodeEmitInfo@@@Z 08024753 f   c1_LIRAssembler_i486.obj
 0001:00023900       ?const2stack@LIR_Assembler@@QAEXPAVLIR_Const@@H@Z 08024900 f   c1_LIRAssembler_i486.obj
 0001:000239d4       ?const2mem@LIR_Assembler@@QAEXPAVLIR_Const@@PAVLIR_Address@@W4BasicType@@PAVCodeEmitInfo@@@Z 080249d4 f   c1_LIRAssembler_i486.obj
 0001:00023b48       ?stack2reg@LIR_Assembler@@QAEXPAVLIR_OprDesc@@0W4BasicType@@@Z 08024b48 f   c1_LIRAssembler_i486.obj
 0001:00023cfc       ?mem2reg@LIR_Assembler@@QAEXPAVLIR_Address@@VRInfo@@W4BasicType@@W4LIR_PatchCode@LIR_Op1@@PAVCodeEmitInfo@@@Z 08024cfc f   c1_LIRAssembler_i486.obj
 0001:00023fe7       ?const2array@LIR_Assembler@@QAEXPAVLIR_Const@@PAVLIR_Address@@W4BasicType@@PAVCodeEmitInfo@@@Z 08024fe7 f   c1_LIRAssembler_i486.obj
 0001:00024088       ?reg2array@LIR_Assembler@@QAEXVRInfo@@PAVLIR_Address@@W4BasicType@@PAVCodeEmitInfo@@@Z 08025088 f   c1_LIRAssembler_i486.obj
 0001:000241b0       ?array2reg@LIR_Assembler@@QAEXPAVLIR_Address@@VRInfo@@W4BasicType@@PAVCodeEmitInfo@@@Z 080251b0 f   c1_LIRAssembler_i486.obj
 0001:000242f7       ?reg2stack@LIR_Assembler@@QAEXVRInfo@@HW4BasicType@@@Z 080252f7 f   c1_LIRAssembler_i486.obj
 0001:00024433       ?move_regs@LIR_Assembler@@QAEXPAVRegisterImpl@@0@Z 08025433 f   c1_LIRAssembler_i486.obj
 0001:0002444d       ?reg2reg@LIR_Assembler@@QAEXVRInfo@@0@Z 0802544d f   c1_LIRAssembler_i486.obj
 0001:000244f1       ?swap_reg@LIR_Assembler@@QAEXPAVRegisterImpl@@0@Z 080254f1 f   c1_LIRAssembler_i486.obj
 0001:00024504       ?reg2mem@LIR_Assembler@@QAEXVRInfo@@PAVLIR_Address@@W4BasicType@@W4LIR_PatchCode@LIR_Op1@@PAVCodeEmitInfo@@@Z 08025504 f   c1_LIRAssembler_i486.obj
 0001:0002470d       ?array_element_size@LIR_Assembler@@ABE?AW4ScaleFactor@Address@@W4BasicType@@@Z 0802570d f   c1_LIRAssembler_i486.obj
 0001:00024753       ?emit_op3@LIR_Assembler@@UAEXPAVLIR_Op3@@@Z 08025753 f   c1_LIRAssembler_i486.obj
 0001:00024793       ?emit_opBranch@LIR_Assembler@@UAEXPAVLIR_OpBranch@@@Z 08025793 f   c1_LIRAssembler_i486.obj
 0001:000248d0       ?emit_opConvert@LIR_Assembler@@UAEXPAVLIR_OpConvert@@@Z 080258d0 f   c1_LIRAssembler_i486.obj
 0001:000250d4       ?emit_alloc_obj@LIR_Assembler@@UAEXPAVLIR_OpAllocObj@@@Z 080260d4 f   c1_LIRAssembler_i486.obj
 0001:00025185       ?emit_alloc_array@LIR_Assembler@@UAEXPAVLIR_OpAllocArray@@@Z 08026185 f   c1_LIRAssembler_i486.obj
 0001:00025258       ?emit_opTypeCheck@LIR_Assembler@@UAEXPAVLIR_OpTypeCheck@@@Z 08026258 f   c1_LIRAssembler_i486.obj
 0001:00025b2b       ?emit_compare_and_swap@LIR_Assembler@@UAEXPAVLIR_OpCompareAndSwap@@@Z 08026b2b f   c1_LIRAssembler_i486.obj
 0001:00025b70       ?arith_op@LIR_Assembler@@QAEXW4LIR_Code@@PAVLIR_OprDesc@@11PAVCodeEmitInfo@@@Z 08026b70 f   c1_LIRAssembler_i486.obj
 0001:00026704       ?intrinsic_op@LIR_Assembler@@QAEXW4LIR_Code@@PAVLIR_OprDesc@@11@Z 08027704 f   c1_LIRAssembler_i486.obj
 0001:000267c6       ?logic_op@LIR_Assembler@@QAEXW4LIR_Code@@PAVLIR_OprDesc@@11@Z 080277c6 f   c1_LIRAssembler_i486.obj
 0001:00026ae5       ?maybe_adjust_stack_alignment@LIR_Assembler@@AAEXPAVciMethod@@@Z 08027ae5 f   c1_LIRAssembler_i486.obj
 0001:00026c68       ?arithmetic_idiv@LIR_Assembler@@QAEXW4LIR_Code@@PAVLIR_OprDesc@@111PAVCodeEmitInfo@@@Z 08027c68 f   c1_LIRAssembler_i486.obj
 0001:00026e19       ?comp_op@LIR_Assembler@@AAEXW4LIR_Condition@LIR_OpBranch@@PAVLIR_OprDesc@@1W4BasicType@@@Z 08027e19 f   c1_LIRAssembler_i486.obj
 0001:000271d3       ?comp_fl2i@LIR_Assembler@@QAEXW4LIR_Code@@PAVLIR_OprDesc@@11@Z 080281d3 f   c1_LIRAssembler_i486.obj
 0001:00027327       ?align_call@LIR_Assembler@@QAEXW4LIR_Code@@@Z 08028327 f   c1_LIRAssembler_i486.obj
 0001:00027389       ?call@LIR_Assembler@@QAEXPAEW4relocType@relocInfo@@PAVCodeEmitInfo@@@Z 08028389 f   c1_LIRAssembler_i486.obj
 0001:000273b5       ?ic_call@LIR_Assembler@@QAEXPAEPAVCodeEmitInfo@@@Z 080283b5 f   c1_LIRAssembler_i486.obj
 0001:0002741b       ?emit_call_stubs@LIR_Assembler@@QAEXXZ 0802841b f   c1_LIRAssembler_i486.obj
 0001:0002744f       ?setup_locals_at_entry@LIR_Assembler@@AAEXXZ 0802844f f   c1_LIRAssembler_i486.obj
 0001:0002752a       ?throw_op@LIR_Assembler@@QAEXVRInfo@@0PAVCodeEmitInfo@@H@Z 0802852a f   c1_LIRAssembler_i486.obj
 0001:00027602       ?shift_op@LIR_Assembler@@QAEXW4LIR_Code@@VRInfo@@111@Z 08028602 f   c1_LIRAssembler_i486.obj
 0001:00027822       ?shift_op@LIR_Assembler@@QAEXW4LIR_Code@@VRInfo@@H1@Z 08028822 f   c1_LIRAssembler_i486.obj
 0001:000278d1       ?push_parameter@LIR_Assembler@@QAEXPAVRegisterImpl@@H@Z 080288d1 f   c1_LIRAssembler_i486.obj
 0001:0002790f       ?push_parameter@LIR_Assembler@@QAEXHH@Z 0802890f f   c1_LIRAssembler_i486.obj
 0001:0002794d       ?emit_arraycopy@LIR_Assembler@@UAEXPAVLIR_OpArrayCopy@@@Z 0802894d f   c1_LIRAssembler_i486.obj
 0001:00027cce       ?set_code_pc@StaticCallStub@@UAEXPAE@Z 08028cce f i c1_LIRAssembler_i486.obj
 0001:00027cd8       ?visit@StaticCallStub@@UAEXPAVLIR_OpVisitState@@@Z 08028cd8 f i c1_LIRAssembler_i486.obj
 0001:00027ce6       ?emit_lock@LIR_Assembler@@UAEXPAVLIR_OpLock@@@Z 08028ce6 f   c1_LIRAssembler_i486.obj
 0001:00027dcb       ?monitor_address@LIR_Assembler@@QAEXHVRInfo@@@Z 08028dcb f   c1_LIRAssembler_i486.obj
 0001:00027e09       ?align_backward_branch_target@LIR_Assembler@@QAEXXZ 08028e09 f   c1_LIRAssembler_i486.obj
 0001:00027e14       ?negate@LIR_Assembler@@QAEXPAVLIR_OprDesc@@0@Z 08028e14 f   c1_LIRAssembler_i486.obj
 0001:00027f3b       ?leal@LIR_Assembler@@QAEXPAVLIR_OprDesc@@0@Z 08028f3b f   c1_LIRAssembler_i486.obj
 0001:00027f9a       ?dup_fpu@LIR_Assembler@@QAEXVRInfo@@0@Z 08028f9a f   c1_LIRAssembler_i486.obj
 0001:00027ff8       ?rt_call@LIR_Assembler@@QAEXPAEVRInfo@@HH@Z 08028ff8 f   c1_LIRAssembler_i486.obj
 0001:00028018       ?new_multi_array@LIR_Assembler@@QAEXHVRInfo@@PAVCodeEmitInfo@@@Z 08029018 f   c1_LIRAssembler_i486.obj
 0001:00028089       ?volatile_move_op@LIR_Assembler@@QAEXPAVLIR_OprDesc@@0W4BasicType@@W4LIR_PatchCode@LIR_Op1@@PAVCodeEmitInfo@@@Z 08029089 f   c1_LIRAssembler_i486.obj
 0001:0002832f       ?membar@LIR_Assembler@@QAEXXZ 0802932f f   c1_LIRAssembler_i486.obj
 0001:00028337       ?get_thread@LIR_Assembler@@QAEXPAVLIR_OprDesc@@@Z 08029337 f   c1_LIRAssembler_i486.obj
 0001:00028350       ?spec@virtual_call_Relocation@@SA?AVRelocationHolder@@PAE0@Z 08029350 f i c1_LIRAssembler_i486.obj
 0001:0002839c       ?value@CallRelocation@@UAEPAEXZ 0802939c f i c1_LIRAssembler_i486.obj
 0001:000283a1       ?set_value@CallRelocation@@UAEXPAE@Z 080293a1 f i c1_LIRAssembler_i486.obj
 0001:000283af       ??0Address@@QAE@XZ         080293af f i c1_LIRAssembler_i486.obj
 0001:000283e5       ?as_jint_lo@LIR_Const@@QBEHXZ 080293e5 f i c1_LIRAssembler_i486.obj
 0001:00028411       ?as_jint_hi@LIR_Const@@QBEHXZ 08029411 f i c1_LIRAssembler_i486.obj
 0001:00028446       ?is_one_float@LIR_Const@@QAEHXZ 08029446 f i c1_LIRAssembler_i486.obj
 0001:00028491       ?is_one_double@LIR_Const@@QAEHXZ 08029491 f i c1_LIRAssembler_i486.obj
 0001:000284d8       ?as_register_lo@LIR_OprDesc@@QBEPAVRegisterImpl@@XZ 080294d8 f i c1_LIRAssembler_i486.obj
 0001:000284d8       ?as_register@LIR_OprDesc@@QBEPAVRegisterImpl@@XZ 080294d8 f i c1_LIRAssembler_i486.obj
 0001:000284f7       ?as_register_hi@LIR_OprDesc@@QBEPAVRegisterImpl@@XZ 080294f7 f i c1_LIRAssembler_i486.obj
 0001:00028516       ??0CodeEmitInfo@@QAE@PAVLIR_Emitter@@HPAVintStack@@PAVValueStack@@PAVExceptionScope@@PAVRInfoCollection@@@Z 08029516 f   c1_LIREmitter.obj
 0001:00028569       ??0CodeEmitInfo@@QAE@PAV0@H@Z 08029569 f   c1_LIREmitter.obj
 0001:0002861c       ?set_local_mapping@CodeEmitInfo@@QAEXPAVLocalMapping@@@Z 0802961c f   c1_LIREmitter.obj
 0001:0002864f       ?record_spilled_oops@CodeEmitInfo@@QBEXPAVFrameMap@@PAVOopMap@@@Z 0802964f f   c1_LIREmitter.obj
 0001:000286b1       ?get_cache_reg@CodeEmitInfo@@QBE?AVRInfo@@HW4ValueTag@@@Z 080296b1 f   c1_LIREmitter.obj
 0001:000286dc       ?get_cache_reg_for_local_offset@CodeEmitInfo@@QBE?AVRInfo@@H@Z 080296dc f   c1_LIREmitter.obj
 0001:00028704       ?oop_map@CodeEmitInfo@@AAEPAVOopMap@@XZ 08029704 f   c1_LIREmitter.obj
 0001:0002871c       ?compute_debug_info@CodeEmitInfo@@QAEXXZ 0802971c f   c1_LIREmitter.obj
 0001:000287e4       ?record_debug_info@CodeEmitInfo@@QAEXPAVDebugInformationRecorder@@HH@Z 080297e4 f   c1_LIREmitter.obj
 0001:0002880e       ?record_debug_info@IRScopeDebugInfo@@QAEXPAVDebugInformationRecorder@@@Z 0802980e f i c1_LIREmitter.obj
 0001:00028860       ?create_oop_map@CodeEmitInfo@@AAEPAVOopMap@@XZ 08029860 f   c1_LIREmitter.obj
 0001:000289d4       ?find_next@ciLocalMapIterator@@AAEXXZ 080299d4 f i c1_LIREmitter.obj
 0001:000289fd       ?is_oop@ciLocalMap@@QBEHHH@Z 080299fd f i c1_LIREmitter.obj
 0001:00028a33       ??0ciLocalMapIterator@@QAE@PAVciLocalMap@@H@Z 08029a33 f i c1_LIREmitter.obj
 0001:00028a72       ?create_oop_map_for_own_signature@CodeEmitInfo@@AAEPAVOopMap@@XZ 08029a72 f   c1_LIREmitter.obj
 0001:00028be9       ?add_register_oop@CodeEmitInfo@@QAEXVRInfo@@@Z 08029be9 f   c1_LIREmitter.obj
 0001:00028c88       ?add_registers_to_oop_map@CodeEmitInfo@@AAEXPAVOopMap@@@Z 08029c88 f   c1_LIREmitter.obj
 0001:00028cfc       ?location_for_monitor_lock_index@CodeEmitInfo@@AAE?AVLocation@@H@Z 08029cfc f   c1_LIREmitter.obj
 0001:00028d69       ?location_for_monitor_object_index@CodeEmitInfo@@AAE?AVLocation@@H@Z 08029d69 f   c1_LIREmitter.obj
 0001:00028dd6       ?location_for_name@CodeEmitInfo@@AAE?AVLocation@@HW4Type@2@HH@Z 08029dd6 f   c1_LIREmitter.obj
 0001:00028e4c       ?location_for_local_offset@CodeEmitInfo@@AAE?AVLocation@@HW4Type@2@@Z 08029e4c f   c1_LIREmitter.obj
 0001:00028ebc       ?scope_value_for_register@CodeEmitInfo@@AAEXVRInfo@@PAPAVScopeValue@@1W4Type@Location@@@Z 08029ebc f   c1_LIREmitter.obj
 0001:0002918c       ?scope_value_for_local_offset@CodeEmitInfo@@AAEPAVScopeValue@@HW4Type@Location@@PAPAV2@@Z 0802a18c f   c1_LIREmitter.obj
 0001:000292a2       ?compute_debug_info_for_scope@CodeEmitInfo@@AAEPAVIRScopeDebugInfo@@PAVIRScope@@HPAV?$GrowableArray@PAVScopeValue@@@@HVValues@@H@Z 0802a2a2 f   c1_LIREmitter.obj
 0001:000295de       ?opr2location_type@CodeEmitInfo@@AAE?AW4Type@Location@@PAVLIR_OprDesc@@@Z 0802a5de f   c1_LIREmitter.obj
 0001:0002961e       ?append_scope_value@CodeEmitInfo@@AAEXPAVLIR_OprDesc@@PAV?$GrowableArray@PAVScopeValue@@@@@Z 0802a61e f   c1_LIREmitter.obj
 0001:000299cc       ?lir_stack2value_stack@CodeEmitInfo@@AAEPAV?$GrowableArray@PAVScopeValue@@@@PAV?$GrowableArray@PAVLIR_OprDesc@@@@@Z 0802a9cc f   c1_LIREmitter.obj
 0001:00029a2b       ?set_bailout@LIR_Emitter@@QAEXPBD@Z 0802aa2b f   c1_LIREmitter.obj
 0001:00029a34       ?check_double_address@LIR_Emitter@@QAEXH@Z 0802aa34 f   c1_LIREmitter.obj
 0001:00029a5c       ?method@LIR_Emitter@@QBEPAVciMethod@@XZ 0802aa5c f   c1_LIREmitter.obj
 0001:00029a63       ?opr2int@LIR_Emitter@@AAEHPAVLIR_OprDesc@@@Z 0802aa63 f   c1_LIREmitter.obj
 0001:00029ab1       ?opr2long@LIR_Emitter@@AAE_JPAVLIR_OprDesc@@@Z 0802aab1 f   c1_LIREmitter.obj
 0001:00029aff       ?opr2intLo@LIR_Emitter@@AAEHPAVLIR_OprDesc@@@Z 0802aaff f   c1_LIREmitter.obj
 0001:00029b56       ?opr2intHi@LIR_Emitter@@AAEHPAVLIR_OprDesc@@@Z 0802ab56 f   c1_LIREmitter.obj
 0001:00029bc2       ?opr2jobject@LIR_Emitter@@AAEPAV_jobject@@PAVLIR_OprDesc@@@Z 0802abc2 f   c1_LIREmitter.obj
 0001:00029bd0       ?jobject2reg_with_patching@LIR_Emitter@@QAEXVRInfo@@PAVciObject@@PAVCodeEmitInfo@@@Z 0802abd0 f   c1_LIREmitter.obj
 0001:00029c0d       ?long2address@LIR_Emitter@@AAE?AVRInfo@@PAVLIR_OprDesc@@@Z 0802ac0d f   c1_LIREmitter.obj
 0001:00029c3e       ??0LIR_Emitter@@QAE@PAVCompilation@@@Z 0802ac3e f   c1_LIREmitter.obj
 0001:00029c57       ?start_block@LIR_Emitter@@QAEXPAVBlockBegin@@@Z 0802ac57 f   c1_LIREmitter.obj
 0001:00029c87       ?set_fpu_result@LIR_Emitter@@QAEXVRInfo@@@Z 0802ac87 f   c1_LIREmitter.obj
 0001:00029c96       ?fpop@LIR_Emitter@@QAEXXZ  0802ac96 f   c1_LIREmitter.obj
 0001:00029c9e       ?remove_fpu_result@LIR_Emitter@@QAEXVRInfo@@@Z 0802ac9e f   c1_LIREmitter.obj
 0001:00029cad       ?set_fpu_stack_empty@LIR_Emitter@@QAEXXZ 0802acad f   c1_LIREmitter.obj
 0001:00029cb5       ?bind_block_entry@LIR_Emitter@@QAEXPAVBlockBegin@@@Z 0802acb5 f   c1_LIREmitter.obj
 0001:00029cc8       ?init_local@LIR_Emitter@@AAEXPAVIRScope@@H@Z 0802acc8 f   c1_LIREmitter.obj
 0001:00029cf5       ?std_entry@LIR_Emitter@@QAEXPAVIRScope@@PAVintStack@@VRInfo@@2@Z 0802acf5 f   c1_LIREmitter.obj
 0001:00029dcf       ?copy_fpu_item@LIR_Emitter@@QAEXVRInfo@@PAVLIR_OprDesc@@@Z 0802adcf f   c1_LIREmitter.obj
 0001:00029df1       ?push_item@LIR_Emitter@@QAEXPAVLIR_OprDesc@@@Z 0802adf1 f   c1_LIREmitter.obj
 0001:00029e00       ?opr2local@LIR_Emitter@@QAEXHPAVLIR_OprDesc@@@Z 0802ae00 f   c1_LIREmitter.obj
 0001:00029f32       ?move@LIR_Emitter@@QAEXPAVLIR_OprDesc@@VRInfo@@@Z 0802af32 f   c1_LIREmitter.obj
 0001:0002a1e3       ?round@LIR_Emitter@@QAEXHPAVLIR_OprDesc@@@Z 0802b1e3 f   c1_LIREmitter.obj
 0001:0002a213       ?spill@LIR_Emitter@@QAEXHPAVLIR_OprDesc@@@Z 0802b213 f   c1_LIREmitter.obj
 0001:0002a2dc       ?move_spill@LIR_Emitter@@QAEXHHPAVValueType@@VRInfo@@@Z 0802b2dc f   c1_LIREmitter.obj
 0001:0002a3d2       ?null_check@LIR_Emitter@@QAEXPAVLIR_OprDesc@@PAVCodeEmitInfo@@@Z 0802b3d2 f   c1_LIREmitter.obj
 0001:0002a3f4       ?visit@ArrayStoreExceptionStub@@UAEXPAVLIR_OpVisitState@@@Z 0802b3f4 f i c1_LIREmitter.obj
 0001:0002a3f4       ?visit@DivByZeroStub@@UAEXPAVLIR_OpVisitState@@@Z 0802b3f4 f i c1_LIREmitter.obj
 0001:0002a406       ?array_range_check@LIR_Emitter@@QAEXPAVLIR_OprDesc@@0PAVCodeEmitInfo@@1@Z 0802b406 f   c1_LIREmitter.obj
 0001:0002a4e4       ?length_range_check@LIR_Emitter@@QAEXPAVLIR_OprDesc@@0PAVCodeEmitInfo@@@Z 0802b4e4 f   c1_LIREmitter.obj
 0001:0002a577       ?array_store_check@LIR_Emitter@@QAEXPAVLIR_OprDesc@@0VRInfo@@11PAVCodeEmitInfo@@@Z 0802b577 f   c1_LIREmitter.obj
 0001:0002a5b1       ?nio_range_check@LIR_Emitter@@QAEXPAVLIR_OprDesc@@0VRInfo@@PAVCodeEmitInfo@@@Z 0802b5b1 f   c1_LIREmitter.obj
 0001:0002a6cd       ?array_length@LIR_Emitter@@QAEXVRInfo@@PAVLIR_OprDesc@@PAVCodeEmitInfo@@@Z 0802b6cd f   c1_LIREmitter.obj
 0001:0002a6f9       ?field_load@LIR_Emitter@@QAEXVRInfo@@PAVciField@@PAVLIR_OprDesc@@HHHPAVCodeEmitInfo@@@Z 0802b6f9 f   c1_LIREmitter.obj
 0001:0002a8cc       ?field_store_long@LIR_Emitter@@AAEXPAVLIR_OprDesc@@H0HPAVCodeEmitInfo@@@Z 0802b8cc f   c1_LIREmitter.obj
 0001:0002aa4d       ?field_store@LIR_Emitter@@QAEXPAVciField@@PAVLIR_OprDesc@@H1HHPAVCodeEmitInfo@@VRInfo@@@Z 0802ba4d f   c1_LIREmitter.obj
 0001:0002ad6f       ?negate@LIR_Emitter@@QAEXVRInfo@@PAVLIR_OprDesc@@@Z 0802bd6f f   c1_LIREmitter.obj
 0001:0002ad91       ?arithmetic_op@LIR_Emitter@@AAEXW4Code@Bytecodes@@PAVLIR_OprDesc@@11HVRInfo@@PAVCodeEmitInfo@@@Z 0802bd91 f   c1_LIREmitter.obj
 0001:0002af32       ?arithmetic_op_int@LIR_Emitter@@QAEXW4Code@Bytecodes@@PAVLIR_OprDesc@@11VRInfo@@@Z 0802bf32 f   c1_LIREmitter.obj
 0001:0002af51       ?arithmetic_op_long@LIR_Emitter@@QAEXW4Code@Bytecodes@@PAVLIR_OprDesc@@11PAVCodeEmitInfo@@@Z 0802bf51 f   c1_LIREmitter.obj
 0001:0002af74       ?arithmetic_op_fpu@LIR_Emitter@@QAEXW4Code@Bytecodes@@PAVLIR_OprDesc@@11H@Z 0802bf74 f   c1_LIREmitter.obj
 0001:0002af97       ?arithmetic_idiv@LIR_Emitter@@QAEXW4Code@Bytecodes@@PAVLIR_OprDesc@@11VRInfo@@PAVCodeEmitInfo@@@Z 0802bf97 f   c1_LIREmitter.obj
 0001:0002b0e6       ?shift_op@LIR_Emitter@@QAEXW4Code@Bytecodes@@VRInfo@@PAVLIR_OprDesc@@21@Z 0802c0e6 f   c1_LIREmitter.obj
 0001:0002b245       ?logic_op@LIR_Emitter@@QAEXW4Code@Bytecodes@@VRInfo@@PAVLIR_OprDesc@@2@Z 0802c245 f   c1_LIREmitter.obj
 0001:0002b2bf       ?compare_op@LIR_Emitter@@QAEXW4Code@Bytecodes@@VRInfo@@PAVLIR_OprDesc@@2@Z 0802c2bf f   c1_LIREmitter.obj
 0001:0002b39f       ?convert_op@LIR_Emitter@@QAEXW4Code@Bytecodes@@PAVLIR_OprDesc@@VRInfo@@H@Z 0802c39f f   c1_LIREmitter.obj
 0001:0002b3c5       ?call_op@LIR_Emitter@@QAEXW4Code@Bytecodes@@PBVBasicTypeArray@@PAVCodeEmitInfo@@HHVRInfo@@PAVLIR_OprDesc@@@Z 0802c3c5 f   c1_LIREmitter.obj
 0001:0002b4d4       ?monitor_enter@LIR_Emitter@@QAEXVRInfo@@000HPAVCodeEmitInfo@@1@Z 0802c4d4 f   c1_LIREmitter.obj
 0001:0002b52e       ?monitor_exit@LIR_Emitter@@QAEXVRInfo@@00H@Z 0802c52e f   c1_LIREmitter.obj
 0001:0002b595       ?goto_op@LIR_Emitter@@QAEXPAVBlockBegin@@PAVCodeEmitInfo@@@Z 0802c595 f   c1_LIREmitter.obj
 0001:0002b5a8       ?lir_cond@LIR_Emitter@@AAE?AW4LIR_Condition@LIR_OpBranch@@W4Condition@Instruction@@@Z 0802c5a8 f   c1_LIREmitter.obj
 0001:0002b5f4       ?if_op@LIR_Emitter@@QAEXHW4Condition@Instruction@@PAVLIR_OprDesc@@1PAVBlockBegin@@22PAVCodeEmitInfo@@@Z 0802c5f4 f   c1_LIREmitter.obj
 0001:0002b6f4       ?tableswitch_op@LIR_Emitter@@QAEXPAVLIR_OprDesc@@HPAVBlockBegin@@@Z 0802c6f4 f   c1_LIREmitter.obj
 0001:0002b728       ?lookupswitch_range_op@LIR_Emitter@@QAEXPAVLIR_OprDesc@@HHPAVBlockBegin@@@Z 0802c728 f   c1_LIREmitter.obj
 0001:0002b818       ?ifop_phase2@LIR_Emitter@@QAEXVRInfo@@PAVLIR_OprDesc@@1W4Condition@Instruction@@@Z 0802c818 f   c1_LIREmitter.obj
 0001:0002b871       ?ifop_phase1@LIR_Emitter@@QAEXW4Condition@Instruction@@PAVLIR_OprDesc@@1@Z 0802c871 f   c1_LIREmitter.obj
 0001:0002b894       ?new_instance@LIR_Emitter@@QAEXVRInfo@@PAVciInstanceKlass@@0000PAVCodeEmitInfo@@@Z 0802c894 f   c1_LIREmitter.obj
 0001:0002b976       ?new_multi_array@LIR_Emitter@@QAEXVRInfo@@PAVciKlass@@H0PAVCodeEmitInfo@@2@Z 0802c976 f   c1_LIREmitter.obj
 0001:0002b9a0       ?checkcast_op@LIR_Emitter@@QAEXPAVLIR_OprDesc@@0PAVciKlass@@VRInfo@@2HPAVCodeEmitInfo@@3@Z 0802c9a0 f   c1_LIREmitter.obj
 0001:0002b9d9       ?instanceof_op@LIR_Emitter@@QAEXPAVLIR_OprDesc@@0PAVciKlass@@VRInfo@@2HPAVCodeEmitInfo@@@Z 0802c9d9 f   c1_LIREmitter.obj
 0001:0002ba0f       ?instance_of_test_op@LIR_Emitter@@QAEXVRInfo@@PAVLIR_OprDesc@@PAVciKlass@@0PAVBlockBegin@@3HPAVCodeEmitInfo@@4@Z 0802ca0f f   c1_LIREmitter.obj
 0001:0002ba24       ?handler_entry@LIR_Emitter@@QAEXXZ 0802ca24 f   c1_LIREmitter.obj
 0001:0002ba24       ?nop@LIR_Emitter@@QAEXXZ   0802ca24 f   c1_LIREmitter.obj
 0001:0002ba2f       ?safepoint_nop@LIR_Emitter@@QAEXPAVCodeEmitInfo@@@Z 0802ca2f f   c1_LIREmitter.obj
 0001:0002ba3e       ?align_backward_branch@LIR_Emitter@@QAEXXZ 0802ca3e f   c1_LIREmitter.obj
 0001:0002ba46       ?return_op@LIR_Emitter@@QAEXPAVLIR_OprDesc@@@Z 0802ca46 f   c1_LIREmitter.obj
 0001:0002ba55       ?arraycopy@LIR_Emitter@@QAEXPAVLIR_OprDesc@@0000VRInfo@@HPAVciType@@PAVCodeEmitInfo@@@Z 0802ca55 f   c1_LIREmitter.obj
 0001:0002ba8d       ?set_24bit_fpu_precision@LIR_Emitter@@QAEXXZ 0802ca8d f   c1_LIREmitter.obj
 0001:0002ba95       ?restore_fpu_precision@LIR_Emitter@@QAEXXZ 0802ca95 f   c1_LIREmitter.obj
 0001:0002ba9d       ?getClass@LIR_Emitter@@QAEXVRInfo@@0PAVCodeEmitInfo@@@Z 0802ca9d f   c1_LIREmitter.obj
 0001:0002bad5       ?membar@LIR_Emitter@@QAEXXZ 0802cad5 f   c1_LIREmitter.obj
 0001:0002badd       ?set@Location@@AAEXW4Where@1@W4Type@1@I@Z 0802cadd f i c1_LIREmitter.obj
 0001:0002badd       ??0Location@@AAE@W4Where@0@W4Type@0@I@Z 0802cadd f i c1_LIREmitter.obj
 0001:0002bb15       ?compiled_match@ProfilerNode@@UBEHPAVmethodOopDesc@@@Z 0802cb15 f i c1_LIREmitter.obj
 0001:0002bb15       ?equals@ScopeValue@@UBEHPAV1@@Z 0802cb15 f i c1_LIREmitter.obj
 0001:0002bb15       ?unknown_compiled_match@ProfilerNode@@UBEHPBVCodeBlob@@@Z 0802cb15 f i c1_LIREmitter.obj
 0001:0002bb15       ?should_collect_gen0_first@TwoGenerationCollectorPolicy@@UAEHW4Cause@GCCause@@@Z 0802cb15 f i c1_LIREmitter.obj
 0001:0002bb15       ?equals@ConstantLongValue@@UBEHPAVScopeValue@@@Z 0802cb15 f i c1_LIREmitter.obj
 0001:0002bb15       ?possible_gc_point@GeneratePairingInfo@@EAEHPAVBytecodeStream@@@Z 0802cb15 f i c1_LIREmitter.obj
 0001:0002bb15       ?equals@ConstantOopWriteValue@@UBEHPAVScopeValue@@@Z 0802cb15 f i c1_LIREmitter.obj
 0001:0002bb15       ?equals@ConstantOopReadValue@@UBEHPAVScopeValue@@@Z 0802cb15 f i c1_LIREmitter.obj
 0001:0002bb15       ?equals@ConstantIntValue@@UBEHPAVScopeValue@@@Z 0802cb15 f i c1_LIREmitter.obj
 0001:0002bb15       ?caller_must_gc_arguments@CodeBlob@@UBEHPAVJavaThread@@@Z 0802cb15 f i c1_LIREmitter.obj
 0001:0002bb15       ?verifyChunkInFreeLists@BinaryTreeDictionary@@UBEHPAVFreeChunk@@@Z 0802cb15 f i c1_LIREmitter.obj
 0001:0002bb15       ?possible_gc_point@ResolveOopMapConflicts@@EAEHPAVBytecodeStream@@@Z 0802cb15 f i c1_LIREmitter.obj
 0001:0002bb15       ?equals@ConstantDoubleValue@@UBEHPAVScopeValue@@@Z 0802cb15 f i c1_LIREmitter.obj
 0001:0002bb15       ?is_equal@Instruction@@UBEHPAV1@@Z 0802cb15 f i c1_LIREmitter.obj
 0001:0002bb15       ?interpreted_match@ProfilerNode@@UBEHPAVmethodOopDesc@@@Z 0802cb15 f i c1_LIREmitter.obj
 0001:0002bb15       ?read_ref_needs_barrier@ModRefBarrierSet@@UAEHPAPAVoopDesc@@@Z 0802cb15 f i c1_LIREmitter.obj
 0001:0002bb27       ?rinfo@LIR_OprDesc@@QBE?AVRInfo@@XZ 0802cb27 f i c1_LIREmitter.obj
 0001:0002bb3e       ?call_opt_virtual@LIR_List@@QAEXVRInfo@@PAVLIR_OprDesc@@PAEPAVCodeEmitInfo@@PAVStaticCallStub@@@Z 0802cb3e f i c1_LIREmitter.obj
 0001:0002bb92       ?call_static@LIR_List@@QAEXPAVLIR_OprDesc@@PAEPAVCodeEmitInfo@@PAVStaticCallStub@@@Z 0802cb92 f i c1_LIREmitter.obj
 0001:0002bbe9       ?call_virtual@LIR_List@@QAEXVRInfo@@PAVLIR_OprDesc@@PAEPAVCodeEmitInfo@@@Z 0802cbe9 f i c1_LIREmitter.obj
 0001:0002bc3b       ?membar@LIR_List@@QAEXXZ   0802cc3b f i c1_LIREmitter.obj
 0001:0002bc78       ?nop@LIR_List@@QAEXPAVCodeEmitInfo@@@Z 0802cc78 f i c1_LIREmitter.obj
 0001:0002bcba       ?backward_branch_target@LIR_List@@QAEXXZ 0802ccba f i c1_LIREmitter.obj
 0001:0002bcf7       ?align_entry@LIR_List@@QAEXXZ 0802ccf7 f i c1_LIREmitter.obj
 0001:0002bd34       ?verified_entry_point@LIR_List@@QAEXXZ 0802cd34 f i c1_LIREmitter.obj
 0001:0002bd71       ?build_frame@LIR_List@@QAEXXZ 0802cd71 f i c1_LIREmitter.obj
 0001:0002bdae       ?negate@LIR_List@@QAEXVRInfo@@0@Z 0802cdae f i c1_LIREmitter.obj
 0001:0002be11       ?push_fpu@LIR_List@@QAEXVRInfo@@@Z 0802ce11 f i c1_LIREmitter.obj
 0001:0002be6e       ?pop_fpu@LIR_List@@QAEXVRInfo@@@Z 0802ce6e f i c1_LIREmitter.obj
 0001:0002becb       ?dup_fpu@LIR_List@@QAEXVRInfo@@0@Z 0802cecb f i c1_LIREmitter.obj
 0001:0002bf2e       ?round32bit@LIR_List@@QAEXVRInfo@@H@Z 0802cf2e f i c1_LIREmitter.obj
 0001:0002bf96       ?move@LIR_List@@QAEXPAVLIR_OprDesc@@0PAVCodeEmitInfo@@@Z 0802cf96 f i c1_LIREmitter.obj
 0001:0002bf96       ?move@LIR_List@@QAEXPAVLIR_Address@@PAVLIR_OprDesc@@PAVCodeEmitInfo@@@Z 0802cf96 f i c1_LIREmitter.obj
 0001:0002bff1       ?reg2reg@LIR_List@@QAEXVRInfo@@0W4BasicType@@@Z 0802cff1 f i c1_LIREmitter.obj
 0001:0002c05d       ?int2stack@LIR_List@@QAEXHH@Z 0802d05d f i c1_LIREmitter.obj
 0001:0002c0c3       ?long2stack@LIR_List@@QAEX_JH@Z 0802d0c3 f i c1_LIREmitter.obj
 0001:0002c12d       ?oop2stack@LIR_List@@QAEXPAV_jobject@@H@Z 0802d12d f i c1_LIREmitter.obj
 0001:0002c193       ?int2reg@LIR_List@@QAEXHVRInfo@@@Z 0802d193 f i c1_LIREmitter.obj
 0001:0002c1f6       ?oop2reg@LIR_List@@QAEXPAV_jobject@@VRInfo@@@Z 0802d1f6 f i c1_LIREmitter.obj
 0001:0002c25c       ?float2reg@LIR_List@@QAEXMVRInfo@@@Z 0802d25c f i c1_LIREmitter.obj
 0001:0002c2c1       ?double2reg@LIR_List@@QAEXNVRInfo@@@Z 0802d2c1 f i c1_LIREmitter.obj
 0001:0002c328       ?return_op@LIR_List@@QAEXPAVLIR_OprDesc@@@Z 0802d328 f i c1_LIREmitter.obj
 0001:0002c379       ?convert@LIR_List@@QAEXW4Code@Bytecodes@@PAVLIR_OprDesc@@1H@Z 0802d379 f i c1_LIREmitter.obj
 0001:0002c3d6       ?logical_and@LIR_List@@QAEXVRInfo@@PAVLIR_OprDesc@@0@Z 0802d3d6 f i c1_LIREmitter.obj
 0001:0002c44e       ?logical_or@LIR_List@@QAEXVRInfo@@PAVLIR_OprDesc@@0@Z 0802d44e f i c1_LIREmitter.obj
 0001:0002c4c6       ?logical_xor@LIR_List@@QAEXVRInfo@@PAVLIR_OprDesc@@0@Z 0802d4c6 f i c1_LIREmitter.obj
 0001:0002c53e       ?push@LIR_List@@QAEXPAVLIR_OprDesc@@@Z 0802d53e f i c1_LIREmitter.obj
 0001:0002c58f       ?unverified_entry_point@LIR_List@@QAEXVRInfo@@0@Z 0802d58f f i c1_LIREmitter.obj
 0001:0002c610       ?cmp@LIR_List@@QAEXW4LIR_Condition@LIR_OpBranch@@PAVLIR_OprDesc@@1PAVCodeEmitInfo@@@Z 0802d610 f i c1_LIREmitter.obj
 0001:0002c67d       ?sub@LIR_List@@QAEXPAVLIR_OprDesc@@00PAVCodeEmitInfo@@@Z 0802d67d f i c1_LIREmitter.obj
 0001:0002c6e5       ?mul@LIR_List@@QAEXPAVLIR_OprDesc@@00@Z 0802d6e5 f i c1_LIREmitter.obj
 0001:0002c74a       ?mul_strictfp@LIR_List@@QAEXPAVLIR_OprDesc@@00@Z 0802d74a f i c1_LIREmitter.obj
 0001:0002c7af       ?div@LIR_List@@QAEXPAVLIR_OprDesc@@00PAVCodeEmitInfo@@@Z 0802d7af f i c1_LIREmitter.obj
 0001:0002c817       ?div_strictfp@LIR_List@@QAEXPAVLIR_OprDesc@@00@Z 0802d817 f i c1_LIREmitter.obj
 0001:0002c87c       ?rem@LIR_List@@QAEXPAVLIR_OprDesc@@00PAVCodeEmitInfo@@@Z 0802d87c f i c1_LIREmitter.obj
 0001:0002c8e4       ?lcmp2int@LIR_List@@QAEXVRInfo@@00@Z 0802d8e4 f i c1_LIREmitter.obj
 0001:0002c96a       ?load_stack_address_monitor@LIR_List@@QAEXHVRInfo@@@Z 0802d96a f i c1_LIREmitter.obj
 0001:0002c9cd       ?set_24bit_fpu@LIR_List@@QAEXXZ 0802d9cd f i c1_LIREmitter.obj
 0001:0002ca0a       ?restore_fpu@LIR_List@@QAEXXZ 0802da0a f i c1_LIREmitter.obj
 0001:0002ca47       ?allocate_multi_array@LIR_List@@QAEXVRInfo@@HPAVCodeEmitInfo@@@Z 0802da47 f i c1_LIREmitter.obj
 0001:0002caad       ?arraycopy@LIR_List@@QAEXPAVLIR_OprDesc@@0000HPAVciType@@0PAVCodeEmitInfo@@@Z 0802daad f i c1_LIREmitter.obj
 0001:0002cb22       ?fpop_raw@LIR_List@@QAEXXZ 0802db22 f i c1_LIREmitter.obj
 0001:0002cb5f       ?set_fpu_stack_empty@LIR_List@@QAEXXZ 0802db5f f i c1_LIREmitter.obj
 0001:0002cb9c       ?jvmpi_method_enter@LIR_List@@QAEXPAVCodeEmitInfo@@@Z 0802db9c f i c1_LIREmitter.obj
 0001:0002cbde       ?monitorenter_at_entry@LIR_Emitter@@AAEXVRInfo@@PAVCodeEmitInfo@@@Z 0802dbde f   c1_LIREmitter_i486.obj
 0001:0002cc3b       ?return_op_prolog@LIR_Emitter@@QAEXH@Z 0802dc3b f   c1_LIREmitter_i486.obj
 0001:0002cc5d       ?new_type_array@LIR_Emitter@@QAEXVRInfo@@W4BasicType@@PAVLIR_OprDesc@@00000PAVCodeEmitInfo@@@Z 0802dc5d f   c1_LIREmitter_i486.obj
 0001:0002cd0d       ?new_object_array@LIR_Emitter@@QAEXVRInfo@@PAVciKlass@@PAVLIR_OprDesc@@00000PAVCodeEmitInfo@@3@Z 0802dd0d f   c1_LIREmitter_i486.obj
 0001:0002cdcd       ?array_address@LIR_Emitter@@AAEPAVLIR_Address@@PAVLIR_OprDesc@@0HW4BasicType@@@Z 0802ddcd f   c1_LIREmitter_i486.obj
 0001:0002cef1       ?indexed_load@LIR_Emitter@@QAEXVRInfo@@W4BasicType@@PAVLIR_OprDesc@@2PAVCodeEmitInfo@@@Z 0802def1 f   c1_LIREmitter_i486.obj
 0001:0002d048       ?indexed_store@LIR_Emitter@@QAEXW4BasicType@@PAVLIR_OprDesc@@11VRInfo@@PAVCodeEmitInfo@@@Z 0802e048 f   c1_LIREmitter_i486.obj
 0001:0002d1eb       ?field_store_byte@LIR_Emitter@@AAEXPAVLIR_OprDesc@@H0VRInfo@@HPAVCodeEmitInfo@@@Z 0802e1eb f   c1_LIREmitter_i486.obj
 0001:0002d237       ?pop_item@LIR_Emitter@@QAEXPAVLIR_OprDesc@@@Z 0802e237 f   c1_LIREmitter_i486.obj
 0001:0002d2a1       ?math_intrinsic@LIR_Emitter@@QAEXW4IntrinsicId@ciMethod@@VRInfo@@PAVLIR_OprDesc@@1@Z 0802e2a1 f   c1_LIREmitter_i486.obj
 0001:0002d330       ?put_raw_unsafe@LIR_Emitter@@QAEXPAVLIR_OprDesc@@0H0W4BasicType@@@Z 0802e330 f   c1_LIREmitter_i486.obj
 0001:0002d4ad       ?get_raw_unsafe@LIR_Emitter@@QAEXVRInfo@@PAVLIR_OprDesc@@1HW4BasicType@@@Z 0802e4ad f   c1_LIREmitter_i486.obj
 0001:0002d610       ?get_Object_unsafe@LIR_Emitter@@QAEXVRInfo@@PAVLIR_OprDesc@@1W4BasicType@@@Z 0802e610 f   c1_LIREmitter_i486.obj
 0001:0002d767       ?put_Object_unsafe@LIR_Emitter@@QAEXPAVLIR_OprDesc@@00W4BasicType@@@Z 0802e767 f   c1_LIREmitter_i486.obj
 0001:0002d933       ?cmp_mem_int@LIR_Emitter@@QAEXW4LIR_Condition@LIR_OpBranch@@VRInfo@@HHPAVCodeEmitInfo@@@Z 0802e933 f   c1_LIREmitter_i486.obj
 0001:0002d951       ?cmp_reg_mem@LIR_Emitter@@QAEXW4LIR_Condition@LIR_OpBranch@@VRInfo@@1HW4BasicType@@PAVCodeEmitInfo@@@Z 0802e951 f   c1_LIREmitter_i486.obj
 0001:0002d9b1       ?strength_reduce_multiply@LIR_Emitter@@AAEHPAVLIR_OprDesc@@H00@Z 0802e9b1 f   c1_LIREmitter_i486.obj
 0001:0002dac5       ?store_stack_parameter@LIR_Emitter@@QAEXPAVLIR_OprDesc@@H@Z 0802eac5 f   c1_LIREmitter_i486.obj
 0001:0002db49       ?write_barrier@LIR_Emitter@@AAEXPAVLIR_OprDesc@@0@Z 0802eb49 f   c1_LIREmitter_i486.obj
 0001:0002dbee       ?leal@LIR_List@@QAEXPAVLIR_OprDesc@@0@Z 0802ebee f i c1_LIREmitter_i486.obj
 0001:0002dc3d       ?pop_reg@LIR_List@@QAEXVRInfo@@@Z 0802ec3d f i c1_LIREmitter_i486.obj
 0001:0002dc9a       ?sqrt@LIR_List@@QAEXVRInfo@@00@Z 0802ec9a f i c1_LIREmitter_i486.obj
 0001:0002dd20       ?sin@LIR_List@@QAEXVRInfo@@00@Z 0802ed20 f i c1_LIREmitter_i486.obj
 0001:0002dda6       ?cos@LIR_List@@QAEXVRInfo@@00@Z 0802eda6 f i c1_LIREmitter_i486.obj
 0001:0002de2c       ??0LIR_PeepholeState@@QAE@XZ 0802ee2c f   c1_LIROptimizer.obj
 0001:0002deee       ?initialize@LIR_PeepholeState@@QAEXPAVLocalMapping@@@Z 0802eeee f   c1_LIROptimizer.obj
 0001:0002df1b       ?clear_values@LIR_PeepholeState@@QAEXXZ 0802ef1b f   c1_LIROptimizer.obj
 0001:0002df2c       ?is_safe_to_delete@LIR_PeepholeState@@QBEHH@Z 0802ef2c f   c1_LIROptimizer.obj
 0001:0002df55       ?mark_safe_to_delete@LIR_PeepholeState@@QAEXH@Z 0802ef55 f   c1_LIROptimizer.obj
 0001:0002df7b       ?increment_ref@LIR_PeepholeState@@QAEXH@Z 0802ef7b f   c1_LIROptimizer.obj
 0001:0002dfb5       ?stack2index@LIR_PeepholeState@@AAEHPAVLIR_OprDesc@@@Z 0802efb5 f   c1_LIROptimizer.obj
 0001:0002dfe3       ?stack2indexLo@LIR_PeepholeState@@AAEHPAVLIR_OprDesc@@@Z 0802efe3 f   c1_LIROptimizer.obj
 0001:0002e01b       ?stack2indexHi@LIR_PeepholeState@@AAEHPAVLIR_OprDesc@@@Z 0802f01b f   c1_LIROptimizer.obj
 0001:0002e054       ?reg2index@LIR_PeepholeState@@AAEHPAVLIR_OprDesc@@@Z 0802f054 f   c1_LIROptimizer.obj
 0001:0002e08f       ?reg2indexLo@LIR_PeepholeState@@AAEHPAVLIR_OprDesc@@@Z 0802f08f f   c1_LIROptimizer.obj
 0001:0002e0d8       ?reg2indexHi@LIR_PeepholeState@@AAEHPAVLIR_OprDesc@@@Z 0802f0d8 f   c1_LIROptimizer.obj
 0001:0002e117       ?record_opr_reference@LIR_PeepholeState@@QAEHPAVLIR_OprDesc@@@Z 0802f117 f   c1_LIROptimizer.obj
 0001:0002e247       ?equivalent_register@LIR_PeepholeState@@QAEPAVLIR_OprDesc@@PAV2@@Z 0802f247 f   c1_LIROptimizer.obj
 0001:0002e26d       ?equivalent_register_or_constant@LIR_PeepholeState@@QAEPAVLIR_OprDesc@@PAV2@@Z 0802f26d f   c1_LIROptimizer.obj
 0001:0002e2a0       ?equivalent_register_or_stack@LIR_PeepholeState@@QAEPAVLIR_OprDesc@@PAV2@@Z 0802f2a0 f   c1_LIROptimizer.obj
 0001:0002e2d1       ?equivalent_address@LIR_PeepholeState@@QAEPAVLIR_OprDesc@@PAV2@@Z 0802f2d1 f   c1_LIROptimizer.obj
 0001:0002e34a       ?equivalent_opr@LIR_PeepholeState@@QAEPAVLIR_OprDesc@@PAV2@@Z 0802f34a f   c1_LIROptimizer.obj
 0001:0002e3f0       ?kill_stack_slot@LIR_PeepholeState@@AAEXH@Z 0802f3f0 f   c1_LIROptimizer.obj
 0001:0002e43a       ?kill_register@LIR_PeepholeState@@AAEXH@Z 0802f43a f   c1_LIROptimizer.obj
 0001:0002e4bd       ?set_defining_op@LIR_PeepholeState@@AAEXHH@Z 0802f4bd f   c1_LIROptimizer.obj
 0001:0002e4e6       ?kill_operand@LIR_PeepholeState@@QAEXPAVLIR_OprDesc@@H@Z 0802f4e6 f   c1_LIROptimizer.obj
 0001:0002e55b       ?kill_equivalents@LIR_PeepholeState@@QAEXPAVLIR_OprDesc@@@Z 0802f55b f   c1_LIROptimizer.obj
 0001:0002e5f5       ?do_move@LIR_PeepholeState@@QAEXPAVLIR_OprDesc@@0@Z 0802f5f5 f   c1_LIROptimizer.obj
 0001:0002e769       ?do_call@LIR_PeepholeState@@QAEXXZ 0802f769 f   c1_LIROptimizer.obj
 0001:0002e789       ?record_defining_op@LIR_PeepholeState@@QAEXPAVLIR_OprDesc@@H@Z 0802f789 f   c1_LIROptimizer.obj
 0001:0002e7cf       ?defining_op@LIR_PeepholeState@@QAEHPAVLIR_OprDesc@@@Z 0802f7cf f   c1_LIROptimizer.obj
 0001:0002e81c       ?start_forward_branch@LIR_PeepholeState@@QAEXPAVLabel@@@Z 0802f81c f   c1_LIROptimizer.obj
 0001:0002e83d       ?finish_forward_branch@LIR_PeepholeState@@QAEXPAVLabel@@@Z 0802f83d f   c1_LIROptimizer.obj
 0001:0002e887       ?set_disable_optimization@LIR_PeepholeState@@QAEXH@Z 0802f887 f   c1_LIROptimizer.obj
 0001:0002e8cd       ?allow_opto@LIR_Optimizer@@QAEHXZ 0802f8cd f   c1_LIROptimizer.obj
 0001:0002e8d6       ?record_opto@LIR_Optimizer@@QAEPAVLIR_OprDesc@@PAV2@0@Z 0802f8d6 f   c1_LIROptimizer.obj
 0001:0002e958       ?process_op@LIR_Optimizer@@QAEXXZ 0802f958 f   c1_LIROptimizer.obj
 0001:0002ea50       ?is_cache_reg@LIR_Optimizer@@QAEHPAVLIR_OprDesc@@@Z 0802fa50 f   c1_LIROptimizer.obj
 0001:0002ea7a       ?is_cached@LIR_Optimizer@@QAEHPAVLIR_OprDesc@@@Z 0802fa7a f   c1_LIROptimizer.obj
 0001:0002eaa8       ?opr_live_on_exit@LIR_Optimizer@@QAEHPAVLIR_OprDesc@@@Z 0802faa8 f   c1_LIROptimizer.obj
 0001:0002eb91       ?block_prolog@LIR_Optimizer@@QAEXXZ 0802fb91 f   c1_LIROptimizer.obj
 0001:0002ebb5       ?block_epilog@LIR_Optimizer@@QAEXXZ 0802fbb5 f   c1_LIROptimizer.obj
 0001:0002ec19       ?refcount@LIR_PeepholeState@@QBEHH@Z 0802fc19 f i c1_LIROptimizer.obj
 0001:0002ec35       ?record_opr_reference@LIR_Optimizer@@QAEXPAVLIR_OprDesc@@@Z 0802fc35 f   c1_LIROptimizer.obj
 0001:0002ec44       ?op_at@LIR_Optimizer@@QAEPAVLIR_Op@@H@Z 0802fc44 f   c1_LIROptimizer.obj
 0001:0002ec69       ?replace_op@LIR_Optimizer@@QAEXHPAVLIR_Op@@@Z 0802fc69 f   c1_LIROptimizer.obj
 0001:0002ecda       ?next_op_with_code@LIR_Optimizer@@QAEPAVLIR_Op@@W4LIR_Code@@@Z 0802fcda f   c1_LIROptimizer.obj
 0001:0002ecf9       ?replace_stack_opr@LIR_Optimizer@@QAEPAVLIR_OprDesc@@PAV2@@Z 0802fcf9 f   c1_LIROptimizer.obj
 0001:0002ed1e       ?result_substitute@LIR_Optimizer@@AAEXXZ 0802fd1e f   c1_LIROptimizer.obj
 0001:0002edf5       ?process_move@LIR_Optimizer@@AAEXPAVLIR_Op1@@@Z 0802fdf5 f   c1_LIROptimizer.obj
 0001:0002ef87       ?handle_opr@LIR_Optimizer@@QAEPAVLIR_OprDesc@@PAV2@W4OprMode@LIR_OpVisitState@@@Z 0802ff87 f   c1_LIROptimizer.obj
 0001:0002f010       ?maybe_opto@LIR_Optimizer@@QAEPAVLIR_OprDesc@@PAV2@0@Z 08030010 f i c1_LIROptimizer.obj
 0001:0002f074       ?record_register_oops@LIR_Optimizer@@QAEXPAVCodeEmitInfo@@@Z 08030074 f   c1_LIROptimizer.obj
 0001:0002f0c9       ?handle_info@LIR_Optimizer@@QAEXPAVCodeEmitInfo@@@Z 080300c9 f   c1_LIROptimizer.obj
 0001:0002f259       ?optimize@LIR_Optimizer@@QAEXXZ 08030259 f   c1_LIROptimizer.obj
 0001:0002f265       ?optimize@LIR_Optimizer@@QAEXPAVBlockList@@@Z 08030265 f   c1_LIROptimizer.obj
 0001:0002f294       ?optimize@LIR_Optimizer@@QAEXPAVBlockBegin@@@Z 08030294 f   c1_LIROptimizer.obj
 0001:0002f2fc       ??0LIR_Optimizer@@QAE@PAVIR@@@Z 080302fc f   c1_LIROptimizer.obj
 0001:0002f34e       ?with_type_of@LIR_OprDesc@@QAEPAV1@PAV1@@Z 0803034e f i c1_LIROptimizer.obj
 0001:0002f37e       ?is_equivalent@LIR_OprDesc@@QBEHPAV1@@Z 0803037e f i c1_LIROptimizer.obj
 0001:0002f3b8       ?is_type_compatible@LIR_OprDesc@@QBEHPAV1@@Z 080303b8 f i c1_LIROptimizer.obj
 0001:0002f3e9       ?optimize_move@LIR_Optimizer@@AAEHPAVLIR_Op1@@AAPAVLIR_OprDesc@@1@Z 080303e9 f   c1_LIROptimizer_i486.obj
 0001:0002f487       ?visit@LIR_Optimizer@@AAEXXZ 08030487 f i c1_LIROptimizer_i486.obj
 0001:0002f4a8       ?emit_op1@LIR_Optimizer@@UAEXPAVLIR_Op1@@@Z 080304a8 f   c1_LIROptimizer_i486.obj
 0001:0002f4ef       ?emit_op2@LIR_Optimizer@@UAEXPAVLIR_Op2@@@Z 080304ef f   c1_LIROptimizer_i486.obj
 0001:0002f819       ?emit_op3@LIR_Optimizer@@UAEXPAVLIR_Op3@@@Z 08030819 f   c1_LIROptimizer_i486.obj
 0001:0002f887       ?emit_rtcall@LIR_Optimizer@@UAEXPAVLIR_OpRTCall@@@Z 08030887 f   c1_LIROptimizer_i486.obj
 0001:0002f887       ?emit_arraycopy@LIR_Optimizer@@UAEXPAVLIR_OpArrayCopy@@@Z 08030887 f   c1_LIROptimizer_i486.obj
 0001:0002f887       ?emit_alloc_array@LIR_Optimizer@@UAEXPAVLIR_OpAllocArray@@@Z 08030887 f   c1_LIROptimizer_i486.obj
 0001:0002f887       ?emit_lock@LIR_Optimizer@@UAEXPAVLIR_OpLock@@@Z 08030887 f   c1_LIROptimizer_i486.obj
 0001:0002f887       ?emit_opLabel@LIR_Optimizer@@UAEXPAVLIR_OpLabel@@@Z 08030887 f   c1_LIROptimizer_i486.obj
 0001:0002f887       ?emit_call@LIR_Optimizer@@UAEXPAVLIR_OpJavaCall@@@Z 08030887 f   c1_LIROptimizer_i486.obj
 0001:0002f887       ?emit_code_stub@LIR_Optimizer@@UAEXPAVCodeStub@@@Z 08030887 f   c1_LIROptimizer_i486.obj
 0001:0002f887       ?emit_opTypeCheck@LIR_Optimizer@@UAEXPAVLIR_OpTypeCheck@@@Z 08030887 f   c1_LIROptimizer_i486.obj
 0001:0002f887       ?emit_opConvert@LIR_Optimizer@@UAEXPAVLIR_OpConvert@@@Z 08030887 f   c1_LIROptimizer_i486.obj
 0001:0002f887       ?emit_alloc_obj@LIR_Optimizer@@UAEXPAVLIR_OpAllocObj@@@Z 08030887 f   c1_LIROptimizer_i486.obj
 0001:0002f887       ?emit_compare_and_swap@LIR_Optimizer@@UAEXPAVLIR_OpCompareAndSwap@@@Z 08030887 f   c1_LIROptimizer_i486.obj
 0001:0002f887       ?emit_opBranch@LIR_Optimizer@@UAEXPAVLIR_OpBranch@@@Z 08030887 f   c1_LIROptimizer_i486.obj
 0001:0002f887       ?emit_op0@LIR_Optimizer@@UAEXPAVLIR_Op0@@@Z 08030887 f   c1_LIROptimizer_i486.obj
 0001:0002f89c       ?update_loops@LoopList@@QAEXPAVBlockBegin@@00@Z 0803089c f   c1_Loops.obj
 0001:0002f8c3       ??0BlockLoopInfo@@QAE@PAVBlockBegin@@H@Z 080308c3 f   c1_Loops.obj
 0001:0002f913       ??0LoopFinder@@QAE@PAVIR@@H@Z 08030913 f   c1_Loops.obj
 0001:0002f95e       ?dominator_walk_sux@LoopFinder@@AAEXPAVBlockBegin@@PAVboolArray@@@Z 0803095e f   c1_Loops.obj
 0001:0002fa7d       ?update_loop_blocks@Loop@@QAEXPAVBlockBegin@@00@Z 08030a7d f   c1_Loops.obj
 0001:0002fad0       ?compute_dominators@LoopFinder@@AAEXPAVboolArray@@@Z 08030ad0 f   c1_Loops.obj
 0001:0002fc3a       ?block_do@CreateInfoClosure@@UAEXPAVBlockBegin@@@Z 08030c3a f i c1_Loops.obj
 0001:0002fc79       ?block_do@SetPredsClosure@@UAEXPAVBlockBegin@@@Z 08030c79 f i c1_Loops.obj
 0001:0002fcc9       ?find_backedges@LoopFinder@@AAEPAVLoopList@@PAVboolArray@@@Z 08030cc9 f   c1_Loops.obj
 0001:0002fe16       ??0Loop@@QAE@PAVBlockBegin@@0@Z 08030e16 f i c1_Loops.obj
 0001:0002fea0       ?add_end@Loop@@QAEXPAVBlockBegin@@@Z 08030ea0 f i c1_Loops.obj
 0001:0002feec       ?gather_loop_blocks@LoopFinder@@AAEXPAVLoopList@@@Z 08030eec f   c1_Loops.obj
 0001:0003008b       ?find_loop_entries@LoopFinder@@AAEXPAVBlockBegin@@PAVLoop@@@Z 0803108b f   c1_Loops.obj
 0001:000300d2       ?append_loop_entry@Loop@@QAEXPAVBlockBegin@@0@Z 080310d2 f i c1_Loops.obj
 0001:00030104       ?find_loop_exits@LoopFinder@@AAEXPAVBlockBegin@@PAVLoop@@@Z 08031104 f   c1_Loops.obj
 0001:0003014f       ?append_loop_exit@Loop@@QAEXPAVBlockBegin@@0@Z 0803114f f i c1_Loops.obj
 0001:00030181       ?compute_loop_exits_and_entries@LoopFinder@@AAEXPAVLoopList@@@Z 08031181 f   c1_Loops.obj
 0001:000301e4       ?find_loops@LoopFinder@@AAEPAVLoopList@@PAV2@H@Z 080311e4 f   c1_Loops.obj
 0001:00030530       ?new_block@LoopFinder@@AAEPAVBlockBegin@@PAVIRScope@@H@Z 08031530 f   c1_Loops.obj
 0001:0003058d       ?insert_caching_block@LoopFinder@@AAEPAVBlockBegin@@PAVLoopList@@PAV2@1@Z 0803158d f   c1_Loops.obj
 0001:00030698       ?insert_blocks@LoopFinder@@AAEXPAVLoopList@@@Z 08031698 f   c1_Loops.obj
 0001:00030770       ??0PairCollector@@QAE@PAVintStack@@@Z 08031770 f i c1_Loops.obj
 0001:000307a9       ?block_do@PairCollector@@UAEXPAVBlockBegin@@@Z 080317a9 f i c1_Loops.obj
 0001:00030838       ?block_do@Tagger@@UAEXPAVBlockBegin@@@Z 08031838 f i c1_Loops.obj
 0001:0003088f       ?compute_single_precision_flag@LoopFinder@@AAEXPAVLoopList@@@Z 0803188f f   c1_Loops.obj
 0001:00030918       ?block_do@FlagSetter@@UAEXPAVBlockBegin@@@Z 08031918 f i c1_Loops.obj
 0001:00030925       ?compute_loops@LoopFinder@@QAEPAVLoopList@@H@Z 08031925 f   c1_Loops.obj
 0001:000309d9       ??0LocalSlotArray@@QAE@HQAVLocalSlot@@@Z 080319d9 f i c1_Loops.obj
 0001:000309d9       ??0intArray@@QAE@HH@Z      080319d9 f i c1_Loops.obj
 0001:000309d9       ??0BlockBeginArray@@QAE@HQAVBlockBegin@@@Z 080319d9 f i c1_Loops.obj
 0001:00030a0e       ?index_of@BlockBeginArray@@QBEHQAVBlockBegin@@@Z 08031a0e f i c1_Loops.obj
 0001:00030a0e       ?index_of@CodeStubArray@@QBEHQAVCodeStub@@@Z 08031a0e f i c1_Loops.obj
 0001:00030a32       ??0CachingChange@@QAE@PAVBlockBegin@@0@Z 08031a32 f i c1_Loops.obj
 0001:00030a66       ?name@CachingChange@@UBEPBDXZ 08031a66 f i c1_Loops.obj
 0001:00030a6c       ?visit@CachingChange@@UAEXPAVInstructionVisitor@@@Z 08031a6c f i c1_Loops.obj
 0001:00030a7b       ?lock_object@C1_MacroAssembler@@QAEXPAVRegisterImpl@@00AAVLabel@@@Z 08031a7b f   c1_MacroAssembler_i486.obj
 0001:00030bb8       ?unlock_object@C1_MacroAssembler@@QAEXPAVRegisterImpl@@00AAVLabel@@@Z 08031bb8 f   c1_MacroAssembler_i486.obj
 0001:00030c8b       ?allocate_object@C1_MacroAssembler@@QAEXPAVRegisterImpl@@00HH0AAVLabel@@@Z 08031c8b f   c1_MacroAssembler_i486.obj
 0001:00030ff0       ?allocate_array@C1_MacroAssembler@@QAEXPAVRegisterImpl@@000HW4ScaleFactor@Address@@0AAVLabel@@@Z 08031ff0 f   c1_MacroAssembler_i486.obj
 0001:00031408       ??0Optimizer@@QAE@PAVIR@@@Z 08032408 f   c1_Optimizer.obj
 0001:00031413       ?eliminate_conditional_expressions@Optimizer@@QAEXXZ 08032413 f   c1_Optimizer.obj
 0001:00031430       ?block_do@CE_Eliminator@@UAEXPAVBlockBegin@@@Z 08032430 f i c1_Optimizer.obj
 0001:0003161c       ?simple_value_copy@CE_Eliminator@@AAEPAVInstruction@@PAV2@@Z 0803261c f i c1_Optimizer.obj
 0001:000316ad       ?eliminate_blocks@Optimizer@@QAEXXZ 080326ad f   c1_Optimizer.obj
 0001:00031701       ?block_do@PredecessorCounter@@UAEXPAVBlockBegin@@@Z 08032701 f i c1_Optimizer.obj
 0001:0003175d       ?block_do@BlockMerger@@UAEXPAVBlockBegin@@@Z 0803275d f i c1_Optimizer.obj
 0001:00031773       ?try_merge@BlockMerger@@QAEHPAVBlockBegin@@@Z 08032773 f i c1_Optimizer.obj
 0001:00031858       ?do_LoadLocal@NullCheckVisitor@@UAEXPAVLoadLocal@@@Z 08032858 f   c1_Optimizer.obj
 0001:00031867       ?do_StoreLocal@NullCheckVisitor@@UAEXPAVStoreLocal@@@Z 08032867 f   c1_Optimizer.obj
 0001:00031876       ?do_StoreField@NullCheckVisitor@@UAEXPAVStoreField@@@Z 08032876 f   c1_Optimizer.obj
 0001:00031876       ?do_LoadField@NullCheckVisitor@@UAEXPAVLoadField@@@Z 08032876 f   c1_Optimizer.obj
 0001:00031885       ?do_ArrayLength@NullCheckVisitor@@UAEXPAVArrayLength@@@Z 08032885 f   c1_Optimizer.obj
 0001:00031894       ?do_LoadIndexed@NullCheckVisitor@@UAEXPAVLoadIndexed@@@Z 08032894 f   c1_Optimizer.obj
 0001:000318a3       ?do_ArithmeticOp@NullCheckVisitor@@UAEXPAVArithmeticOp@@@Z 080328a3 f   c1_Optimizer.obj
 0001:000318c1       ?do_NullCheck@NullCheckVisitor@@UAEXPAVNullCheck@@@Z 080328c1 f   c1_Optimizer.obj
 0001:000318d0       ?do_Invoke@NullCheckVisitor@@UAEXPAVInvoke@@@Z 080328d0 f   c1_Optimizer.obj
 0001:000318df       ?do_NewMultiArray@NullCheckVisitor@@UAEXPAVNewMultiArray@@@Z 080328df f   c1_Optimizer.obj
 0001:000318df       ?do_NewInstance@NullCheckVisitor@@UAEXPAVNewInstance@@@Z 080328df f   c1_Optimizer.obj
 0001:000318df       ?do_NewObjectArray@NullCheckVisitor@@UAEXPAVNewObjectArray@@@Z 080328df f   c1_Optimizer.obj
 0001:000318df       ?do_NewTypeArray@NullCheckVisitor@@UAEXPAVNewTypeArray@@@Z 080328df f   c1_Optimizer.obj
 0001:000318ee       ?do_MonitorEnter@NullCheckVisitor@@UAEXPAVMonitorEnter@@@Z 080328ee f   c1_Optimizer.obj
 0001:000318ee       ?do_MonitorExit@NullCheckVisitor@@UAEXPAVMonitorExit@@@Z 080328ee f   c1_Optimizer.obj
 0001:000318fd       ?do_Intrinsic@NullCheckVisitor@@UAEXPAVIntrinsic@@@Z 080328fd f   c1_Optimizer.obj
 0001:000318fd       ?do_Throw@NullCheckVisitor@@UAEXPAVThrow@@@Z 080328fd f   c1_Optimizer.obj
 0001:00031907       ?do_StoreIndexed@NullCheckVisitor@@UAEXPAVStoreIndexed@@@Z 08032907 f   c1_Optimizer.obj
 0001:00031907       ?do_UnsafeGetRaw@NullCheckVisitor@@UAEXPAVUnsafeGetRaw@@@Z 08032907 f   c1_Optimizer.obj
 0001:00031907       ?do_UnsafePutRaw@NullCheckVisitor@@UAEXPAVUnsafePutRaw@@@Z 08032907 f   c1_Optimizer.obj
 0001:00031907       ?do_UnsafePutObject@NullCheckVisitor@@UAEXPAVUnsafePutObject@@@Z 08032907 f   c1_Optimizer.obj
 0001:00031907       ?do_UnsafeGetObject@NullCheckVisitor@@UAEXPAVUnsafeGetObject@@@Z 08032907 f   c1_Optimizer.obj
 0001:00031916       ?do_value@NullCheckEliminator@@CAXPAPAVInstruction@@@Z 08032916 f   c1_Optimizer.obj
 0001:0003196f       ?mark_visited@NullCheckEliminator@@AAEXPAVInstruction@@@Z 0803296f f i c1_Optimizer.obj
 0001:00031992       ?merge_state_for@NullCheckEliminator@@AAEHPAVBlockBegin@@PAVValueStack@@PAVValueSet@@@Z 08032992 f   c1_Optimizer.obj
 0001:00031adf       ?copy@ValueSet@@QAEPAV1@XZ 08032adf f i c1_Optimizer.obj
 0001:00031b1f       ?iterate_all@NullCheckEliminator@@AAEXXZ 08032b1f f   c1_Optimizer.obj
 0001:00031b3f       ?iterate_one@NullCheckEliminator@@AAEXPAVBlockBegin@@@Z 08032b3f f   c1_Optimizer.obj
 0001:00031cbb       ?iterate@NullCheckEliminator@@QAEXPAVBlockBegin@@@Z 08032cbb f   c1_Optimizer.obj
 0001:00031cd5       ?handle_LoadLocal@NullCheckEliminator@@QAEXPAVLoadLocal@@@Z 08032cd5 f   c1_Optimizer.obj
 0001:00031d09       ?set_put@NullCheckEliminator@@AAEXPAVInstruction@@@Z 08032d09 f i c1_Optimizer.obj
 0001:00031d2c       ?handle_StoreLocal@NullCheckEliminator@@QAEXPAVStoreLocal@@@Z 08032d2c f   c1_Optimizer.obj
 0001:00031d6a       ?set_remove@NullCheckEliminator@@AAEXPAVInstruction@@@Z 08032d6a f i c1_Optimizer.obj
 0001:00031d8f       ?handle_AccessField@NullCheckEliminator@@QAEXPAVAccessField@@@Z 08032d8f f   c1_Optimizer.obj
 0001:00031e5e       ?handle_ArrayLength@NullCheckEliminator@@QAEXPAVArrayLength@@@Z 08032e5e f   c1_Optimizer.obj
 0001:00031ecd       ?handle_LoadIndexed@NullCheckEliminator@@QAEXPAVLoadIndexed@@@Z 08032ecd f   c1_Optimizer.obj
 0001:00031f3c       ?handle_StoreIndexed@NullCheckEliminator@@QAEXPAVStoreIndexed@@@Z 08032f3c f   c1_Optimizer.obj
 0001:00031f3c       ?handle_UnsafeOp@NullCheckEliminator@@QAEXPAVUnsafeOp@@@Z 08032f3c f   c1_Optimizer.obj
 0001:00031f80       ?handle_NullCheck@NullCheckEliminator@@QAEXPAVNullCheck@@@Z 08032f80 f   c1_Optimizer.obj
 0001:00031fc3       ?handle_Invoke@NullCheckEliminator@@QAEXPAVInvoke@@@Z 08032fc3 f   c1_Optimizer.obj
 0001:00032014       ?handle_NewInstance@NullCheckEliminator@@QAEXPAVNewInstance@@@Z 08033014 f   c1_Optimizer.obj
 0001:00032014       ?handle_NewArray@NullCheckEliminator@@QAEXPAVNewArray@@@Z 08033014 f   c1_Optimizer.obj
 0001:00032020       ?handle_AccessMonitor@NullCheckEliminator@@QAEXPAVAccessMonitor@@@Z 08033020 f   c1_Optimizer.obj
 0001:00032064       ?eliminate_null_checks@Optimizer@@QAEXXZ 08033064 f   c1_Optimizer.obj
 0001:0003218f       ??0NullCheckEliminator@@QAE@PAVOptimizer@@@Z 0803318f f i c1_Optimizer.obj
 0001:00032237       ?at@BitMap@@QBEHI@Z        08033237 f i c1_Optimizer.obj
 0001:0003225a       ?set_bit@BitMap@@QAEXI@Z   0803325a f i c1_Optimizer.obj
 0001:00032277       ??0_BlockList@@QAE@H@Z     08033277 f i c1_Optimizer.obj
 0001:0003229d       ??0Op2@@QAE@PAVValueType@@W4Code@Bytecodes@@PAVInstruction@@2@Z 0803329d f i c1_Optimizer.obj
 0001:000322ca       ?name@IfOp@@UBEPBDXZ       080332ca f i c1_Optimizer.obj
 0001:000322d0       ?visit@IfOp@@UAEXPAVInstructionVisitor@@@Z 080332d0 f i c1_Optimizer.obj
 0001:000322df       ?input_values_do@IfOp@@UAEXP6AXPAPAVInstruction@@@Z@Z 080332df f i c1_Optimizer.obj
 0001:00032307       ?overlaps@RInfo@@QBEHV1@@Z 08033307 f   c1_RInfo.obj
 0001:00032407       ?set_long_reg@RInfo@@AAEXQAVRegisterImpl@@0@Z 08033407 f   c1_RInfo.obj
 0001:00032435       ?as_register_lo@RInfo@@QBEPAVRegisterImpl@@XZ 08033435 f   c1_RInfo.obj
 0001:00032435       ?as_register@RInfo@@QBEPAVRegisterImpl@@XZ 08033435 f   c1_RInfo.obj
 0001:00032447       ?as_register_hi@RInfo@@QBEPAVRegisterImpl@@XZ 08033447 f   c1_RInfo.obj
 0001:00032459       ?as_rinfo_lo@RInfo@@QBE?AV1@XZ 08033459 f   c1_RInfo.obj
 0001:000324a9       ?as_rinfo_hi@RInfo@@QBE?AV1@XZ 080334a9 f   c1_RInfo.obj
 0001:0003250c       ?init_masks@c1_RegMask@@SAXH@Z 0803350c f   c1_RInfo.obj
 0001:00032523       ??0RegAlloc@@QAE@XZ        08033523 f   c1_RegAlloc.obj
 0001:00032565       ?set_free_cpu@RegAlloc@@AAEXH@Z 08033565 f   c1_RegAlloc.obj
 0001:00032578       ?set_free_fpu@RegAlloc@@AAEXH@Z 08033578 f   c1_RegAlloc.obj
 0001:0003258e       ?set_locked_cpu@RegAlloc@@AAEXHPAVInstruction@@H@Z 0803358e f   c1_RegAlloc.obj
 0001:000325bf       ?set_locked_fpu@RegAlloc@@AAEXHPAVInstruction@@H@Z 080335bf f   c1_RegAlloc.obj
 0001:000325e8       ?set_cpu_reg@RegAlloc@@AAEXHHPAVInstruction@@@Z 080335e8 f   c1_RegAlloc.obj
 0001:00032602       ?set_fpu_reg@RegAlloc@@AAEXHHPAVInstruction@@@Z 08033602 f   c1_RegAlloc.obj
 0001:0003261c       ?get_free_reg@RegAlloc@@QAE?AVRInfo@@Vc1_RegMask@@@Z 0803361c f   c1_RegAlloc.obj
 0001:00032636       ?get_lock_reg@RegAlloc@@QAE?AVRInfo@@PAVInstruction@@PAVValueType@@@Z 08033636 f   c1_RegAlloc.obj
 0001:00032671       ?get_lock_reg@RegAlloc@@QAE?AVRInfo@@PAVInstruction@@Vc1_RegMask@@@Z 08033671 f   c1_RegAlloc.obj
 0001:000326ac       ?get_lock_temp@RegAlloc@@QAE?AVRInfo@@PAVInstruction@@PAVValueType@@@Z 080336ac f   c1_RegAlloc.obj
 0001:000326d9       ?get_lock_temp@RegAlloc@@QAE?AVRInfo@@PAVInstruction@@Vc1_RegMask@@@Z 080336d9 f   c1_RegAlloc.obj
 0001:00032706       ?lock_register@RegAlloc@@QAEXPAVInstruction@@VRInfo@@@Z 08033706 f   c1_RegAlloc.obj
 0001:0003271a       ?lock_temp@RegAlloc@@QAEXPAVInstruction@@VRInfo@@@Z 0803371a f   c1_RegAlloc.obj
 0001:0003272c       ?reallocate@RegAlloc@@QAE?AVRInfo@@V2@Vc1_RegMask@@@Z 0803372c f   c1_RegAlloc.obj
 0001:0003278a       ?is_free_reg@RegAlloc@@QBEHVRInfo@@@Z 0803378a f   c1_RegAlloc.obj
 0001:000327b6       ?do_it@RInfo2Reg@@QAEXXZ   080337b6 f i c1_RegAlloc.obj
 0001:0003282d       ?do_cpu@IsFreeReg@@UAEXH@Z 0803382d f i c1_RegAlloc.obj
 0001:00032854       ?do_float@IsFreeReg@@UAEXH@Z 08033854 f i c1_RegAlloc.obj
 0001:0003287e       ?do_double@IsFreeReg@@UAEXH@Z 0803387e f i c1_RegAlloc.obj
 0001:000328a5       ?free_reg@RegAlloc@@QAEXVRInfo@@@Z 080338a5 f   c1_RegAlloc.obj
 0001:000328c7       ?do_cpu@FreeReg@@UAEXH@Z   080338c7 f i c1_RegAlloc.obj
 0001:000328d6       ?do_float@FreeReg@@UAEXH@Z 080338d6 f i c1_RegAlloc.obj
 0001:000328e5       ?do_double@FreeReg@@UAEXH@Z 080338e5 f i c1_RegAlloc.obj
 0001:000328f4       ?lock_reg@RegAlloc@@AAEXPAVInstruction@@VRInfo@@H@Z 080338f4 f   c1_RegAlloc.obj
 0001:00032929       ?do_cpu@LockReg@@UAEXH@Z   08033929 f i c1_RegAlloc.obj
 0001:0003293e       ?do_float@LockReg@@UAEXH@Z 0803393e f i c1_RegAlloc.obj
 0001:00032953       ?do_double@LockReg@@UAEXH@Z 08033953 f i c1_RegAlloc.obj
 0001:00032968       ?set_reg@RegAlloc@@QAEXVRInfo@@HPAVInstruction@@@Z 08033968 f   c1_RegAlloc.obj
 0001:00032996       ?do_cpu@SetReg@@UAEXH@Z    08033996 f i c1_RegAlloc.obj
 0001:000329ab       ?do_float@SetReg@@UAEXH@Z  080339ab f i c1_RegAlloc.obj
 0001:000329c0       ?do_double@SetReg@@UAEXH@Z 080339c0 f i c1_RegAlloc.obj
 0001:000329d5       ?get_register_rc@RegAlloc@@QBEHVRInfo@@@Z 080339d5 f   c1_RegAlloc.obj
 0001:000329fe       ?do_cpu@GetRefCount@@UAEXH@Z 080339fe f i c1_RegAlloc.obj
 0001:00032a0f       ?do_float@GetRefCount@@UAEXH@Z 08033a0f f i c1_RegAlloc.obj
 0001:00032a20       ?do_double@GetRefCount@@UAEXH@Z 08033a20 f i c1_RegAlloc.obj
 0001:00032a36       ?get_value_for_rinfo@RegAlloc@@QBEPAVInstruction@@VRInfo@@@Z 08033a36 f   c1_RegAlloc.obj
 0001:00032a5f       ?do_cpu@GetValueFor@@UAEXH@Z 08033a5f f i c1_RegAlloc.obj
 0001:00032a8b       ?do_float@GetValueFor@@UAEXH@Z 08033a8b f i c1_RegAlloc.obj
 0001:00032aba       ?do_double@GetValueFor@@UAEXH@Z 08033aba f i c1_RegAlloc.obj
 0001:00032ae5       ?clear@RegAlloc@@AAEXXZ    08033ae5 f   c1_RegAlloc.obj
 0001:00032b12       ?do_cpu@IsSpillLocked@@UAEXH@Z 08033b12 f i c1_RegAlloc.obj
 0001:00032b2a       ?do_float@IsSpillLocked@@UAEXH@Z 08033b2a f i c1_RegAlloc.obj
 0001:00032b42       ?do_double@IsSpillLocked@@UAEXH@Z 08033b42 f i c1_RegAlloc.obj
 0001:00032b58       ?incr_spill_lock@RegAlloc@@QAEXVRInfo@@@Z 08033b58 f   c1_RegAlloc.obj
 0001:00032b81       ?do_cpu@ChangeSpillCount@@UAEXH@Z 08033b81 f i c1_RegAlloc.obj
 0001:00032b96       ?do_float@ChangeSpillCount@@UAEXH@Z 08033b96 f i c1_RegAlloc.obj
 0001:00032bab       ?do_double@ChangeSpillCount@@UAEXH@Z 08033bab f i c1_RegAlloc.obj
 0001:00032bbd       ?decr_spill_lock@RegAlloc@@QAEXVRInfo@@@Z 08033bbd f   c1_RegAlloc.obj
 0001:00032be3       ?get_smallest_value_to_spill@RegAlloc@@QBEPAVInstruction@@Vc1_RegMask@@@Z 08033be3 f   c1_RegAlloc.obj
 0001:00032c4a       ?get_lock_spill@RegAlloc@@QAEHPAVInstruction@@H@Z 08033c4a f   c1_RegAlloc.obj
 0001:00032db5       ?lock_spill@RegAlloc@@QAEXPAVInstruction@@HH@Z 08033db5 f   c1_RegAlloc.obj
 0001:00032e52       ?free_spill@RegAlloc@@QAEXHPAVValueType@@@Z 08033e52 f   c1_RegAlloc.obj
 0001:00032e84       ?is_free_spill@RegAlloc@@QBEHHPAVValueType@@@Z 08033e84 f   c1_RegAlloc.obj
 0001:00032ee7       ?get_free_spill_after@RegAlloc@@QAEHHPAVValueType@@@Z 08033ee7 f   c1_RegAlloc.obj
 0001:00032f5d       ?value_spilled_at@RegAlloc@@QBEPAVInstruction@@H@Z 08033f5d f   c1_RegAlloc.obj
 0001:00032f70       ?get_ref_count_at@RegAlloc@@QBEHH@Z 08033f70 f   c1_RegAlloc.obj
 0001:00032f82       ?move_spills@RegAlloc@@QAEXHHPAVValueType@@@Z 08033f82 f   c1_RegAlloc.obj
 0001:00033036       ?extend_spill_area@RegAlloc@@QAEXH@Z 08034036 f   c1_RegAlloc.obj
 0001:0003307a       ?oops_in_spill@RegAlloc@@QBEPAVintStack@@XZ 0803407a f   c1_RegAlloc.obj
 0001:000330d2       ?oops_in_registers@RegAlloc@@QBEPAVRInfoCollection@@XZ 080340d2 f   c1_RegAlloc.obj
 0001:0003314c       ?init_register_allocation@RegAlloc@@SAXXZ 0803414c f   c1_RegAlloc_i486.obj
 0001:00033156       ?has_free_reg@RegAlloc@@QBEHPAVValueType@@@Z 08034156 f   c1_RegAlloc_i486.obj
 0001:0003316e       ?has_free_reg@RegAlloc@@QBEHW4ValueTag@@@Z 0803416e f   c1_RegAlloc_i486.obj
 0001:000331af       ?get_free_reg@RegAlloc@@QAE?AVRInfo@@PAVValueType@@@Z 080341af f   c1_RegAlloc_i486.obj
 0001:000331d5       ?get_free_reg@RegAlloc@@QAE?AVRInfo@@W4ValueTag@@@Z 080341d5 f   c1_RegAlloc_i486.obj
 0001:0003328d       ?is_free_double@RegAlloc@@ABEHH@Z 0803428d f   c1_RegAlloc_i486.obj
 0001:0003329c       ?set_free_double@RegAlloc@@AAEXH@Z 0803429c f   c1_RegAlloc_i486.obj
 0001:000332a8       ?set_locked_double@RegAlloc@@AAEXHPAVInstruction@@H@Z 080342a8 f   c1_RegAlloc_i486.obj
 0001:000332bc       ?set_double_reg@RegAlloc@@AAEXHHPAVInstruction@@@Z 080342bc f   c1_RegAlloc_i486.obj
 0001:000332d0       ?get_double_rc@RegAlloc@@ABEHH@Z 080342d0 f   c1_RegAlloc_i486.obj
 0001:000332db       ?get_double_val@RegAlloc@@ABEPAVInstruction@@H@Z 080342db f   c1_RegAlloc_i486.obj
 0001:000332e9       ?is_locked_double_spill_count@RegAlloc@@ABEHH@Z 080342e9 f   c1_RegAlloc_i486.obj
 0001:000332f9       ?change_double_spill_count@RegAlloc@@AAEXHH@Z 080342f9 f   c1_RegAlloc_i486.obj
 0001:0003330a       ?get_smallest_value_to_spill@RegAlloc@@QBEPAVInstruction@@PAVValueType@@@Z 0803430a f   c1_RegAlloc_i486.obj
 0001:000333b0       ??0StubAssembler@@QAE@PAVCodeBuffer@@@Z 080343b0 f   c1_Runtime1.obj
 0001:000333d3       ?set_info@StubAssembler@@QAEXPBDH@Z 080343d3 f   c1_Runtime1.obj
 0001:000333e4       ??0iEntries@@QAE@XZ        080343e4 f   c1_Runtime1.obj
 0001:000333f5       ??0iEntries@@QAE@HHHH@Z    080343f5 f   c1_Runtime1.obj
 0001:00033435       ?new_code_buffer@Runtime1@@SAPAVCodeBuffer@@XZ 08034435 f   c1_Runtime1.obj
 0001:00033488       ?generate_blob_for@Runtime1@@CAXW4StubID@1@@Z 08034488 f   c1_Runtime1.obj
 0001:0003355c       ?initialize@Runtime1@@SAXXZ 0803455c f   c1_Runtime1.obj
 0001:000335fb       ?blob_for@Runtime1@@SAPAVCodeBlob@@W4StubID@1@@Z 080345fb f   c1_Runtime1.obj
 0001:00033615       ?name_for@Runtime1@@SAPBDW4StubID@1@@Z 08034615 f   c1_Runtime1.obj
 0001:00033621       ?ientries_for@Runtime1@@SAPAViEntries@@VmethodHandle@@@Z 08034621 f   c1_Runtime1.obj
 0001:00033644       ?resolve_invoke@Runtime1@@CAPAEPAVJavaThread@@PAVoopDesc@@@Z 08034644 f   c1_Runtime1.obj
 0001:00033965       ?CompiledIC_before@@YAPAVCompiledIC@@PAE@Z 08034965 f i c1_Runtime1.obj
 0001:00033b9a       ??0CallInfo@@QAE@XZ        08034b9a f i c1_Runtime1.obj
 0001:00033baa       ?handle_ic_miss@Runtime1@@CAPAEPAVJavaThread@@PAVoopDesc@@@Z 08034baa f   c1_Runtime1.obj
 0001:00033d2e       ?handle_wrong_method@Runtime1@@CAPAEPAVJavaThread@@PAVoopDesc@@@Z 08034d2e f   c1_Runtime1.obj
 0001:00033f1f       ?new_instance@Runtime1@@CAXPAVJavaThread@@PAVklassOopDesc@@@Z 08034f1f f   c1_Runtime1.obj
 0001:00033fa3       ?newarray@InterpreterRuntime@@SAXPAVJavaThread@@W4BasicType@@H@Z 08034fa3 f   c1_Runtime1.obj
 0001:00033fa3       ?new_type_array@Runtime1@@CAXPAVJavaThread@@W4BasicType@@H@Z 08034fa3 f   c1_Runtime1.obj
 0001:00033fe5       ?new_object_array@Runtime1@@CAXPAVJavaThread@@PAVklassOopDesc@@H@Z 08034fe5 f   c1_Runtime1.obj
 0001:0003402b       ?new_multi_array@Runtime1@@CAXPAVJavaThread@@PAVklassOopDesc@@HPAH@Z 0803502b f   c1_Runtime1.obj
 0001:00034076       ?unimplemented_entry@Runtime1@@CAXPAVJavaThread@@W4StubID@1@@Z 08035076 f   c1_Runtime1.obj
 0001:000340b3       ?throw_array_store_exception@Runtime1@@CAXPAVJavaThread@@@Z 080350b3 f   c1_Runtime1.obj
 0001:000340f4       ?post_jvmdi_exception_throw@Runtime1@@CAXPAVJavaThread@@PAVoopDesc@@@Z 080350f4 f   c1_Runtime1.obj
 0001:00034153       ?exception_handler_for_pc@Runtime1@@CAPAEPAVJavaThread@@PAVoopDesc@@PAE@Z 08035153 f   c1_Runtime1.obj
 0001:0003450e       ?return_address_for_exception@Runtime1@@CAPAEXZ 0803550e f   c1_Runtime1.obj
 0001:000345a8       ?throw_range_check_exception@Runtime1@@CAXPAVJavaThread@@H@Z 080355a8 f   c1_Runtime1.obj
 0001:000346b9       ?throw_index_exception@Runtime1@@CAXPAVJavaThread@@H@Z 080356b9 f   c1_Runtime1.obj
 0001:00034712       ?throw_div0_exception@Runtime1@@CAXPAVJavaThread@@@Z 08035712 f   c1_Runtime1.obj
 0001:0003474d       ?implicit_throw_div0_exception@Runtime1@@CAXPAVJavaThread@@@Z 0803574d f   c1_Runtime1.obj
 0001:00034790       ?implicit_throw_null_exception@Runtime1@@CAXPAVJavaThread@@@Z 08035790 f   c1_Runtime1.obj
 0001:000347ce       ?throw_stack_overflow@Runtime1@@CAXPAVJavaThread@@@Z 080357ce f   c1_Runtime1.obj
 0001:00034827       ?throw_abstract_method_error@Runtime1@@CAXPAVJavaThread@@@Z 08035827 f   c1_Runtime1.obj
 0001:0003485f       ?throw_class_cast_exception@Runtime1@@CAXPAVJavaThread@@PAVoopDesc@@@Z 0803585f f   c1_Runtime1.obj
 0001:000348e0       ?monitorenter@Runtime1@@CAXPAVJavaThread@@PAVoopDesc@@PAVBasicObjectLock@@@Z 080358e0 f   c1_Runtime1.obj
 0001:0003492d       ?monitorexit@Runtime1@@CAXPAVJavaThread@@PAVBasicObjectLock@@@Z 0803592d f   c1_Runtime1.obj
 0001:0003495a       ?patch_code@Runtime1@@CAXPAVJavaThread@@W4StubID@1@PAVThread@@@Z 0803595a f   c1_Runtime1.obj
 0001:00034eac       ?move_klass_patching@Runtime1@@CAXPAVJavaThread@@@Z 08035eac f   c1_Runtime1.obj
 0001:00034ee3       ?init_check_patching@Runtime1@@CAXPAVJavaThread@@@Z 08035ee3 f   c1_Runtime1.obj
 0001:00034f1a       ?arraycopy@Runtime1@@SAHHHPAVoopDesc@@H0@Z 08035f1a f   c1_Runtime1.obj
 0001:00035055       ??0MemRegion@@QAE@PAVHeapWord@@0@Z 08036055 f i c1_Runtime1.obj
 0001:0003506c       ?jvmpi_method_entry_after_deopt@Runtime1@@CAXPAVJavaThread@@PAVoopDesc@@@Z 0803606c f   c1_Runtime1.obj
 0001:000350e3       ?is_subtype_of@Klass@@QBEHPAVklassOopDesc@@@Z 080360e3 f i c1_Runtime1.obj
 0001:00035107       ?real_allocate_handle@HandleArea@@AAEPAPAVoopDesc@@PAV2@@Z 08036107 f i c1_Runtime1.obj
 0001:00035117       ?code_at@Bytecodes@@SA?AW4Code@1@PAEPAVmethodOopDesc@@@Z 08036117 f i c1_Runtime1.obj
 0001:00035132       ?write_ref_array@BarrierSet@@QAEXVMemRegion@@@Z 08036132 f i c1_Runtime1.obj
 0001:00035163       ??0BoundRelocation@@IAE@PAVCodeBlob@@@Z 08036163 f i c1_Runtime1.obj
 0001:0003517e       ?next@RelocIterator@@QAEHXZ 0803617e f i c1_Runtime1.obj
 0001:000351da       ?type@RelocIterator@@QBE?AW4relocType@relocInfo@@XZ 080361da f i c1_Runtime1.obj
 0001:000351e4       ?offset@NativeMovRegMem@@QBEHXZ 080361e4 f i c1_Runtime1.obj
 0001:000351fe       ?is_jump@NativeInstruction@@QAEHXZ 080361fe f i c1_Runtime1.obj
 0001:0003520f       ?pd_copy_oops_overlapping_atomic@Memory@@CAXPAPAVoopDesc@@0I@Z 0803620f f i c1_Runtime1.obj
 0001:00035256       ?compute_adjusted_pc@ThreadSafepointState@@QAEPAEPAE@Z 08036256 f i c1_Runtime1.obj
 0001:0003528a       ?pd_last_frame@JavaThread@@AAE?AVframe@@XZ 0803628a f i c1_Runtime1.obj
 0001:000352e7       ??0Handle@@QAE@PAVoopDesc@@@Z 080362e7 f i c1_Runtime1.obj
 0001:0003531a       ?pop_and_restore@HandleMark@@QAEXXZ 0803631a f i c1_Runtime1.obj
 0001:00035343       ??1ThreadInVMfromJava@@QAE@XZ 08036343 f i c1_Runtime1.obj
 0001:00035396       ??1ThreadInVMfromJavaForMonitorEnterOrExit@@QAE@XZ 08036396 f i c1_Runtime1.obj
 0001:000353f6       ?call_RT@StubAssembler@@QAEHPAVRegisterImpl@@0PAEH@Z 080363f6 f   c1_Runtime1_i486.obj
 0001:000356fb       ?call_RT@StubAssembler@@QAEHPAVRegisterImpl@@0PAE0@Z 080366fb f   c1_Runtime1_i486.obj
 0001:00035720       ?call_RT@StubAssembler@@QAEHPAVRegisterImpl@@0PAE00@Z 08036720 f   c1_Runtime1_i486.obj
 0001:0003574f       ?call_RT@StubAssembler@@QAEHPAVRegisterImpl@@0PAE000@Z 0803674f f   c1_Runtime1_i486.obj
 0001:00035788       ??0StubFrame@@QAE@PAVStubAssembler@@PBDH@Z 08036788 f   c1_Runtime1_i486.obj
 0001:000357ab       ??0StubFrame@@QAE@PAVStubAssembler@@PBDHPAVRegisterImpl@@@Z 080367ab f   c1_Runtime1_i486.obj
 0001:000357fc       ??0StubFrame@@QAE@PAVStubAssembler@@PBDHPAVRegisterImpl@@2@Z 080367fc f   c1_Runtime1_i486.obj
 0001:00035873       ??1StubFrame@@QAE@XZ       08036873 f   c1_Runtime1_i486.obj
 0001:00035888       ?generate_exception_throw@Runtime1@@CAPAVOopMapSet@@PAVStubAssembler@@PAEPAVRegisterImpl@@@Z 08036888 f   c1_Runtime1_i486.obj
 0001:00035b9b       ?generate_patching@Runtime1@@CAPAVOopMapSet@@PAVStubAssembler@@PAE@Z 08036b9b f   c1_Runtime1_i486.obj
 0001:00035cd3       ?generate_deoptimization_handler@Runtime1@@CAPAVOopMapSet@@PAVStubAssembler@@PAH11@Z 08036cd3 f   c1_Runtime1_i486.obj
 0001:0003683c       ?generate_code_for@Runtime1@@CAPAVOopMapSet@@W4StubID@1@PAVStubAssembler@@PAH22@Z 0803783c f   c1_Runtime1_i486.obj
 0001:00038426       ?exception_address_is_unpack_entry@DeoptimizationBlob@@QBEHPAE@Z 08039426 f   c1_Runtime1_i486.obj
 0001:00038442       ?extend_caller_frame@vframeArray@@QAEHHH@Z 08039442 f   c1_Runtime1_i486.obj
 0001:0003844d       ??0RelocationHolder@@QAE@XZ 0803944d f i c1_Runtime1_i486.obj
 0001:0003845a       ?update_type@ScanBlocks@@AAEXHW4ValueTag@@@Z 0803945a f   c1_ScanBlocks.obj
 0001:000384a6       ?increment_count@ScanBlocks@@AAEXW4ValueTag@@HH@Z 080394a6 f   c1_ScanBlocks.obj
 0001:000384d7       ?count_at@ScanBlocks@@ABEHW4ValueTag@@H@Z 080394d7 f   c1_ScanBlocks.obj
 0001:000384f5       ?get_array@ScanBlocks@@ABEPBVintStack@@W4ValueTag@@@Z 080394f5 f   c1_ScanBlocks.obj
 0001:000384f5       ?get_array@ScanBlocks@@AAEPAVintStack@@W4ValueTag@@@Z 080394f5 f   c1_ScanBlocks.obj
 0001:00038503       ?accumulate_access@ScanBlocks@@AAEXHW4ValueTag@@H@Z 08039503 f   c1_ScanBlocks.obj
 0001:0003853e       ?scan_block@ScanBlocks@@AAEXPAVBlockBegin@@PAVScanResult@@H@Z 0803953e f   c1_ScanBlocks.obj
 0001:00038674       ??0ScanBlocks@@QAE@PAVBlockList@@@Z 08039674 f   c1_ScanBlocks.obj
 0001:000386a0       ?scan@ScanBlocks@@QAEXPAVScanResult@@H@Z 080396a0 f   c1_ScanBlocks.obj
 0001:000386c9       ?sort_by_access_count@ALocal@@SAHPAPAV1@0@Z 080396c9 f i c1_ScanBlocks.obj
 0001:000386de       ?int_count_at@ScanBlocks@@ABEHH@Z 080396de f   c1_ScanBlocks.obj
 0001:000386ec       ?long_count_at@ScanBlocks@@ABEHH@Z 080396ec f   c1_ScanBlocks.obj
 0001:000386fa       ?obj_count_at@ScanBlocks@@ABEHH@Z 080396fa f   c1_ScanBlocks.obj
 0001:00038708       ?most_used_locals@ScanBlocks@@QAEPAVALocalList@@XZ 08039708 f   c1_ScanBlocks.obj
 0001:0003884d       ?is_int_only@ScanBlocks@@QBEHH@Z 0803984d f   c1_ScanBlocks.obj
 0001:0003886a       ?is_long_only@ScanBlocks@@QBEHH@Z 0803986a f   c1_ScanBlocks.obj
 0001:0003889b       ?is_obj_only@ScanBlocks@@QBEHH@Z 0803989b f   c1_ScanBlocks.obj
 0001:000388b9       ?kill_all@Bucket@@QAEXXZ   080398b9 f   c1_ValueMap.obj
 0001:000388c1       ?kill_array@Bucket@@QAEXPAVValueType@@@Z 080398c1 f   c1_ValueMap.obj
 0001:00038917       ?kill_field@Bucket@@QAEXPAVciField@@@Z 08039917 f   c1_ValueMap.obj
 0001:00038969       ?append@Bucket@@QAEXPAVInstruction@@H@Z 08039969 f   c1_ValueMap.obj
 0001:00038985       ?find@Bucket@@QAEPAVInstruction@@PAV2@H@Z 08039985 f   c1_ValueMap.obj
 0001:000389c1       ??0ValueMap@@QAE@XZ        080399c1 f   c1_ValueMap.obj
 0001:00038a04       ??0Bucket@@QAE@H@Z         08039a04 f i c1_ValueMap.obj
 0001:00038a3a       ?number_of_buckets@ValueMap@@ABEHXZ 08039a3a f   c1_ValueMap.obj
 0001:00038a47       ?bucket_at@ValueMap@@AAEPAVBucket@@H@Z 08039a47 f   c1_ValueMap.obj
 0001:00038a5b       ?lookup_bucket@ValueMap@@AAEPAVBucket@@H@Z 08039a5b f   c1_ValueMap.obj
 0001:00038a7a       ?kill_all@ValueMap@@QAEXXZ 08039a7a f   c1_ValueMap.obj
 0001:00038aa7       ?kill_array@ValueMap@@QAEXPAVValueType@@@Z 08039aa7 f   c1_ValueMap.obj
 0001:00038ada       ?kill_field@ValueMap@@QAEXPAVciField@@@Z 08039ada f   c1_ValueMap.obj
 0001:00038b0d       ?resize_bucket@ValueMap@@AAEXPAVBucket@@@Z 08039b0d f   c1_ValueMap.obj
 0001:00038b9d       ?find@ValueMap@@QAEPAVInstruction@@PAV2@@Z 08039b9d f   c1_ValueMap.obj
 0001:00038c27       ??0ValueStack@@QAE@PAVIRScope@@HH@Z 08039c27 f   c1_ValueStack.obj
 0001:00038c89       ??0ValueStack@@QAE@PAV0@@Z 08039c89 f   c1_ValueStack.obj
 0001:00038cf8       ?copy@ValueStack@@QAEPAV1@XZ 08039cf8 f   c1_ValueStack.obj
 0001:00038d66       ?copy_locks@ValueStack@@QAEPAV1@XZ 08039d66 f   c1_ValueStack.obj
 0001:00038dee       ?init@ValueStack@@QAEXPAV1@@Z 08039dee f   c1_ValueStack.obj
 0001:00038e6f       ?is_same_across_scopes@ValueStack@@QAEHPAV1@@Z 08039e6f f   c1_ValueStack.obj
 0001:00038ef5       ?caller_state@ValueStack@@QBEPAV1@XZ 08039ef5 f   c1_ValueStack.obj
 0001:00038efb       ?clear_locals@ValueStack@@QAEXXZ 08039efb f   c1_ValueStack.obj
 0001:00038f2c       ?store_local@ValueStack@@QAEXPAVStoreLocal@@H@Z 08039f2c f   c1_ValueStack.obj
 0001:00038f65       ?clear_store@ValueStack@@QAEXH@Z 08039f65 f   c1_ValueStack.obj
 0001:00038f73       ?clear_stores@ValueStack@@QAEXXZ 08039f73 f   c1_ValueStack.obj
 0001:00038f95       ?eliminate_stores@ValueStack@@QAEXH@Z 08039f95 f   c1_ValueStack.obj
 0001:00038fc5       ?eliminate_all_scope_stores@ValueStack@@QAEXH@Z 08039fc5 f   c1_ValueStack.obj
 0001:00038fe6       ?pin_stack_locals@ValueStack@@QAEXH@Z 08039fe6 f   c1_ValueStack.obj
 0001:00038ff3       ?pin_stack_fields@ValueStack@@QAEXPAVciField@@@Z 08039ff3 f   c1_ValueStack.obj
 0001:00039000       ?pin_stack_indexed@ValueStack@@QAEXPAVValueType@@@Z 0803a000 f   c1_ValueStack.obj
 0001:0003900d       ?pin_stack_for_state_split@ValueStack@@QAEXXZ 0803a00d f   c1_ValueStack.obj
 0001:00039052       ?pin_stack_all@ValueStack@@QAEXW4PinReason@Instruction@@@Z 0803a052 f   c1_ValueStack.obj
 0001:00039081       ?values_do@ValueStack@@QAEXP6AXPAPAVInstruction@@@Z@Z 0803a081 f   c1_ValueStack.obj
 0001:000390b5       ?pop_arguments@ValueStack@@QAEPAVValues@@H@Z 0803a0b5 f   c1_ValueStack.obj
 0001:00039122       ?lock@ValueStack@@QAEHPAVIRScope@@PAVInstruction@@@Z 0803a122 f   c1_ValueStack.obj
 0001:00039146       ?unlock@ValueStack@@QAEHXZ 0803a146 f   c1_ValueStack.obj
 0001:0003914d       ?push_scope@ValueStack@@QAEPAV1@PAVIRScope@@@Z 0803a14d f   c1_ValueStack.obj
 0001:000391d9       ?pop_scope@ValueStack@@QAEPAV1@HH@Z 0803a1d9 f   c1_ValueStack.obj
 0001:000392ba       ?initialize@ValueType@@SAXXZ 0803a2ba f   c1_ValueType.obj
 0001:000394c3       ?meet@ValueType@@QBEPAV1@PAV1@@Z 0803a4c3 f   c1_ValueType.obj
 0001:000394ca       ?encoding@ObjectConstant@@UBEPAV_jobject@@XZ 0803a4ca f   c1_ValueType.obj
 0001:000394ca       ?encoding@ArrayConstant@@UBEPAV_jobject@@XZ 0803a4ca f   c1_ValueType.obj
 0001:000394ca       ?encoding@InstanceConstant@@UBEPAV_jobject@@XZ 0803a4ca f   c1_ValueType.obj
 0001:000394ca       ?encoding@ClassConstant@@UBEPAV_jobject@@XZ 0803a4ca f   c1_ValueType.obj
 0001:000394d2       ?as_ValueType@@YAPAVValueType@@W4BasicType@@@Z 0803a4d2 f   c1_ValueType.obj
 0001:0003956c       ?as_ValueType@@YAPAVValueType@@VciConstant@@@Z 0803a56c f   c1_ValueType.obj
 0001:00039666       ?as_BasicType@@YA?AW4BasicType@@PAVValueType@@@Z 0803a666 f   c1_ValueType.obj
 0001:000396df       ?base@VoidType@@UBEPAVValueType@@XZ 0803a6df f i c1_ValueType.obj
 0001:000396e5       ?tchar@VoidType@@UBE?BDXZ  0803a6e5 f i c1_ValueType.obj
 0001:000396e8       ?name@VoidType@@UBEPBDXZ   0803a6e8 f i c1_ValueType.obj
 0001:000396ee       ?encoding@ObjectType@@UBEPAV_jobject@@XZ 0803a6ee f i c1_ValueType.obj
 0001:00039703       ?base@IllegalType@@UBEPAVValueType@@XZ 0803a703 f i c1_ValueType.obj
 0001:00039709       ?size@IllegalType@@UBEHXZ  0803a709 f i c1_ValueType.obj
 0001:0003971f       ?tchar@IllegalType@@UBE?BDXZ 0803a71f f i c1_ValueType.obj
 0001:00039722       ?name@IllegalType@@UBEPBDXZ 0803a722 f i c1_ValueType.obj
 0001:00039728       ??0CSpaceCounters@@QAE@PBD0HIPAVContiguousSpace@@@Z 0803a728 f   cSpaceCounters.obj
 0001:0003985b       ?take_sample@ContiguousSpaceUsedHelper@@UAE_JXZ 0803a85b f i cSpaceCounters.obj
 0001:00039866       ?allocate@CarRememberedSet@@AAEXI@Z 0803a866 f   carRememberedSet.obj
 0001:000398a4       ??1CarRememberedSet@@QAE@XZ 0803a8a4 f   carRememberedSet.obj
 0001:000398ae       ?clear@CarRememberedSet@@QAEXXZ 0803a8ae f   carRememberedSet.obj
 0001:000398d1       ?reinitialize@CarRememberedSet@@QAEXH@Z 0803a8d1 f   carRememberedSet.obj
 0001:0003990e       ?grow_and_rehash@CarRememberedSet@@AAEHI@Z 0803a90e f   carRememberedSet.obj
 0001:00039992       ?add_reference@CarRememberedSet@@QAEXPAPAVoopDesc@@@Z 0803a992 f   carRememberedSet.obj
 0001:00039a25       ?scavenge_higher_train_recorded_stores@CarRememberedSet@@QAEXPAVTrainScanClosure@@@Z 0803aa25 f   carRememberedSet.obj
 0001:00039ae9       ?scavenge_same_train_recorded_stores@CarRememberedSet@@QAEXPAVTrainScanClosure@@@Z 0803aae9 f   carRememberedSet.obj
 0001:00039b98       ?scavenge_special_nonoop_recorded_stores@CarRememberedSet@@QAEXPAVTrainScanClosure@@H@Z 0803ab98 f   carRememberedSet.obj
 0001:00039cba       ?has_other_train_references@CarRememberedSet@@QAEHPAVTrain@@@Z 0803acba f   carRememberedSet.obj
 0001:00039d0c       ?oop_iterate@oopDesc@@QAEHPAVTrainScanClosure@@VMemRegion@@@Z 0803ad0c f i carRememberedSet.obj
 0001:00039d3a       ?blueprint@oopDesc@@QBEPAVKlass@@XZ 0803ad3a f i carRememberedSet.obj
 0001:00039d41       ?scavenge_contents@CardTableExtension@@QAEXPAVObjectStartArray@@PAVMutableSpace@@PAVHeapWord@@PAVPSPromotionManager@@@Z 0803ad41 f   cardTableExtension.obj
 0001:00039e88       ?copy_contents@oopDesc@@QAEXPAVPSPromotionManager@@@Z 0803ae88 f i cardTableExtension.obj
 0001:00039ea9       ?scavenge_contents_parallel@CardTableExtension@@QAEXPAVObjectStartArray@@PAVMutableSpace@@PAVHeapWord@@PAVPSPromotionManager@@I@Z 0803aea9 f   cardTableExtension.obj
 0001:0003a115       ?do_object@CheckForUnmarkedObjects@@UAEXPAVoopDesc@@@Z 0803b115 f i cardTableExtension.obj
 0001:0003a152       ?do_oop@CheckForUnmarkedOops@@UAEXPAPAVoopDesc@@@Z 0803b152 f i cardTableExtension.obj
 0001:0003a192       ?do_oop@CheckForPreciseMarks@@UAEXPAPAVoopDesc@@@Z 0803b192 f i cardTableExtension.obj
 0001:0003a1be       ?addr_is_marked_imprecise@CardTableExtension@@QAEHPAX@Z 0803b1be f   cardTableExtension.obj
 0001:0003a1dd       ?do_oop_v@OopClosure@@UAEXPAPAVoopDesc@@@Z 0803b1dd f i cardTableExtension.obj
 0001:0003a1e8       ?object_start@ObjectStartArray@@QAEPAVHeapWord@@PAV2@@Z 0803b1e8 f i cardTableExtension.obj
 0001:0003a22d       ?offset_addr_for_block@ObjectStartArray@@IAEPAVHeapWord@@PAC@Z 0803b22d f i cardTableExtension.obj
 0001:0003a25c       ??0CardTableModRefBS@@QAE@VMemRegion@@H@Z 0803b25c f   cardTableModRefBS.obj
 0001:0003a489       ?find_covering_region_by_base@CardTableModRefBS@@IAEHPAVHeapWord@@@Z 0803b489 f   cardTableModRefBS.obj
 0001:0003a529       ?find_covering_region_containing@CardTableModRefBS@@IAEHPAVHeapWord@@@Z 0803b529 f   cardTableModRefBS.obj
 0001:0003a55b       ?largest_prev_committed_end@CardTableModRefBS@@IBEPAVHeapWord@@H@Z 0803b55b f   cardTableModRefBS.obj
 0001:0003a583       ?committed_unique_to_self@CardTableModRefBS@@IBE?AVMemRegion@@HV2@@Z 0803b583 f   cardTableModRefBS.obj
 0001:0003a607       ?resize_covered_region@CardTableModRefBS@@MAEXVMemRegion@@@Z 0803b607 f   cardTableModRefBS.obj
 0001:0003a775       ?write_ref_field_work@CardTableModRefBS@@MAEXPAPAVoopDesc@@PAV2@@Z 0803b775 f   cardTableModRefBS.obj
 0001:0003a786       ?non_clean_card_iterate@CardTableModRefBS@@IAEXPAVSpace@@VMemRegion@@PAVDirtyCardToOopClosure@@PAVMemRegionClosure@@H@Z 0803b786 f   cardTableModRefBS.obj
 0001:0003a7e0       ?non_clean_card_iterate_work@CardTableModRefBS@@IAEXVMemRegion@@PAVMemRegionClosure@@H@Z 0803b7e0 f   cardTableModRefBS.obj
 0001:0003a936       ?par_non_clean_card_iterate_work@CardTableModRefBS@@IAEXPAVSpace@@VMemRegion@@PAVDirtyCardToOopClosure@@PAVMemRegionClosure@@HH@Z 0803b936 f   cardTableModRefBS.obj
 0001:0003a9f5       ?mod_oop_in_space_iterate@CardTableModRefBS@@UAEXPAVSpace@@PAVOopClosure@@HH@Z 0803b9f5 f   cardTableModRefBS.obj
 0001:0003aa63       ?dirty_MemRegion@CardTableModRefBS@@IAEXVMemRegion@@@Z 0803ba63 f   cardTableModRefBS.obj
 0001:0003aa9b       ?invalidate@CardTableModRefBS@@UAEXVMemRegion@@@Z 0803ba9b f   cardTableModRefBS.obj
 0001:0003aaf1       ?clear_MemRegion@CardTableModRefBS@@IAEXVMemRegion@@@Z 0803baf1 f   cardTableModRefBS.obj
 0001:0003ab38       ?clear@CardTableModRefBS@@UAEXVMemRegion@@@Z 0803bb38 f   cardTableModRefBS.obj
 0001:0003ab8e       ?dirty_card_iterate@CardTableModRefBS@@QAEXVMemRegion@@PAVMemRegionClosure@@@Z 0803bb8e f   cardTableModRefBS.obj
 0001:0003ac68       ?dirty_card_range_after_preclean@CardTableModRefBS@@QAE?AVMemRegion@@V2@@Z 0803bc68 f   cardTableModRefBS.obj
 0001:0003ad35       ?ct_max_alignment_constraint@CardTableModRefBS@@SAIXZ 0803bd35 f   cardTableModRefBS.obj
 0001:0003ad3e       ?process_stride@CardTableModRefBS@@IAEXPAVSpace@@VMemRegion@@HHPAVDirtyCardToOopClosure@@PAVMemRegionClosure@@HPAPACII@Z 0803bd3e f   cardTableModRefBS.obj
 0001:0003ae67       ?process_chunk_boundaries@CardTableModRefBS@@IAEXPAVSpace@@PAVDirtyCardToOopClosure@@VMemRegion@@2PAPACII@Z 0803be67 f   cardTableModRefBS.obj
 0001:0003afea       ?get_LNC_array_for_space@CardTableModRefBS@@IAEXPAVSpace@@AAPAPACAAI2@Z 0803bfea f   cardTableModRefBS.obj
 0001:0003b11e       ?chunks_to_cover@CardTableModRefBS@@IAEIVMemRegion@@@Z 0803c11e f i cardTableModRefBS.obj
 0001:0003b142       ?card_will_be_scanned@CardTableModRefBSForCTRS@@MAEHC@Z 0803c142 f   cardTableModRefBS.obj
 0001:0003b168       ?card_may_have_been_dirty@CardTableModRefBSForCTRS@@MAEHC@Z 0803c168 f   cardTableModRefBS.obj
 0001:0003b186       ??0MemRegion@@QAE@ABV0@@Z  0803c186 f i cardTableModRefBS.obj
 0001:0003b199       ?end@MemRegion@@QBEPAVHeapWord@@XZ 0803c199 f i cardTableModRefBS.obj
 0001:0003b1a2       ?read_prim_needs_barrier@ModRefBarrierSet@@UAEHPAVHeapWord@@I@Z 0803c1a2 f i cardTableModRefBS.obj
 0001:0003b1a2       ?stub_match@ProfilerNode@@UBEHPAVmethodOopDesc@@PBD@Z 0803c1a2 f i cardTableModRefBS.obj
 0001:0003b1a2       ?runtimeStub_match@ProfilerNode@@UBEHPBVCodeBlob@@PBD@Z 0803c1a2 f i cardTableModRefBS.obj
 0001:0003b1a7       ?write_prim_needs_barrier@ModRefBarrierSet@@UAEHPAVHeapWord@@I_I1@Z 0803c1a7 f i cardTableModRefBS.obj
 0001:0003b1ac       ?card_will_be_scanned@CardTableModRefBS@@MAEHC@Z 0803c1ac f i cardTableModRefBS.obj
 0001:0003b1ac       ?card_may_have_been_dirty@CardTableModRefBS@@MAEHC@Z 0803c1ac f i cardTableModRefBS.obj
 0001:0003b1c1       ?is_a@CardTableModRefBS@@UAEHW4Name@BarrierSet@@@Z 0803c1c1 f i cardTableModRefBS.obj
 0001:0003b1d6       ?write_ref_needs_barrier@CardTableModRefBS@@UAEHPAPAVoopDesc@@PAV2@@Z 0803c1d6 f i cardTableModRefBS.obj
 0001:0003b1fa       ?inline_write_ref_array@CardTableModRefBS@@QAEXVMemRegion@@@Z 0803c1fa f i cardTableModRefBS.obj
 0001:0003b1fa       ?inline_write_region@CardTableModRefBS@@QAEXVMemRegion@@@Z 0803c1fa f i cardTableModRefBS.obj
 0001:0003b213       ?write_region_work@CardTableModRefBS@@MAEXVMemRegion@@@Z 0803c213 f i cardTableModRefBS.obj
 0001:0003b213       ?write_ref_array_work@CardTableModRefBS@@MAEXVMemRegion@@@Z 0803c213 f i cardTableModRefBS.obj
 0001:0003b22c       ??0CardTableRS@@QAE@VMemRegion@@H@Z 0803c22c f   cardTableRS.obj
 0001:0003b294       ?resize_covered_region@CardTableRS@@UAEXVMemRegion@@@Z 0803c294 f   cardTableRS.obj
 0001:0003b2b0       ?find_unused_youngergenP_card_value@CardTableRS@@AAECXZ 0803c2b0 f   cardTableRS.obj
 0001:0003b2f7       ?prepare_for_younger_refs_iterate@CardTableRS@@UAEXH@Z 0803c2f7 f   cardTableRS.obj
 0001:0003b313       ?younger_refs_iterate@CardTableRS@@UAEXPAVGeneration@@PAVOopsInGenClosure@@@Z 0803c313 f   cardTableRS.obj
 0001:0003b337       ?clear@CardTableRS@@UAEXVMemRegion@@@Z 0803c337 f   cardTableRS.obj
 0001:0003b392       ?write_ref_field_gc_par@CardTableRS@@UAEXPAPAVoopDesc@@PAV2@@Z 0803c392 f   cardTableRS.obj
 0001:0003b3e5       ?younger_refs_in_space_iterate@CardTableRS@@EAEXPAVSpace@@PAVOopsInGenClosure@@@Z 0803c3e5 f   cardTableRS.obj
 0001:0003b44c       ?do_MemRegion@ClearNoncleanCardWrapper@@UAEXVMemRegion@@@Z 0803c44c f i cardTableRS.obj
 0001:0003b4f4       ?clear_card@ClearNoncleanCardWrapper@@AAEHPAC@Z 0803c4f4 f i cardTableRS.obj
 0001:0003b55c       ?clear_MemRegion@CardTableRS@@AAEXVMemRegion@@@Z 0803c55c f   cardTableRS.obj
 0001:0003b595       ?clear_into_gen_and_younger@CardTableRS@@UAEXPAVGeneration@@@Z 0803c595 f   cardTableRS.obj
 0001:0003b5ee       ??0CardTableModRefBSForCTRS@@QAE@VMemRegion@@H@Z 0803c5ee f i cardTableRS.obj
 0001:0003b616       ?write_ref_field_gc_work@CardTableRS@@UAEXPAPAVoopDesc@@PAV2@@Z 0803c616 f i cardTableRS.obj
 0001:0003b627       ?is_aligned@CardTableRS@@UAEHPAVHeapWord@@@Z 0803c627 f i cardTableRS.obj
 0001:0003b627       ?is_aligned@CardTableModRefBS@@UAEHPAVHeapWord@@@Z 0803c627 f i cardTableRS.obj
 0001:0003b63d       ?invalidate@CardTableRS@@UAEXVMemRegion@@@Z 0803c63d f i cardTableRS.obj
 0001:0003b659       ?initialize@CarTableDesc@@QAEX_K_IPAVTrain@@PAVCarSpace@@@Z 0803c659 f   cartable.obj
 0001:0003b681       ??0CarTable@@QAE@IVMemRegion@@@Z 0803c681 f   cartable.obj
 0001:0003b72a       ?update_entry@CarTable@@AAEXPAVCarSpace@@_K_IPAVTrain@@@Z 0803c72a f   cartable.obj
 0001:0003b764       ?clear_entry@CarTable@@AAEXPAVCarSpace@@@Z 0803c764 f   cartable.obj
 0001:0003b795       ?analyze_call@CHA@@SAPAVCHAResult@@VKlassHandle@@00VsymbolHandle@@1@Z 0803c795 f   cha.obj
 0001:0003b989       ?process_class@CHA@@CAXVKlassHandle@@PAV?$GrowableArray@VKlassHandle@@@@PAV?$GrowableArray@VmethodHandle@@@@VsymbolHandle@@3@Z 0803c989 f   cha.obj
 0001:0003ba64       ?process_interface@CHA@@CAXVinstanceKlassHandle@@PAV?$GrowableArray@VKlassHandle@@@@PAV?$GrowableArray@VmethodHandle@@@@VsymbolHandle@@3@Z 0803ca64 f   cha.obj
 0001:0003baf9       ??0CHAResult@@AAE@VKlassHandle@@VsymbolHandle@@1PAV?$GrowableArray@VKlassHandle@@@@PAV?$GrowableArray@VmethodHandle@@@@VmethodHandle@@H@Z 0803caf9 f   cha.obj
 0001:0003bb2b       ?is_monomorphic@CHAResult@@QBEHXZ 0803cb2b f   cha.obj
 0001:0003bb44       ?monomorphic_target@CHAResult@@QBE?AVmethodHandle@@XZ 0803cb44 f   cha.obj
 0001:0003bb70       ?push@?$GrowableArray@VmethodHandle@@@@QAEXVmethodHandle@@@Z 0803cb70 f i cha.obj
 0001:0003bb7c       ?contains@?$GrowableArray@VmethodHandle@@@@QBEHVmethodHandle@@@Z 0803cb7c f i cha.obj
 0001:0003bb8f       ?append@?$GrowableArray@VmethodHandle@@@@QAEXVmethodHandle@@@Z 0803cb8f f i cha.obj
 0001:0003bb8f       ?append@?$GrowableArray@VKlassHandle@@@@QAEXVKlassHandle@@@Z 0803cb8f f i cha.obj
 0001:0003bbb7       ??0KlassHandle@@QAE@PAVKlass@@@Z 0803cbb7 f i cha.obj
 0001:0003bbd7       ?print_impl@ciArray@@MAEXXZ 0803cbd7 f   ciArray.obj
 0001:0003bc00       ??0ciArrayKlass@@IAE@VKlassHandle@@@Z 0803cc00 f   ciArrayKlass.obj
 0001:0003bc23       ?type_string@ciArrayKlass@@MAEPBDXZ 0803cc23 f i ciArrayKlass.obj
 0001:0003bc29       ??0ciArrayKlass@@IAE@PAVciSymbol@@HPAVciKlass@@@Z 0803cc29 f   ciArrayKlass.obj
 0001:0003bc4c       ?element_type@ciArrayKlass@@QAEPAVciType@@XZ 0803cc4c f   ciArrayKlass.obj
 0001:0003bc6c       ?is_classless@ciType@@UBEHXZ 0803cc6c f i ciArrayKlass.obj
 0001:0003bc80       ??0ciBytecodeStream@@QAE@PAVciMethod@@@Z 0803cc80 f   ciBytecodeStream.obj
 0001:0003bcb4       ?set_interval@ciBytecodeStream@@QAEXHH@Z 0803ccb4 f   ciBytecodeStream.obj
 0001:0003bcc8       ?get_constant_index@ciBytecodeStream@@QBEHXZ 0803ccc8 f   ciBytecodeStream.obj
 0001:0003bd0e       ?get_field_index@ciBytecodeStream@@QBEHXZ 0803cd0e f   ciBytecodeStream.obj
 0001:0003bd0e       ?get_klass_index@ciBytecodeStream@@QBEHXZ 0803cd0e f   ciBytecodeStream.obj
 0001:0003bd0e       ?get_method_index@ciBytecodeStream@@QBEHXZ 0803cd0e f   ciBytecodeStream.obj
 0001:0003bd2b       ?get_constant@ciBytecodeStream@@QBE?AVciConstant@@XZ 0803cd2b f   ciBytecodeStream.obj
 0001:0003bd73       ?get_field@ciBytecodeStream@@QBEPAVciField@@XZ 0803cd73 f   ciBytecodeStream.obj
 0001:0003bda3       ?get_klass@ciBytecodeStream@@QBEPAVciKlass@@XZ 0803cda3 f   ciBytecodeStream.obj
 0001:0003be7b       ?get_method@ciBytecodeStream@@QBEPAVciMethod@@XZ 0803ce7b f   ciBytecodeStream.obj
 0001:0003beb1       ?get_declared_method_holder@ciBytecodeStream@@QAEPAVciInstanceKlass@@XZ 0803ceb1 f   ciBytecodeStream.obj
 0001:0003bee8       ?get_method_holder_index@ciBytecodeStream@@QAEHXZ 0803cee8 f   ciBytecodeStream.obj
 0001:0003bf44       ?transition_from_native@ThreadStateTransition@@SAXPAVJavaThread@@W4JavaThreadState@@@Z 0803cf44 f i ciBytecodeStream.obj
 0001:0003bf87       ??1ThreadInVMfromNative@@QAE@XZ 0803cf87 f i ciBytecodeStream.obj
 0001:0003bfea       ??0ciConstantPoolCache@@QAE@PAVArena@@H@Z 0803cfea f   ciConstantPoolCache.obj
 0001:0003c04d       ?get@ciConstantPoolCache@@QAEPAXH@Z 0803d04d f   ciConstantPoolCache.obj
 0001:0003c07e       ?find@ciConstantPoolCache@@AAEHH@Z 0803d07e f   ciConstantPoolCache.obj
 0001:0003c0b2       ?insert@ciConstantPoolCache@@QAEXHPAX@Z 0803d0b2 f   ciConstantPoolCache.obj
 0001:0003c120       ??0ciEnv@@QAE@PAUJNIEnv_@@HHH@Z 0803d120 f   ciEnv.obj
 0001:0003c206       ??1ciEnv@@QAE@XZ           0803d206 f   ciEnv.obj
 0001:0003c20e       ?get_method_from_handle@ciEnv@@AAEPAVciMethod@@PAV_jobject@@@Z 0803d20e f   ciEnv.obj
 0001:0003c269       ?check_klass_accessibility@ciEnv@@AAEHPAVciKlass@@PAVklassOopDesc@@@Z 0803d269 f   ciEnv.obj
 0001:0003c2d3       ?get_klass_by_name_impl@ciEnv@@AAEPAVciKlass@@PAV2@PAVciSymbol@@H@Z 0803d2d3 f   ciEnv.obj
 0001:0003c533       ?get_klass_by_name@ciEnv@@AAEPAVciKlass@@PAV2@PAVciSymbol@@H@Z 0803d533 f   ciEnv.obj
 0001:0003c59b       ?get_klass_by_index_impl@ciEnv@@AAEPAVciKlass@@PAVciInstanceKlass@@HAAH@Z 0803d59b f   ciEnv.obj
 0001:0003c741       ?get_klass_by_index@ciEnv@@AAEPAVciKlass@@PAVciInstanceKlass@@HAAH@Z 0803d741 f   ciEnv.obj
 0001:0003c7a9       ?get_constant_by_index_impl@ciEnv@@AAE?AVciConstant@@PAVinstanceKlass@@H@Z 0803d7a9 f   ciEnv.obj
 0001:0003c8f8       ?get_constant_by_index@ciEnv@@AAE?AVciConstant@@PAVciInstanceKlass@@H@Z 0803d8f8 f   ciEnv.obj
 0001:0003c98b       ?get_field_by_index_impl@ciEnv@@AAEPAVciField@@PAVciInstanceKlass@@H@Z 0803d98b f   ciEnv.obj
 0001:0003ca07       ?get_field_by_index@ciEnv@@AAEPAVciField@@PAVciInstanceKlass@@H@Z 0803da07 f   ciEnv.obj
 0001:0003ca69       ?lookup_method@ciEnv@@AAEPAVmethodOopDesc@@PAVinstanceKlass@@0PAVsymbolOopDesc@@1W4Code@Bytecodes@@@Z 0803da69 f   ciEnv.obj
 0001:0003cbc0       ?get_method_by_index_impl@ciEnv@@AAEPAVciMethod@@PAVciInstanceKlass@@HW4Code@Bytecodes@@@Z 0803dbc0 f   ciEnv.obj
 0001:0003ccab       ?get_method_by_index@ciEnv@@AAEPAVciMethod@@PAVciInstanceKlass@@HW4Code@Bytecodes@@@Z 0803dcab f   ciEnv.obj
 0001:0003cd13       ?name_buffer@ciEnv@@AAEPADH@Z 0803dd13 f   ciEnv.obj
 0001:0003cd49       ?is_in_vm@ciEnv@@CAHXZ     0803dd49 f   ciEnv.obj
 0001:0003cd66       ?call_has_multiple_targets@ciEnv@@CAHPAVinstanceKlass@@VsymbolHandle@@1AAH@Z 0803dd66 f   ciEnv.obj
 0001:0003cdfd       ?is_dependence_violated@ciEnv@@CAHPAVklassOopDesc@@PAVmethodOopDesc@@@Z 0803ddfd f   ciEnv.obj
 0001:0003ceb0       ?must_invalidate_compile_internal@ciEnv@@AAEHPAVDebugInformationRecorder@@@Z 0803deb0 f   ciEnv.obj
 0001:0003cf32       ?register_method@ciEnv@@QAEXPAVciMethod@@HHHHHHPAVDebugInformationRecorder@@PAVCodeBuffer@@HPAVOopMapSet@@PAVExceptionHandlerTable@@PAVImplicitNullCheckTable@@PAVExceptionRangeTable@@HH@Z 0803df32 f   ciEnv.obj
 0001:0003d16b       ?post_compiled_method_load_event@ciEnv@@QAEXPAVnmethod@@@Z 0803e16b f   ciEnv.obj
 0001:0003d1c7       ?build_jvmpi_line_number_mapping@ciEnv@@QAEXPAVnmethod@@PAUcompiled_method_t@@@Z 0803e1c7 f   ciEnv.obj
 0001:0003d3cc       ?compile_id@ciEnv@@QAEIXZ  0803e3cc f   ciEnv.obj
 0001:0003d3e2       ?notice_inlined_method@ciEnv@@QAEXPAVciMethod@@@Z 0803e3e2 f   ciEnv.obj
 0001:0003d3ef       ?num_inlined_bytecodes@ciEnv@@QBEHXZ 0803e3ef f   ciEnv.obj
 0001:0003d3f3       ?set_bailout@ciEnv@@QAEXXZ 0803e3f3 f   ciEnv.obj
 0001:0003d3fb       ?bailed_out@ciEnv@@QAEHXZ  0803e3fb f   ciEnv.obj
 0001:0003d3ff       ?resolved_klass_at@constantPoolOopDesc@@QAEPAVklassOopDesc@@H@Z 0803e3ff f i ciEnv.obj
 0001:0003d43f       ?catch_klass@ciExceptionHandler@@QAEPAVciInstanceKlass@@XZ 0803e43f f   ciExceptionHandler.obj
 0001:0003d512       ??0ciField@@AAE@PAVciInstanceKlass@@H@Z 0803e512 f   ciField.obj
 0001:0003d66c       ?field_type@fieldDescriptor@@QBE?AW4BasicType@@XZ 0803e66c f i ciField.obj
 0001:0003d67f       ?initialize_from@ciField@@AAEXPAVfieldDescriptor@@@Z 0803e67f f   ciField.obj
 0001:0003d894       ?will_link@ciField@@QAEHPAVciInstanceKlass@@W4Code@Bytecodes@@@Z 0803e894 f   ciField.obj
 0001:0003d952       ??0ciFieldLayout@@AAE@PAVciInstanceKlass@@@Z 0803e952 f   ciFieldLayout.obj
 0001:0003da31       ?fill_in_header_fields@ciFieldLayout@@AAEXPAV?$GrowableArray@W4BasicType@@@@PAV?$GrowableArray@H@@AAH@Z 0803ea31 f   ciFieldLayout.obj
 0001:0003db1d       ?fill_in_instance_fields@ciFieldLayout@@AAEXPAV?$GrowableArray@W4BasicType@@@@PAV?$GrowableArray@H@@1AAHPAVklassOopDesc@@@Z 0803eb1d f   ciFieldLayout.obj
 0001:0003dbf7       ?print_layout@ciFieldLayout@@QAEXXZ 0803ebf7 f   ciFieldLayout.obj
 0001:0003dc2f       ?offset_from_fields@instanceKlass@@QBEHH@Z 0803ec2f f i ciFieldLayout.obj
 0001:0003dc6c       ?print_klass_flags@ciFlags@@QAEXXZ 0803ec6c f   ciFlags.obj
 0001:0003dced       ?print_member_flags@ciFlags@@QAEXXZ 0803eced f   ciFlags.obj
 0001:0003dde2       ?print_impl@ciInstance@@MAEXXZ 0803ede2 f   ciInstance.obj
 0001:0003de07       ??0ciInstanceKlass@@IAE@VKlassHandle@@@Z 0803ee07 f   ciInstanceKlass.obj
 0001:0003df4c       ?compute_shared_is_initialized@ciInstanceKlass@@IAEHXZ 0803ef4c f   ciInstanceKlass.obj
 0001:0003dfbc       ?compute_shared_has_subklass@ciInstanceKlass@@IAEHXZ 0803efbc f   ciInstanceKlass.obj
 0001:0003e030       ?loader@ciInstanceKlass@@MAEPAVoopDesc@@XZ 0803f030 f   ciInstanceKlass.obj
 0001:0003e03b       ?loader_handle@ciInstanceKlass@@MAEPAV_jobject@@XZ 0803f03b f   ciInstanceKlass.obj
 0001:0003e03b       ?highest_used_offset@IR@@QBEHXZ 0803f03b f   ciInstanceKlass.obj
 0001:0003e03b       ?oop_map_arg_count@FrameMap@@QAEHXZ 0803f03b f   ciInstanceKlass.obj
 0001:0003e03f       ?protection_domain@ciInstanceKlass@@MAEPAVoopDesc@@XZ 0803f03f f   ciInstanceKlass.obj
 0001:0003e04a       ?field_cache@ciInstanceKlass@@IAEPAVciConstantPoolCache@@XZ 0803f04a f   ciInstanceKlass.obj
 0001:0003e097       ?is_java_lang_Object@ciInstanceKlass@@UAEHXZ 0803f097 f   ciInstanceKlass.obj
 0001:0003e0b5       ?print_impl@ciInstanceKlass@@MAEXXZ 0803f0b5 f   ciInstanceKlass.obj
 0001:0003e208       ?super@ciInstanceKlass@@QAEPAV1@XZ 0803f208 f   ciInstanceKlass.obj
 0001:0003e2c7       ?field_layout@ciInstanceKlass@@QAEPAVciFieldLayout@@XZ 0803f2c7 f   ciInstanceKlass.obj
 0001:0003e374       ?java_mirror@ciInstanceKlass@@UAEPAVciInstance@@XZ 0803f374 f   ciInstanceKlass.obj
 0001:0003e38a       ?type_string@ciInstanceKlass@@MAEPBDXZ 0803f38a f i ciInstanceKlass.obj
 0001:0003e390       ?is_interface@ciInstanceKlass@@UAEHXZ 0803f390 f i ciInstanceKlass.obj
 0001:0003e39a       ?make@ciInstanceKlassKlass@@SAPAV1@XZ 0803f39a f   ciInstanceKlassKlass.obj
 0001:0003e3ac       ??0ciKlass@@QAE@VKlassHandle@@@Z 0803f3ac f   ciKlass.obj
 0001:0003e3f7       ??0ciKlass@@IAE@VKlassHandle@@PAVciSymbol@@@Z 0803f3f7 f   ciKlass.obj
 0001:0003e416       ??0ciKlass@@IAE@PAVciSymbol@@PAV0@@Z 0803f416 f   ciKlass.obj
 0001:0003e435       ?is_subtype_of@ciKlass@@QAEHPAV1@@Z 0803f435 f   ciKlass.obj
 0001:0003e491       ?is_subclass_of@ciKlass@@QAEHPAV1@@Z 0803f491 f   ciKlass.obj
 0001:0003e4e3       ?super_check_offset@ciKlass@@QAE_IXZ 0803f4e3 f   ciKlass.obj
 0001:0003e524       ?java_mirror@ciKlass@@UAEPAVciInstance@@XZ 0803f524 f   ciKlass.obj
 0001:0003e5c7       ?modifier_flags@ciKlass@@QAEHXZ 0803f5c7 f   ciKlass.obj
 0001:0003e61b       ?access_flags@ciKlass@@QAEHXZ 0803f61b f   ciKlass.obj
 0001:0003e66f       ?print_impl@ciKlass@@MAEXXZ 0803f66f f   ciKlass.obj
 0001:0003e68d       ?print_name@ciKlass@@UAEXXZ 0803f68d f   ciKlass.obj
 0001:0003e69c       ?super_depth@Klass@@QBE_IXZ 0803f69c f i ciKlass.obj
 0001:0003e6af       ?type_string@ciKlass@@MAEPBDXZ 0803f6af f i ciKlass.obj
 0001:0003e6b5       ??0ciMethod@@AAE@VmethodHandle@@@Z 0803f6b5 f   ciMethod.obj
 0001:0003e836       ??0ciMethod@@AAE@PAVciInstanceKlass@@PAVciSymbol@@1@Z 0803f836 f   ciMethod.obj
 0001:0003e8a1       ?load_code@ciMethod@@AAEXXZ 0803f8a1 f   ciMethod.obj
 0001:0003ea34       ?native_entry@ciMethod@@QAEPAEXZ 0803fa34 f   ciMethod.obj
 0001:0003ea75       ?has_balanced_monitors@ciMethod@@QAEHXZ 0803fa75 f   ciMethod.obj
 0001:0003eb9d       ?all_oop_maps@ciMethod@@QAEPAVciLocalMap@@XZ 0803fb9d f   ciMethod.obj
 0001:0003ec65       ?find_monomorphic_target@ciMethod@@QAEPAV1@PAVciKlass@@00@Z 0803fc65 f   ciMethod.obj
 0001:0003ed5d       ?will_link@ciMethod@@QAEHPAVciKlass@@0W4Code@Bytecodes@@@Z 0803fd5d f   ciMethod.obj
 0001:0003ed6b       ?should_exclude@ciMethod@@QAEHXZ 0803fd6b f   ciMethod.obj
 0001:0003eddf       ?can_be_compiled@ciMethod@@QAEHXZ 0803fddf f   ciMethod.obj
 0001:0003ee29       ?instructions_size@ciMethod@@QAEHXZ 0803fe29 f   ciMethod.obj
 0001:0003eea5       ?has_loops@ciMethod@@QBEHXZ 0803fea5 f   ciMethod.obj
 0001:0003eeea       ?has_jsrs@ciMethod@@QBEHXZ 0803feea f   ciMethod.obj
 0001:0003ef31       ?print_impl@ciMethod@@EAEXXZ 0803ff31 f   ciMethod.obj
 0001:0003efce       ?has_loops@methodOopDesc@@QAEHXZ 0803ffce f i ciMethod.obj
 0001:0003efe5       ?type_string@ciMethod@@EAEPBDXZ 0803ffe5 f i ciMethod.obj
 0001:0003efeb       ??0ciMethodData@@AAE@VmethodDataHandle@@@Z 0803ffeb f   ciMethodData.obj
 0001:0003f01b       ?type_string@ciMethodData@@EAEPBDXZ 0804001b f i ciMethodData.obj
 0001:0003f021       ?load_data@ciMethodData@@QAEXXZ 08040021 f   ciMethodData.obj
 0001:0003f0e9       ?translate_from@ciVirtualCallData@@UAEXPAVProfileData@@@Z 080400e9 f   ciMethodData.obj
 0001:0003f13e       ?data_at@ciMethodData@@QAEPAVProfileData@@H@Z 0804013e f   ciMethodData.obj
 0001:0003f234       ?print_data_on@ProfileData@@UAEXPAVoutputStream@@@Z 08040234 f i ciMethodData.obj
 0001:0003f249       ?kind@TenuredGeneration@@UAE?AW4Name@Generation@@XZ 08040249 f i ciMethodData.obj
 0001:0003f249       ?size@LongType@@UBEHXZ     08040249 f i ciMethodData.obj
 0001:0003f249       ?number_of_generations@TwoGenerationCollectorPolicy@@UAEHXZ 08040249 f i ciMethodData.obj
 0001:0003f249       ?kind@GenCollectedHeap@@UAE?AW4Name@CollectedHeap@@XZ 08040249 f i ciMethodData.obj
 0001:0003f249       ?size@DoubleType@@UBEHXZ   08040249 f i ciMethodData.obj
 0001:0003f249       ?cell_count@JumpData@@UAEHXZ 08040249 f i ciMethodData.obj
 0001:0003f249       ?type@virtual_call_Relocation@@EAE?AW4relocType@relocInfo@@XZ 08040249 f i ciMethodData.obj
 0001:0003f249       ?tag@FloatType@@UBE?AW4ValueTag@@XZ 08040249 f i ciMethodData.obj
 0001:0003f24d       ?tag@IllegalType@@UBE?AW4ValueTag@@XZ 0804024d f i ciMethodData.obj
 0001:0003f24d       ?cell_count@RetData@@UAEHXZ 0804024d f i ciMethodData.obj
 0001:0003f24d       ?type@external_word_Relocation@@EAE?AW4relocType@relocInfo@@XZ 0804024d f i ciMethodData.obj
 0001:0003f251       ?type@opt_virtual_call_Relocation@@EAE?AW4relocType@relocInfo@@XZ 08040251 f i ciMethodData.obj
 0001:0003f251       ?kind@ParallelScavengeHeap@@UAE?AW4Name@CollectedHeap@@XZ 08040251 f i ciMethodData.obj
 0001:0003f251       ?kind@TrainGeneration@@UAE?AW4Name@Generation@@XZ 08040251 f i ciMethodData.obj
 0001:0003f251       ?evaluation_mode@VM_ThreadStop@@UBE?AW4Mode@VM_Operation@@XZ 08040251 f i ciMethodData.obj
 0001:0003f251       ?cell_count@BranchData@@UAEHXZ 08040251 f i ciMethodData.obj
 0001:0003f251       ?tag@DoubleType@@UBE?AW4ValueTag@@XZ 08040251 f i ciMethodData.obj
 0001:0003f255       ?cell_count@ArrayData@@UAEHXZ 08040255 f i ciMethodData.obj
 0001:0003f25d       ?next_data@ciMethodData@@QAEPAVProfileData@@PAV2@@Z 0804025d f   ciMethodData.obj
 0001:0003f280       ?make@ciMethodKlass@@SAPAV1@XZ 08040280 f   ciMethodKlass.obj
 0001:0003f292       ?print_impl@ciNullObject@@EAEXXZ 08040292 f   ciNullObject.obj
 0001:0003f2a5       ?make@ciNullObject@@SAPAV1@XZ 080402a5 f   ciNullObject.obj
 0001:0003f2b7       ??0ciObjArrayKlass@@IAE@VKlassHandle@@@Z 080402b7 f   ciObjArrayKlass.obj
 0001:0003f311       ?type_string@ciObjArrayKlass@@MAEPBDXZ 08040311 f i ciObjArrayKlass.obj
 0001:0003f317       ?loader@ciObjArrayKlass@@MAEPAVoopDesc@@XZ 08040317 f i ciObjArrayKlass.obj
 0001:0003f31f       ?loader_handle@ciObjArrayKlass@@MAEPAV_jobject@@XZ 0804031f f i ciObjArrayKlass.obj
 0001:0003f327       ?protection_domain@ciObjArrayKlass@@MAEPAVoopDesc@@XZ 08040327 f i ciObjArrayKlass.obj
 0001:0003f332       ?protection_domain_handle@ciObjArrayKlass@@MAEPAV_jobject@@XZ 08040332 f i ciObjArrayKlass.obj
 0001:0003f33d       ??0ciObjArrayKlass@@IAE@PAVciSymbol@@PAVciKlass@@H@Z 0804033d f   ciObjArrayKlass.obj
 0001:0003f378       ?element_klass@ciObjArrayKlass@@QAEPAVciKlass@@XZ 08040378 f   ciObjArrayKlass.obj
 0001:0003f440       ?construct_array_name@ciObjArrayKlass@@KAPAVciSymbol@@PAV2@H@Z 08040440 f   ciObjArrayKlass.obj
 0001:0003f546       ?make_impl@ciObjArrayKlass@@KAPAV1@PAVciKlass@@@Z 08040546 f   ciObjArrayKlass.obj
 0001:0003f5e7       ?make@ciObjArrayKlass@@SAPAV1@PAVciKlass@@@Z 080405e7 f   ciObjArrayKlass.obj
 0001:0003f63d       ?make@ciObjArrayKlassKlass@@SAPAV1@XZ 0804063d f   ciObjArrayKlassKlass.obj
 0001:0003f64f       ??0ciObject@@IAE@VHandle@@@Z 0804064f f   ciObject.obj
 0001:0003f691       ??0ciObject@@IAE@PAVciKlass@@@Z 08040691 f   ciObject.obj
 0001:0003f6ab       ??0ciObject@@IAE@XZ        080406ab f   ciObject.obj
 0001:0003f6bf       ?klass@ciObject@@QAEPAVciKlass@@XZ 080406bf f   ciObject.obj
 0001:0003f794       ?ident@ciObject@@QAEHXZ    08040794 f   ciObject.obj
 0001:0003f794       ?first_waiter@ObjectMonitor@@QAEPAVObjectWaiter@@XZ 08040794 f   ciObject.obj
 0001:0003f798       ?equals@ciObject@@QAEHPAV1@@Z 08040798 f   ciObject.obj
 0001:0003f7a4       ?hash@ciObject@@QAEHXZ     080407a4 f   ciObject.obj
 0001:0003f7aa       ?encoding@ciObject@@QAEPAV_jobject@@XZ 080407aa f   ciObject.obj
 0001:0003f7aa       ?first_oop@virtual_call_Relocation@@QAEPAEXZ 080407aa f   ciObject.obj
 0001:0003f7ae       ?print@ciObject@@QAEXXZ    080407ae f   ciObject.obj
 0001:0003f82c       ?type_string@ciObject@@MAEPBDXZ 0804082c f i ciObject.obj
 0001:0003f832       ??0ciObjectFactory@@QAE@PAVArena@@H@Z 08040832 f   ciObjectFactory.obj
 0001:0003f911       ?init_shared_objects@ciObjectFactory@@AAEXXZ 08040911 f   ciObjectFactory.obj
 0001:0003fd0a       ?get@ciObjectFactory@@QAEPAVciObject@@PAVoopDesc@@@Z 08040d0a f   ciObjectFactory.obj
 0001:0003fe28       ?create_new_object@ciObjectFactory@@AAEPAVciObject@@PAVoopDesc@@@Z 08040e28 f   ciObjectFactory.obj
 0001:00040224       ?type_string@ciMethodKlass@@MAEPBDXZ 08041224 f i ciObjectFactory.obj
 0001:0004022a       ??0ciObjArray@@IAE@VobjArrayHandle@@@Z 0804122a f i ciObjectFactory.obj
 0001:00040255       ?type_string@ciObjArray@@MAEPBDXZ 08041255 f i ciObjectFactory.obj
 0001:0004025b       ?type_string@ciObjArrayKlassKlass@@EAEPBDXZ 0804125b f i ciObjectFactory.obj
 0001:00040261       ?type_string@ciSymbolKlass@@MAEPBDXZ 08041261 f i ciObjectFactory.obj
 0001:00040267       ??0ciTypeArray@@IAE@VtypeArrayHandle@@@Z 08041267 f i ciObjectFactory.obj
 0001:00040292       ?type_string@ciTypeArray@@MAEPBDXZ 08041292 f i ciObjectFactory.obj
 0001:00040298       ?type_string@ciTypeArrayKlassKlass@@EAEPBDXZ 08041298 f i ciObjectFactory.obj
 0001:0004029e       ?get_unloaded_method@ciObjectFactory@@QAEPAVciMethod@@PAVciInstanceKlass@@PAVciSymbol@@1@Z 0804129e f   ciObjectFactory.obj
 0001:00040340       ?get_unloaded_klass@ciObjectFactory@@QAEPAVciKlass@@PAV2@PAVciSymbol@@H@Z 08041340 f   ciObjectFactory.obj
 0001:000404f8       ?init_ident_of@ciObjectFactory@@AAEXPAVciObject@@@Z 080414f8 f   ciObjectFactory.obj
 0001:00040508       ?find@ciObjectFactory@@AAEHPAVoopDesc@@PAV?$GrowableArray@PAVciObject@@@@@Z 08041508 f   ciObjectFactory.obj
 0001:00040543       ?is_found_at@ciObjectFactory@@AAEHHPAVoopDesc@@PAV?$GrowableArray@PAVciObject@@@@@Z 08041543 f   ciObjectFactory.obj
 0001:0004056a       ?insert@ciObjectFactory@@AAEXHPAVciObject@@PAV?$GrowableArray@PAVciObject@@@@@Z 0804156a f   ciObjectFactory.obj
 0001:000405d8       ?find_non_perm@ciObjectFactory@@AAEAAPAUNonPermObject@1@PAVoopDesc@@@Z 080415d8 f   ciObjectFactory.obj
 0001:0004065b       ?insert_non_perm@ciObjectFactory@@AAEXAAPAUNonPermObject@1@PAVoopDesc@@PAVciObject@@@Z 0804165b f   ciObjectFactory.obj
 0001:00040686       ?vm_symbol_at@ciObjectFactory@@SAPAVciSymbol@@H@Z 08041686 f   ciObjectFactory.obj
 0001:000406a2       ??0ciKlassKlass@@IAE@VKlassHandle@@PAVciSymbol@@@Z 080416a2 f i ciObjectFactory.obj
 0001:000406be       ?type_string@ciKlassKlass@@MAEPBDXZ 080416be f i ciObjectFactory.obj
 0001:000406c4       ?type_string@ciInstanceKlassKlass@@EAEPBDXZ 080416c4 f i ciObjectFactory.obj
 0001:000406ca       ??0ciInstanceKlass@@IAE@PAVciSymbol@@PAV_jobject@@1@Z 080416ca f i ciObjectFactory.obj
 0001:00040703       ?type_string@ciNullObject@@EAEPBDXZ 08041703 f i ciObjectFactory.obj
 0001:00040709       ?type_string@ciInstance@@MAEPBDXZ 08041709 f i ciObjectFactory.obj
 0001:0004070f       ??0ciLocalMap@@QAE@PAVArena@@HHH@Z 0804170f f   ciOopMap.obj
 0001:000407ae       ?index_for_bci@ciLocalMap@@QBEHH@Z 080417ae f   ciOopMap.obj
 0001:000407c4       ?set_bci_for_index@ciLocalMap@@AAEXHH@Z 080417c4 f   ciOopMap.obj
 0001:000407dd       ?set_init_local@ciLocalMap@@AAEXHH@Z 080417dd f   ciOopMap.obj
 0001:000407ee       ?set_nof_initialize@ciLocalMap@@AAEXH@Z 080417ee f   ciOopMap.obj
 0001:0004080e       ?create_gc_point_array@@YAPAV?$GrowableArray@H@@PAVArena@@H@Z 0804180e f   ciOopMap.obj
 0001:0004083a       ?find_jsr_return_points@ciGenerateLocalMap@@AAEXVmethodHandle@@@Z 0804183a f   ciOopMap.obj
 0001:000408a8       ?next@BytecodeStream@@QAE?AW4Code@Bytecodes@@XZ 080418a8 f i ciOopMap.obj
 0001:00040917       ??0ciGenerateLocalMap@@QAE@PAVArena@@VmethodHandle@@@Z 08041917 f   ciOopMap.obj
 0001:000409dd       ?fill_stackmap_epilog@ciGenerateLocalMap@@EAEXXZ 080419dd f i ciOopMap.obj
 0001:000409ed       ?possible_gc_point@ciGenerateLocalMap@@EAEHPAVBytecodeStream@@@Z 080419ed f   ciOopMap.obj
 0001:00040b04       ?fill_stackmap_prolog@ciGenerateLocalMap@@EAEXH@Z 08041b04 f   ciOopMap.obj
 0001:00040b11       ?fill_stackmap_for_opcodes@ciGenerateLocalMap@@EAEXPAVBytecodeStream@@PAVCellTypeState@@1H@Z 08041b11 f   ciOopMap.obj
 0001:00040c42       ?fill_init_vars@ciGenerateLocalMap@@EAEXPAV?$GrowableArray@H@@@Z 08041c42 f   ciOopMap.obj
 0001:00040c7b       ??0ciOneAddressMap@@QAE@PAVArena@@HH@Z 08041c7b f   ciOopMap.obj
 0001:00040cb9       ?possible_gc_point@ciOneAddressMapGenerator@@EAEHPAVBytecodeStream@@@Z 08041cb9 f   ciOopMap.obj
 0001:00040ccb       ?fill_stackmap_prolog@ciOneAddressMapGenerator@@EAEXH@Z 08041ccb f   ciOopMap.obj
 0001:00040cd8       ?fill_stackmap_for_opcodes@ciOneAddressMapGenerator@@EAEXPAVBytecodeStream@@PAVCellTypeState@@1H@Z 08041cd8 f   ciOopMap.obj
 0001:00040d97       ??0ciScope@@AAE@PAVCompilationScope@@@Z 08041d97 f   ciScope.obj
 0001:00040e74       ??0ciScope@@AAE@PAV0@PAVCompilationScope@@@Z 08041e74 f   ciScope.obj
 0001:00040f29       ??0ciSignature@@AAE@PAVciKlass@@PAVciSymbol@@@Z 08041f29 f   ciSignature.obj
 0001:0004107f       ?return_type@ciSignature@@QBEPAVciType@@XZ 0804207f f   ciSignature.obj
 0001:0004108c       ?print_signature@ciSignature@@QAEXXZ 0804208c f   ciSignature.obj
 0001:0004109a       ??0ciSymbol@@AAE@VsymbolHandle@@@Z 0804209a f   ciSymbol.obj
 0001:000410b2       ?base@ciSymbol@@AAEPACXZ   080420b2 f   ciSymbol.obj
 0001:00041104       ?byte_at@ciSymbol@@AAEHH@Z 08042104 f   ciSymbol.obj
 0001:00041164       ?utf8_length@ciSymbol@@QAEHXZ 08042164 f   ciSymbol.obj
 0001:000411ba       ?print_impl@ciSymbol@@EAEXXZ 080421ba f   ciSymbol.obj
 0001:000411de       ?print_symbol_on@ciSymbol@@QAEXPAVoutputStream@@@Z 080421de f   ciSymbol.obj
 0001:0004123c       ?make_impl@ciSymbol@@CAPAV1@PBD@Z 0804223c f   ciSymbol.obj
 0001:000412a1       ?make@ciSymbol@@SAPAV1@PBD@Z 080422a1 f   ciSymbol.obj
 0001:000412f7       ?type_string@ciSymbol@@EAEPBDXZ 080422f7 f i ciSymbol.obj
 0001:000412fd       ??0ciType@@AAE@W4BasicType@@@Z 080422fd f   ciType.obj
 0001:00041318       ??0ciType@@AAE@VKlassHandle@@@Z 08042318 f   ciType.obj
 0001:00041352       ??0ciType@@AAE@PAVciKlass@@@Z 08042352 f   ciType.obj
 0001:00041380       ?print_impl@ciType@@EAEXXZ 08042380 f   ciType.obj
 0001:0004139e       ?print_name@ciType@@UAEXXZ 0804239e f   ciType.obj
 0001:000413c0       ?java_mirror@ciType@@UAEPAVciInstance@@XZ 080423c0 f   ciType.obj
 0001:00041420       ?make@ciType@@SAPAV1@W4BasicType@@@Z 08042420 f   ciType.obj
 0001:00041437       ?print_impl@ciReturnAddress@@EAEXXZ 08042437 f   ciType.obj
 0001:0004144e       ?type_string@ciType@@EAEPBDXZ 0804244e f i ciType.obj
 0001:00041454       ?type_string@ciReturnAddress@@EAEPBDXZ 08042454 f i ciType.obj
 0001:0004145a       ??0ciTypeArrayKlass@@IAE@VKlassHandle@@@Z 0804245a f   ciTypeArrayKlass.obj
 0001:0004147d       ?type_string@ciTypeArrayKlass@@MAEPBDXZ 0804247d f i ciTypeArrayKlass.obj
 0001:00041483       ?make_impl@ciTypeArrayKlass@@KAPAV1@W4BasicType@@@Z 08042483 f   ciTypeArrayKlass.obj
 0001:000414b7       ?make@ciTypeArrayKlass@@SAPAV1@W4BasicType@@@Z 080424b7 f   ciTypeArrayKlass.obj
 0001:0004150d       ?basictype_to_char@@YA?BDW4BasicType@@@Z 0804250d f   ciUtilities.obj
 0001:00041527       ?classfile_parse_error@@YAXPBDPAVThread@@@Z 08042527 f   classFileParser.obj
 0001:00041545       ?truncated_class_file_error@@YAXPAVThread@@@Z 08042545 f   classFileParser.obj
 0001:00041556       ?parse_constant_pool_utf8_entry@ClassFileParser@@AAEXVconstantPoolHandle@@HPAVThread@@@Z 08042556 f   classFileParser.obj
 0001:000415b3       ?parse_constant_pool_integer_entry@ClassFileParser@@AAEXVconstantPoolHandle@@H@Z 080425b3 f   classFileParser.obj
 0001:000415fb       ?parse_constant_pool_float_entry@ClassFileParser@@AAEXVconstantPoolHandle@@H@Z 080425fb f   classFileParser.obj
 0001:00041645       ?parse_constant_pool_long_entry@ClassFileParser@@AAEXVconstantPoolHandle@@H@Z 08042645 f   classFileParser.obj
 0001:000416a3       ?parse_constant_pool_double_entry@ClassFileParser@@AAEXVconstantPoolHandle@@H@Z 080426a3 f   classFileParser.obj
 0001:00041709       ?parse_constant_pool_class_entry@ClassFileParser@@AAEXVconstantPoolHandle@@H@Z 08042709 f   classFileParser.obj
 0001:00041757       ?parse_constant_pool_string_entry@ClassFileParser@@AAEXVconstantPoolHandle@@H@Z 08042757 f   classFileParser.obj
 0001:000417a5       ?parse_constant_pool_fieldref_entry@ClassFileParser@@AAEXVconstantPoolHandle@@H@Z 080427a5 f   classFileParser.obj
 0001:00041817       ?parse_constant_pool_methodref_entry@ClassFileParser@@AAEXVconstantPoolHandle@@H@Z 08042817 f   classFileParser.obj
 0001:00041889       ?parse_constant_pool_interfacemethodref_entry@ClassFileParser@@AAEXVconstantPoolHandle@@H@Z 08042889 f   classFileParser.obj
 0001:000418fb       ?parse_constant_pool_nameandtype_entry@ClassFileParser@@AAEXVconstantPoolHandle@@H@Z 080428fb f   classFileParser.obj
 0001:0004196d       ?parse_constant_pool_entry@ClassFileParser@@AAEXVconstantPoolHandle@@PAHPAVThread@@@Z 0804296d f   classFileParser.obj
 0001:00041ab7       ?parse_constant_pool@ClassFileParser@@AAE?AVconstantPoolHandle@@PAVThread@@@Z 08042ab7 f   classFileParser.obj
 0001:00041c8a       ?parse_interfaces@ClassFileParser@@AAE?AVobjArrayHandle@@VconstantPoolHandle@@VHandle@@1PAVThread@@@Z 08042c8a f   classFileParser.obj
 0001:00041de3       ?parse_field_attributes@ClassFileParser@@AAEXVconstantPoolHandle@@PA_GPAHPAVThread@@@Z 08042de3 f   classFileParser.obj
 0001:00041ef5       ?parse_fields@ClassFileParser@@AAE?AVtypeArrayHandle@@VconstantPoolHandle@@PAUFieldAllocationCount@@PAVThread@@@Z 08042ef5 f   classFileParser.obj
 0001:000421d9       ?parse_method@ClassFileParser@@AAE?AVmethodHandle@@VconstantPoolHandle@@PAVAccessFlags@@PAVThread@@@Z 080431d9 f   classFileParser.obj
 0001:00042819       ?parse_methods@ClassFileParser@@AAE?AVobjArrayHandle@@VconstantPoolHandle@@PAVAccessFlags@@PAVThread@@@Z 08043819 f   classFileParser.obj
 0001:0004292a       ?sort_methods@ClassFileParser@@AAE?AVtypeArrayHandle@@VobjArrayHandle@@PAVThread@@@Z 0804392a f   classFileParser.obj
 0001:00042a7b       ?parse_classfile_sourcefile_attribute@ClassFileParser@@AAEXVconstantPoolHandle@@VinstanceKlassHandle@@PAVThread@@@Z 08043a7b f   classFileParser.obj
 0001:00042ac9       ?parse_classfile_source_debug_extension_attribute@ClassFileParser@@AAEXVconstantPoolHandle@@VinstanceKlassHandle@@HPAVThread@@@Z 08043ac9 f   classFileParser.obj
 0001:00042b37       ?parse_classfile_inner_classes_attribute@ClassFileParser@@AAEXVconstantPoolHandle@@VinstanceKlassHandle@@PAVThread@@@Z 08043b37 f   classFileParser.obj
 0001:00042ce4       ?parse_classfile_synthetic_attribute@ClassFileParser@@AAEXVconstantPoolHandle@@VinstanceKlassHandle@@PAVThread@@@Z 08043ce4 f   classFileParser.obj
 0001:00042cfe       ?parse_classfile_attributes@ClassFileParser@@AAEXVconstantPoolHandle@@VinstanceKlassHandle@@PAVThread@@@Z 08043cfe f   classFileParser.obj
 0001:00042e34       ?java_lang_ref_Reference_fix_pre@ClassFileParser@@AAEXPAVtypeArrayHandle@@VconstantPoolHandle@@PAUFieldAllocationCount@@PAVThread@@@Z 08043e34 f   classFileParser.obj
 0001:00042ff1       ?java_lang_Class_fix_pre@ClassFileParser@@AAEXPAVobjArrayHandle@@PAUFieldAllocationCount@@PAVThread@@@Z 08043ff1 f   classFileParser.obj
 0001:00043001       ?java_lang_Class_fix_post@ClassFileParser@@AAEXPAH@Z 08044001 f   classFileParser.obj
 0001:00043014       ?parseClassFile@ClassFileParser@@QAE?AVinstanceKlassHandle@@VsymbolHandle@@VHandle@@1AAV3@PAVThread@@@Z 08044014 f   classFileParser.obj
 0001:00043db4       ?is_event_enabled@jvmpi@@SAHH@Z 08044db4 f i classFileParser.obj
 0001:00043f37       ?compute_oop_map_size@ClassFileParser@@AAEHVinstanceKlassHandle@@HH@Z 08044f37 f   classFileParser.obj
 0001:00043f96       ?fill_oop_maps@ClassFileParser@@AAEXVinstanceKlassHandle@@HH@Z 08044f96 f   classFileParser.obj
 0001:00044036       ?set_precomputed_flags@ClassFileParser@@AAEXVinstanceKlassHandle@@@Z 08045036 f   classFileParser.obj
 0001:00044166       ?append_interfaces@@YAXVobjArrayHandle@@AAHPAVobjArrayOopDesc@@@Z 08045166 f   classFileParser.obj
 0001:000441f3       ?compute_transitive_interfaces@ClassFileParser@@AAE?AVobjArrayHandle@@VinstanceKlassHandle@@V2@PAVThread@@@Z 080451f3 f   classFileParser.obj
 0001:000443bd       ?check_super_class_access@ClassFileParser@@SAXVinstanceKlassHandle@@PAVThread@@@Z 080453bd f   classFileParser.obj
 0001:00044451       ?check_super_interface_access@ClassFileParser@@SAXVinstanceKlassHandle@@PAVThread@@@Z 08045451 f   classFileParser.obj
 0001:00044526       ?check_final_method_override@ClassFileParser@@SAXVinstanceKlassHandle@@PAVThread@@@Z 08045526 f   classFileParser.obj
 0001:00044683       ?check_illegal_static_method@ClassFileParser@@SAXVinstanceKlassHandle@@PAVThread@@@Z 08045683 f   classFileParser.obj
 0001:00044753       ??1PerfTraceTime@@QAE@XZ   08045753 f i classFileParser.obj
 0001:00044776       ?unresolved_klass_at_put@constantPoolOopDesc@@QAEXHPAVsymbolOopDesc@@@Z 08045776 f i classFileParser.obj
 0001:000447b8       ?unresolved_string_at_put@constantPoolOopDesc@@QAEXHPAVsymbolOopDesc@@@Z 080457b8 f i classFileParser.obj
 0001:000447fa       ?symbol_at_put@constantPoolOopDesc@@QAEXHPAVsymbolOopDesc@@@Z 080457fa f i classFileParser.obj
 0001:0004483c       ?start_of_static_fields@instanceKlass@@QBEPAPAVoopDesc@@XZ 0804583c f i classFileParser.obj
 0001:0004484f       ?start_of_itable@instanceKlass@@QBEPAHXZ 0804584f f i classFileParser.obj
 0001:00044866       ?write@CompressedWriteStream@@AAEXE@Z 08045866 f i classFileParser.obj
 0001:00044889       ??0ClassFileStream@@QAE@PAEHPAD@Z 08045889 f   classFileStream.obj
 0001:000448be       ??0ClassPathEntry@@QAE@XZ  080458be f   classLoader.obj
 0001:000448cb       ??0ClassPathDirEntry@@QAE@PAD@Z 080458cb f   classLoader.obj
 0001:000448e6       ?open_stream@ClassPathDirEntry@@UAEPAVClassFileStream@@PBD@Z 080458e6 f   classLoader.obj
 0001:00044997       ?close@hpi@@SAHH@Z         08045997 f i classLoader.obj
 0001:000449a5       ?read@hpi@@SAIHPAXI@Z      080459a5 f i classLoader.obj
 0001:000449bd       ??0ClassPathZipEntry@@QAE@PAPAXPAD@Z 080459bd f   classLoader.obj
 0001:000449df       ?open_stream@ClassPathZipEntry@@UAEPAVClassFileStream@@PBD@Z 080459df f   classLoader.obj
 0001:00044abd       ?setup_bootstrap_search_path@ClassLoader@@CAXXZ 08045abd f   classLoader.obj
 0001:00044cc3       ?load_zip_library@ClassLoader@@CAXXZ 08045cc3 f   classLoader.obj
 0001:00044daf       ?hash@ClassLoader@@CAIPBDH@Z 08045daf f   classLoader.obj
 0001:00044dd7       ?lookup_package@ClassLoader@@CAPAVPackageInfo@@PBD@Z 08045dd7 f   classLoader.obj
 0001:00044e26       ?add_package@ClassLoader@@CAHPBD0@Z 08045e26 f   classLoader.obj
 0001:00044f55       ?get_system_package@ClassLoader@@SAPAVoopDesc@@PBDPAVThread@@@Z 08045f55 f   classLoader.obj
 0001:00044fa2       ?get_system_packages@ClassLoader@@SAPAVobjArrayOopDesc@@PAVThread@@@Z 08045fa2 f   classLoader.obj
 0001:000450ce       ?load_classfile@ClassLoader@@SA?AVinstanceKlassHandle@@VsymbolHandle@@PAVThread@@@Z 080460ce f   classLoader.obj
 0001:0004524d       ??0EventMark@@QAA@PBDZZ    0804624d f i classLoader.obj
 0001:00045252       ?notify_class_unloaded@ClassLoader@@SAXPAVinstanceKlass@@@Z 08046252 f   classLoader.obj
 0001:000452c7       ?notify_class_loaded@ClassLoader@@SAXPAVinstanceKlass@@@Z 080462c7 f   classLoader.obj
 0001:000452f9       ?compute_class_size@ClassLoader@@SAIPAVinstanceKlass@@@Z 080462f9 f   classLoader.obj
 0001:00045378       ?initialize@ClassLoader@@SAXXZ 08046378 f   classLoader.obj
 0001:00045464       ?compute_Object_vtable@ClassLoader@@SAHXZ 08046464 f   classLoader.obj
 0001:00045468       ?classLoader_init@@YAXXZ   08046468 f   classLoader.obj
 0001:0004546d       ?get_canonical_path@ClassLoader@@CAHPAD0H@Z 0804646d f   classLoader.obj
 0001:000454d1       ?native_path@hpi@@SAPADPAD@Z 080464d1 f i classLoader.obj
 0001:000454de       ?open@hpi@@SAHPBDHH@Z      080464de f i classLoader.obj
 0001:000454f6       ?dll_build_name@hpi@@SAXPADH0PBD@Z 080464f6 f i classLoader.obj
 0001:00045511       ?dll_load@hpi@@SAPAXPBDPADH@Z 08046511 f i classLoader.obj
 0001:00045529       ?dll_lookup@hpi@@SAPAXPAXPBD@Z 08046529 f i classLoader.obj
 0001:0004553c       ?restore_state_after_block@JavaThread@@QAEXPAVJavaFrameAnchor@@@Z 0804653c f i classLoader.obj
 0001:0004557a       ??0StateSaver@@QAE@PAVJavaThread@@@Z 0804657a f i classLoader.obj
 0001:0004559d       ?save_state_before_block@JavaThread@@QAEXPAVJavaFrameAnchor@@@Z 0804659d f i classLoader.obj
 0001:000455d7       ??0ThreadToNativeFromVM@@QAE@PAVJavaThread@@@Z 080465d7 f i classLoader.obj
 0001:00045635       ?align_code_offset@@YAIH@Z 08046635 f   codeBlob.obj
 0001:00045651       ?allocation_size@CodeBlob@@SAIPAVCodeBuffer@@HH@Z 08046651 f   codeBlob.obj
 0001:00045681       ??0CodeBlob@@QAE@HH@Z      08046681 f   codeBlob.obj
 0001:000456c5       ??0CodeBlob@@QAE@PAVCodeBuffer@@HHHPAVOopMapSet@@H@Z 080466c5 f   codeBlob.obj
 0001:0004574a       ?set_oop_maps@CodeBlob@@QAEXPAVOopMapSet@@@Z 0804674a f   codeBlob.obj
 0001:00045793       ?flush@CodeBlob@@QAEXXZ    08046793 f   codeBlob.obj
 0001:000457aa       ?oop_addr_at@CodeBlob@@QBEPAPAVoopDesc@@H@Z 080467aa f   codeBlob.obj
 0001:000457bb       ?copy_oops@CodeBlob@@QAEXPAPAV_jobject@@H@Z 080467bb f   codeBlob.obj
 0001:0004581a       ?reloc_type_for_address@CodeBlob@@QAE?AW4relocType@relocInfo@@PAE@Z 0804681a f   codeBlob.obj
 0001:0004586f       ?fix_relocation_at_move@CodeBlob@@QAEXH@Z 0804686f f   codeBlob.obj
 0001:000458ab       ?fix_oop_relocations@CodeBlob@@QAEXPAE0@Z 080468ab f   codeBlob.obj
 0001:000458f9       ?fix_oop_relocations@CodeBlob@@QAEXXZ 080468f9 f   codeBlob.obj
 0001:00045903       ?follow_roots_or_mark_for_unloading@CodeBlob@@UAEXHAAH@Z 08046903 f   codeBlob.obj
 0001:00045918       ?follow_roots_or_mark_for_unloading_for_CMS@CodeBlob@@UAEXPAVCMSIsAliveClosure@@PAVCMSKeepAliveClosure@@HAAH@Z 08046918 f   codeBlob.obj
 0001:0004591b       ?oop_map_for_return_address@CodeBlob@@QAEPAVOopMap@@PAEH@Z 0804691b f   codeBlob.obj
 0001:00045947       ??0BufferBlob@@AAE@HPBD@Z  08046947 f   codeBlob.obj
 0001:00045968       ?create@BufferBlob@@SAPAV1@HPBD@Z 08046968 f   codeBlob.obj
 0001:000459d4       ??2BufferBlob@@CAPAXII@Z   080469d4 f   codeBlob.obj
 0001:000459df       ?free@BufferBlob@@SAXPAV1@@Z 080469df f   codeBlob.obj
 0001:00045a1d       ??0RuntimeStub@@AAE@PBDPAVCodeBuffer@@HHPAVOopMapSet@@H@Z 08046a1d f   codeBlob.obj
 0001:00045a51       ?new_runtime_stub@RuntimeStub@@SAPAV1@PBDPAVCodeBuffer@@HPAVOopMapSet@@H@Z 08046a51 f   codeBlob.obj
 0001:00045aec       ??2RuntimeStub@@CAPAXII@Z  08046aec f   codeBlob.obj
 0001:00045b1c       ??0DeoptimizationBlob@@AAE@PAVCodeBuffer@@HPAVOopMapSet@@HHHH@Z 08046b1c f   codeBlob.obj
 0001:00045b56       ?create@DeoptimizationBlob@@SAPAV1@PAVCodeBuffer@@PAVOopMapSet@@HHHH@Z 08046b56 f   codeBlob.obj
 0001:00045bfb       ??2DeoptimizationBlob@@CAPAXII@Z 08046bfb f   codeBlob.obj
 0001:00045c2b       ?preserve_callee_argument_oops@DeoptimizationBlob@@UAEXVframe@@PBVRegisterMap@@PAVOopClosure@@@Z 08046c2b f   codeBlob.obj
 0001:00045cb1       ??0SafepointBlob@@AAE@PAVCodeBuffer@@HPAVOopMapSet@@H@Z 08046cb1 f   codeBlob.obj
 0001:00045cd9       ?create@SafepointBlob@@SAPAV1@PAVCodeBuffer@@PAVOopMapSet@@H@Z 08046cd9 f   codeBlob.obj
 0001:00045d75       ??2SafepointBlob@@CAPAXII@Z 08046d75 f   codeBlob.obj
 0001:00045da5       ?caller_must_gc_arguments@SafepointBlob@@UBEHPAVJavaThread@@@Z 08046da5 f   codeBlob.obj
 0001:00045db7       ??0instanceKlassHandle@@QAE@PAVklassOopDesc@@@Z 08046db7 f i codeBlob.obj
 0001:00045db7       ??0methodHandle@@QAE@PAVmethodOopDesc@@@Z 08046db7 f i codeBlob.obj
 0001:00045db7       ??0objArrayHandle@@QAE@PAVobjArrayOopDesc@@@Z 08046db7 f i codeBlob.obj
 0001:00045db7       ??0symbolHandle@@QAE@PAVsymbolOopDesc@@@Z 08046db7 f i codeBlob.obj
 0001:00045db7       ??0KlassHandle@@QAE@PAVoopDesc@@@Z 08046db7 f i codeBlob.obj
 0001:00045dc9       ??0PatchingRelocIterator@@QAE@PAVCodeBlob@@PAE1@Z 08046dc9 f i codeBlob.obj
 0001:00045dff       ?reloc_size@CodeBuffer@@QBEHXZ 08046dff f i codeBlob.obj
 0001:00045e14       ?preserve_callee_argument_oops@CodeBlob@@UAEXVframe@@PBVRegisterMap@@PAVOopClosure@@@Z 08046e14 f i codeBlob.obj
 0001:00045e29       ?caller_must_gc_arguments@RuntimeStub@@UBEHPAVJavaThread@@@Z 08046e29 f i codeBlob.obj
 0001:00045e2f       ?name@DeoptimizationBlob@@UBEPBDXZ 08046e2f f i codeBlob.obj
 0001:00045e35       ?preserve_callee_argument_oops@RuntimeStub@@UAEXVframe@@PBVRegisterMap@@PAVOopClosure@@@Z 08046e35 f i codeBlob.obj
 0001:00045e35       ?preserve_callee_argument_oops@BufferBlob@@UAEXVframe@@PBVRegisterMap@@PAVOopClosure@@@Z 08046e35 f i codeBlob.obj
 0001:00045e35       ?preserve_callee_argument_oops@SafepointBlob@@UAEXVframe@@PBVRegisterMap@@PAVOopClosure@@@Z 08046e35 f i codeBlob.obj
 0001:00045e38       ?name@SafepointBlob@@UBEPBDXZ 08046e38 f i codeBlob.obj
 0001:00045e3e       ??0ThreadInVMfromUnknown@@QAE@XZ 08046e3e f i codeBlob.obj
 0001:00045e81       ??1ThreadInVMfromUnknown@@QAE@XZ 08046e81 f i codeBlob.obj
 0001:00045eca       ?Bytecode_invoke_at_check@@YAPAVBytecode_invoke@@VmethodHandle@@H@Z 08046eca f i codeBlob.obj
 0001:00045ef9       ?is_valid@Bytecode_invoke@@QBEHXZ 08046ef9 f i codeBlob.obj
 0001:00045f53       ?insts_memory_size@CodeBuffer@@SAHH@Z 08046f53 f   codeBuffer.obj
 0001:00045f60       ?locs_memory_size@CodeBuffer@@SAHH@Z 08046f60 f   codeBuffer.obj
 0001:00045f6d       ??0CodeBuffer@@QAE@HHHHHHPAVBufferBlob@@PAVrelocInfo@@PAVRelocateBuffer@@HPAVOopRecorder@@PBDH@Z 08046f6d f   codeBuffer.obj
 0001:000460c3       ??0CodeBuffer@@QAE@PAEH@Z  080470c3 f   codeBuffer.obj
 0001:00046115       ??1CodeBuffer@@QAE@XZ      08047115 f   codeBuffer.obj
 0001:0004612a       ?alloc_relocate@CodeBuffer@@QAEPAVRelocateBuffer@@XZ 0804712a f   codeBuffer.obj
 0001:00046181       ?add_stub_reloc@CodeBuffer@@AAEXPAEABVRelocationHolder@@H@Z 08047181 f   codeBuffer.obj
 0001:000461a4       ?relocate@CodeBuffer@@QAEXPAEABVRelocationHolder@@H@Z 080471a4 f   codeBuffer.obj
 0001:00046305       ?copy_code@CodeBuffer@@QAEXPAVCodeBlob@@@Z 08047305 f   codeBuffer.obj
 0001:00046363       ?copy_relocation@CodeBuffer@@QAEXPAVCodeBlob@@@Z 08047363 f   codeBuffer.obj
 0001:000463e0       ?transform_address@CodeBuffer@@QBEPAEABV1@PAE@Z 080473e0 f   codeBuffer.obj
 0001:00046447       ?alloc_relocation@CodeBuffer@@QAEXI@Z 08047447 f   codeBuffer.obj
 0001:00046478       ?realloc_relocation@CodeBuffer@@QAEXI@Z 08047478 f   codeBuffer.obj
 0001:000464ba       ?pack_data@BoundRelocation@@QAEPAVrelocInfo@@PAV2@@Z 080474ba f i codeBuffer.obj
 0001:000464eb       ?type@runtime_call_Relocation@@EAE?AW4relocType@relocInfo@@XZ 080474eb f i codeBuffer.obj
 0001:000464eb       ?tag@VoidType@@UBE?AW4ValueTag@@XZ 080474eb f i codeBuffer.obj
 0001:000464ef       ?unpack_data@BoundRelocation@@QAEXW4relocType@relocInfo@@@Z 080474ef f i codeBuffer.obj
 0001:0004692c       ?value@oop_Relocation@@UAEPAEXZ 0804792c f i codeBuffer.obj
 0001:00046934       ?object_size@compiledICHolderOopDesc@@SAHXZ 08047934 f i codeBuffer.obj
 0001:00046934       ?type@static_call_Relocation@@EAE?AW4relocType@relocInfo@@XZ 08047934 f i codeBuffer.obj
 0001:00046934       ?kind@ConcurrentMarkSweepGeneration@@UAE?AW4Name@Generation@@XZ 08047934 f i codeBuffer.obj
 0001:00046934       ?minimum_free_block_size@CompactibleFreeListSpace@@UBEIXZ 08047934 f i codeBuffer.obj
 0001:00046934       ?tag@ObjectType@@UBE?AW4ValueTag@@XZ 08047934 f i codeBuffer.obj
 0001:00046938       ?type@safepoint_Relocation@@EAE?AW4relocType@relocInfo@@XZ 08047938 f i codeBuffer.obj
 0001:0004693c       ?type@return_Relocation@@EAE?AW4relocType@relocInfo@@XZ 0804793c f i codeBuffer.obj
 0001:00046940       ?type@jsr_Relocation@@EAE?AW4relocType@relocInfo@@XZ 08047940 f i codeBuffer.obj
 0001:00046944       ?type@jsr_ret_Relocation@@EAE?AW4relocType@relocInfo@@XZ 08047944 f i codeBuffer.obj
 0001:00046948       ?type@breakpoint_Relocation@@EAE?AW4relocType@relocInfo@@XZ 08047948 f i codeBuffer.obj
 0001:00046975       ?first@CodeCache@@SAPAVCodeBlob@@XZ 08047975 f   codeCache.obj
 0001:0004698d       ?next@CodeCache@@SAPAVCodeBlob@@PAV2@@Z 0804798d f   codeCache.obj
 0001:000469b1       ?alive@CodeCache@@SAPAVCodeBlob@@PAV2@@Z 080479b1 f   codeCache.obj
 0001:000469d4       ?alive_nmethod@CodeCache@@SAPAVnmethod@@PAVCodeBlob@@@Z 080479d4 f   codeCache.obj
 0001:00046a02       ?allocate@CodeCache@@SAPAVCodeBlob@@H@Z 08047a02 f   codeCache.obj
 0001:00046a4f       ?free@CodeCache@@SAXPAVCodeBlob@@@Z 08047a4f f   codeCache.obj
 0001:00046a84       ?commit@CodeCache@@SAXPAVCodeBlob@@@Z 08047a84 f   codeCache.obj
 0001:00046aa7       ?contains@CodeCache@@SAHPAX@Z 08047aa7 f   codeCache.obj
 0001:00046ac1       ?find_blob@CodeCache@@SAPAVCodeBlob@@PAX@Z 08047ac1 f   codeCache.obj
 0001:00046b10       ?find_blob_unsafe@CodeCache@@SAPAVCodeBlob@@PAX@Z 08047b10 f   codeCache.obj
 0001:00046b20       ?find_nmethod@CodeCache@@SAPAVnmethod@@PAX@Z 08047b20 f   codeCache.obj
 0001:00046b2b       ?do_unloading@CodeCache@@SAXHAAH@Z 08047b2b f   codeCache.obj
 0001:00046b64       ?do_unloading_for_CMS@CodeCache@@SAXPAVCMSIsAliveClosure@@PAVCMSKeepAliveClosure@@HAAH@Z 08047b64 f   codeCache.obj
 0001:00046ba5       ?oops_do@CodeCache@@SAXPAVOopClosure@@@Z 08047ba5 f   codeCache.obj
 0001:00046bd4       ?gc_epilogue@CodeCache@@SAXXZ 08047bd4 f   codeCache.obj
 0001:00046c19       ?first_address@CodeCache@@SAPAEXZ 08047c19 f   codeCache.obj
 0001:00046c22       ?initialize@CodeCache@@SAXXZ 08047c22 f   codeCache.obj
 0001:00046c90       ?codeCache_init@@YAXXZ     08047c90 f   codeCache.obj
 0001:00046c95       ?number_of_nmethods_with_dependencies@CodeCache@@SAHXZ 08047c95 f   codeCache.obj
 0001:00046c9b       ?mark_for_deoptimization@CodeCache@@SAHPAVklassOopDesc@@@Z 08047c9b f   codeCache.obj
 0001:00046d5e       ?mark_for_evol_deoptimization@CodeCache@@SAHVinstanceKlassHandle@@@Z 08047d5e f   codeCache.obj
 0001:00046e2d       ?mark_for_deoptimization@CodeCache@@SAHPAVmethodOopDesc@@@Z 08047e2d f   codeCache.obj
 0001:00046ea5       ?make_marked_nmethods_zombies@CodeCache@@SAXXZ 08047ea5 f   codeCache.obj
 0001:00046edb       ?make_marked_nmethods_not_entrant@CodeCache@@SAXXZ 08047edb f   codeCache.obj
 0001:00046f11       ?allocate_from_tlab_slow@CollectedHeap@@KAPAVHeapWord@@PAVThread@@I@Z 08047f11 f   collectedHeap.obj
 0001:00046fe3       ?compute_new_size@ThreadLocalAllocBuffer@@QAEII@Z 08047fe3 f i collectedHeap.obj
 0001:0004709b       ?allocate_new_tlab@CollectedHeap@@MAEPAVHeapWord@@I@Z 0804809b f   collectedHeap.obj
 0001:000470b5       ?fill_all_tlabs@CollectedHeap@@MAEXXZ 080480b5 f   collectedHeap.obj
 0001:000470cf       ?ensure_parseability@CollectedHeap@@UAEXXZ 080480cf f   collectedHeap.obj
 0001:000470de       ??0CollectorCounters@@QAE@PBD0H@Z 080480de f   collectorCounters.obj
 0001:00047208       ?create_rem_set@CollectorPolicy@@UAEPAVGenRemSet@@VMemRegion@@H@Z 08048208 f   collectorPolicy.obj
 0001:00047274       ?initialize_flags@TwoGenerationCollectorPolicy@@MAEXXZ 08048274 f   collectorPolicy.obj
 0001:00047393       ?initialize_size_info@TwoGenerationCollectorPolicy@@MAEXXZ 08048393 f   collectorPolicy.obj
 0001:000474ea       ?mem_allocate_work@TwoGenerationCollectorPolicy@@UAEPAVHeapWord@@IHH@Z 080484ea f   collectorPolicy.obj
 0001:00047613       ?satisfy_failed_allocation@TwoGenerationCollectorPolicy@@UAEPAVHeapWord@@IHHAAH@Z 08048613 f   collectorPolicy.obj
 0001:0004776a       ?large_typearray_limit@TwoGenerationCollectorPolicy@@UAEIXZ 0804876a f   collectorPolicy.obj
 0001:00047770       ?should_try_older_generation_allocation@TwoGenerationCollectorPolicy@@EBEHI@Z 08048770 f   collectorPolicy.obj
 0001:0004778f       ??0TrainPolicy@@QAE@XZ     0804878f f   collectorPolicy.obj
 0001:000477af       ?initialize_flags@TrainPolicy@@MAEXXZ 080487af f   collectorPolicy.obj
 0001:000477c9       ?initialize_generations@TrainPolicy@@MAEXXZ 080487c9 f   collectorPolicy.obj
 0001:000478ac       ?should_try_older_generation_allocation@TrainPolicy@@EBEHI@Z 080488ac f   collectorPolicy.obj
 0001:000478bc       ?large_typearray_limit@TrainPolicy@@UAEIXZ 080488bc f   collectorPolicy.obj
 0001:000478c2       ??0ConcurrentMarkSweepPolicy@@QAE@XZ 080488c2 f   collectorPolicy.obj
 0001:000478e2       ?initialize_generations@ConcurrentMarkSweepPolicy@@MAEXXZ 080488e2 f   collectorPolicy.obj
 0001:00047a1a       ??0MarkSweepPolicy@@QAE@XZ 08048a1a f   collectorPolicy.obj
 0001:00047a3a       ?initialize_generations@MarkSweepPolicy@@MAEXXZ 08048a3a f   collectorPolicy.obj
 0001:00047b6e       ?offset@oop_Relocation@@UAEHXZ 08048b6e f i collectorPolicy.obj
 0001:00047b6e       ?as_gen@CMSPermGen@@UBEPAVGeneration@@XZ 08048b6e f i collectorPolicy.obj
 0001:00047b6e       ?type@LIR_Const@@UBE?AW4BasicType@@XZ 08048b6e f i collectorPolicy.obj
 0001:00047b6e       ?generations@CollectorPolicy@@UAEPAPAVGenerationSpec@@XZ 08048b6e f i collectorPolicy.obj
 0001:00047b6e       ?as_gen@CompactingPermGen@@UBEPAVGeneration@@XZ 08048b6e f i collectorPolicy.obj
 0001:00047b6e       ?initialize_threshold@CompactibleSpace@@UAEPAVHeapWord@@XZ 08048b6e f i collectorPolicy.obj
 0001:00047b6e       ?end@Space@@QBEPAVHeapWord@@XZ 08048b6e f i collectorPolicy.obj
 0001:00047b72       ?permanent_generation@CollectorPolicy@@UAEPAVPermanentGenerationSpec@@XZ 08048b72 f i collectorPolicy.obj
 0001:00047b72       ?bottom@Space@@QBEPAVHeapWord@@XZ 08048b72 f i collectorPolicy.obj
 0001:00047b76       ?should_collect_gen0_first@MarkSweepPolicy@@UAEHW4Cause@GCCause@@@Z 08048b76 f i collectorPolicy.obj
 0001:00047b8c       ?set_gc_cause@SharedHeap@@QAEXW4Cause@GCCause@@@Z 08048b8c f i collectorPolicy.obj
 0001:00047bcb       ?name@VM_GenCollectForAllocation@@UBEPBDXZ 08048bcb f i collectorPolicy.obj
 0001:00047bd1       ??0CompactibleFreeListSpace@@QAE@PAVBlockOffsetSharedArray@@VMemRegion@@HW4DictionaryChoice@FreeBlockDictionary@@@Z 08048bd1 f   compactibleFreeListSpace.obj
 0001:00047dfe       ??0PromotionInfo@@QAE@XZ   08048dfe f i compactibleFreeListSpace.obj
 0001:00047e1d       ?used_region@CompactibleFreeListSpace@@UBE?AVMemRegion@@XZ 08048e1d f i compactibleFreeListSpace.obj
 0001:00047e44       ?adjust_object_size_v@CompactibleFreeListSpace@@UBEII@Z 08048e44 f i compactibleFreeListSpace.obj
 0001:00047e51       ?adjustObjectSize@CompactibleFreeListSpace@@SAII@Z 08048e51 f i compactibleFreeListSpace.obj
 0001:00047e61       ?forward@CompactibleFreeListSpace@@EAEPAVHeapWord@@PAVoopDesc@@IPAVCompactPoint@@PAV2@@Z 08048e61 f   compactibleFreeListSpace.obj
 0001:00047f1e       ?cross_threshold@CompactibleFreeListSpace@@EAEPAVHeapWord@@PAV2@0@Z 08048f1e f   compactibleFreeListSpace.obj
 0001:00047f38       ?initializeIndexedFreeListArray@CompactibleFreeListSpace@@AAEXXZ 08048f38 f   compactibleFreeListSpace.obj
 0001:00047f5f       ?resetIndexedFreeListArray@CompactibleFreeListSpace@@IAEXXZ 08048f5f f   compactibleFreeListSpace.obj
 0001:00047f81       ?reset@CompactibleFreeListSpace@@IAEXVMemRegion@@@Z 08048f81 f   compactibleFreeListSpace.obj
 0001:00047ffe       ?reset@PromotionInfo@@QAEXXZ 08048ffe f i compactibleFreeListSpace.obj
 0001:00048016       ?reset_after_compaction@CompactibleFreeListSpace@@UAEXXZ 08049016 f   compactibleFreeListSpace.obj
 0001:00048032       ?used@CompactibleFreeListSpace@@UBEIXZ 08049032 f   compactibleFreeListSpace.obj
 0001:00048048       ?free@CompactibleFreeListSpace@@UBEIXZ 08049048 f   compactibleFreeListSpace.obj
 0001:00048070       ?max_alloc_in_words@CompactibleFreeListSpace@@QBEIXZ 08049070 f   compactibleFreeListSpace.obj
 0001:000480bb       ?reportFreeListStatistics@CompactibleFreeListSpace@@ABEXXZ 080490bb f   compactibleFreeListSpace.obj
 0001:00048115       ?reportIndexedFreeListStatistics@CompactibleFreeListSpace@@ABEXXZ 08049115 f   compactibleFreeListSpace.obj
 0001:00048178       ?numFreeBlocksInIndexedFreeLists@CompactibleFreeListSpace@@ABEIXZ 08049178 f   compactibleFreeListSpace.obj
 0001:00048191       ?maxChunkSizeInIndexedFreeLists@CompactibleFreeListSpace@@ABEIXZ 08049191 f   compactibleFreeListSpace.obj
 0001:000481ae       ?set_end@CompactibleFreeListSpace@@UAEXPAVHeapWord@@@Z 080491ae f   compactibleFreeListSpace.obj
 0001:000482a3       ?walk_mem_region_with_cl@FreeListSpace_DCTOC@@MAEXVMemRegion@@PAVHeapWord@@1PAVOopClosure@@@Z 080492a3 f   compactibleFreeListSpace.obj
 0001:000482e4       ?walk_mem_region_with_cl_par@FreeListSpace_DCTOC@@IAEXVMemRegion@@PAVHeapWord@@1PAVOopClosure@@@Z 080492e4 f   compactibleFreeListSpace.obj
 0001:00048384       ?isMarked@CMSBitMap@@QBEHPAVHeapWord@@@Z 08049384 f i compactibleFreeListSpace.obj
 0001:000483b8       ?walk_mem_region_with_cl_nopar@FreeListSpace_DCTOC@@IAEXVMemRegion@@PAVHeapWord@@1PAVOopClosure@@@Z 080493b8 f   compactibleFreeListSpace.obj
 0001:00048458       ?walk_mem_region_with_cl@FreeListSpace_DCTOC@@MAEXVMemRegion@@PAVHeapWord@@1PAVFilteringClosure@@@Z 08049458 f   compactibleFreeListSpace.obj
 0001:00048499       ?walk_mem_region_with_cl_par@FreeListSpace_DCTOC@@IAEXVMemRegion@@PAVHeapWord@@1PAVFilteringClosure@@@Z 08049499 f   compactibleFreeListSpace.obj
 0001:00048539       ?walk_mem_region_with_cl_nopar@FreeListSpace_DCTOC@@IAEXVMemRegion@@PAVHeapWord@@1PAVFilteringClosure@@@Z 08049539 f   compactibleFreeListSpace.obj
 0001:000485d9       ?new_dcto_cl@CompactibleFreeListSpace@@UAEPAVDirtyCardToOopClosure@@PAVOopClosure@@W4PrecisionStyle@CardTableModRefBS@@PAVHeapWord@@@Z 080495d9 f   compactibleFreeListSpace.obj
 0001:0004861b       ?blk_iterate_careful@CompactibleFreeListSpace@@QAEXPAVBlkClosureCareful@@@Z 0804961b f   compactibleFreeListSpace.obj
 0001:00048641       ?oop_iterate@CompactibleFreeListSpace@@UAEXPAVOopClosure@@@Z 08049641 f   compactibleFreeListSpace.obj
 0001:00048688       ?oop_iterate@CompactibleFreeListSpace@@UAEXVMemRegion@@PAVOopClosure@@@Z 08049688 f   compactibleFreeListSpace.obj
 0001:000487d2       ?object_iterate@CompactibleFreeListSpace@@UAEXPAVObjectClosure@@@Z 080497d2 f   compactibleFreeListSpace.obj
 0001:0004880f       ?object_iterate_mem@CompactibleFreeListSpace@@UAEXVMemRegion@@PAVUpwardsObjectClosure@@@Z 0804980f f   compactibleFreeListSpace.obj
 0001:0004882f       ?object_iterate_mem_careful@CompactibleFreeListSpace@@UAEPAVHeapWord@@VMemRegion@@PAVMemObjectClosureCareful@@@Z 0804982f f   compactibleFreeListSpace.obj
 0001:000488cd       ?block_start@CompactibleFreeListSpace@@UBEPAVHeapWord@@PBX@Z 080498cd f   compactibleFreeListSpace.obj
 0001:000488eb       ?block_start_careful@CompactibleFreeListSpace@@QBEPAVHeapWord@@PBX@Z 080498eb f   compactibleFreeListSpace.obj
 0001:000488fa       ?block_size@CompactibleFreeListSpace@@UBEIPBVHeapWord@@@Z 080498fa f   compactibleFreeListSpace.obj
 0001:0004892b       ?block_size_nopar@CompactibleFreeListSpace@@QBEIPBVHeapWord@@@Z 0804992b f   compactibleFreeListSpace.obj
 0001:00048954       ?block_is_obj@CompactibleFreeListSpace@@UBEHPBVHeapWord@@@Z 08049954 f   compactibleFreeListSpace.obj
 0001:00048975       ?block_is_obj_nopar@CompactibleFreeListSpace@@QBEHPBVHeapWord@@@Z 08049975 f   compactibleFreeListSpace.obj
 0001:00048989       ?totalSizeInIndexedFreeLists@CompactibleFreeListSpace@@IBEIXZ 08049989 f   compactibleFreeListSpace.obj
 0001:000489ae       ?allocate@CompactibleFreeListSpace@@UAEPAVHeapWord@@I@Z 080499ae f   compactibleFreeListSpace.obj
 0001:000489bc       ?par_allocate@CompactibleFreeListSpace@@UAEPAVHeapWord@@I@Z 080499bc f   compactibleFreeListSpace.obj
 0001:000489ef       ?allocate@CompactibleFreeListSpace@@QAEPAVHeapWord@@IH@Z 080499ef f   compactibleFreeListSpace.obj
 0001:00048a17       ?allocate_non_adaptive_freelists@CompactibleFreeListSpace@@AAEPAVHeapWord@@IH@Z 08049a17 f   compactibleFreeListSpace.obj
 0001:00048a4d       ?allocate_adaptive_freelists@CompactibleFreeListSpace@@AAEPAVHeapWord@@IH@Z 08049a4d f   compactibleFreeListSpace.obj
 0001:00048aa2       ?expansionSpaceRequired@CompactibleFreeListSpace@@QBEII@Z 08049aa2 f   compactibleFreeListSpace.obj
 0001:00048acf       ?getChunkFromGreater@CompactibleFreeListSpace@@AAEPAVFreeChunk@@I@Z 08049acf f   compactibleFreeListSpace.obj
 0001:00048b4f       ?allocateScratch@CompactibleFreeListSpace@@QAEPAVFreeChunk@@I@Z 08049b4f f   compactibleFreeListSpace.obj
 0001:00048b8b       ?promote@CompactibleFreeListSpace@@QAEPAVoopDesc@@PAV2@IPAPAV2@@Z 08049b8b f   compactibleFreeListSpace.obj
 0001:00048be3       ?ensureSpoolingSpace@PromotionInfo@@QAEHXZ 08049be3 f i compactibleFreeListSpace.obj
 0001:00048c00       ?getChunkFromSmallLinearAllocBlock@CompactibleFreeListSpace@@AAEPAVHeapWord@@I@Z 08049c00 f   compactibleFreeListSpace.obj
 0001:00048c13       ?getChunkFromLinearAllocBlock@CompactibleFreeListSpace@@AAEPAVHeapWord@@PAVLinearAllocBlock@@I@Z 08049c13 f   compactibleFreeListSpace.obj
 0001:00048cec       ?getChunkFromLinearAllocBlockRemainder@CompactibleFreeListSpace@@AAEPAVHeapWord@@PAVLinearAllocBlock@@I@Z 08049cec f   compactibleFreeListSpace.obj
 0001:00048d49       ?getChunkFromIndexedFreeList@CompactibleFreeListSpace@@AAEPAVFreeChunk@@I@Z 08049d49 f i compactibleFreeListSpace.obj
 0001:00048d72       ?getChunkFromIndexedFreeListHelper@CompactibleFreeListSpace@@AAEPAVFreeChunk@@I@Z 08049d72 f   compactibleFreeListSpace.obj
 0001:00048eab       ?getChunkFromDictionary@CompactibleFreeListSpace@@AAEPAVFreeChunk@@I@Z 08049eab f   compactibleFreeListSpace.obj
 0001:00048eef       ?getChunkFromDictionaryExact@CompactibleFreeListSpace@@AAEPAVFreeChunk@@I@Z 08049eef f   compactibleFreeListSpace.obj
 0001:00048f67       ?returnChunkToDictionary@CompactibleFreeListSpace@@AAEXPAVFreeChunk@@@Z 08049f67 f   compactibleFreeListSpace.obj
 0001:00048fb9       ?returnChunkToFreeList@CompactibleFreeListSpace@@AAEXPAVFreeChunk@@@Z 08049fb9 f   compactibleFreeListSpace.obj
 0001:00048fed       ?addChunkToFreeLists@CompactibleFreeListSpace@@AAEXPAVHeapWord@@I@Z 08049fed f   compactibleFreeListSpace.obj
 0001:00049010       ?addChunkAndRepairOffsetTable@CompactibleFreeListSpace@@QAEXPAVHeapWord@@IH@Z 0804a010 f   compactibleFreeListSpace.obj
 0001:00049040       ?removeFreeChunkFromFreeLists@CompactibleFreeListSpace@@QAEXPAVFreeChunk@@@Z 0804a040 f   compactibleFreeListSpace.obj
 0001:0004905d       ?removeChunkFromDictionary@CompactibleFreeListSpace@@AAEXPAVFreeChunk@@@Z 0804a05d f   compactibleFreeListSpace.obj
 0001:000490ae       ?removeChunkFromIndexedFreeList@CompactibleFreeListSpace@@AAEXPAVFreeChunk@@@Z 0804a0ae f   compactibleFreeListSpace.obj
 0001:000490c8       ?bestFitSmall@CompactibleFreeListSpace@@AAEPAVFreeChunk@@I@Z 0804a0c8 f   compactibleFreeListSpace.obj
 0001:0004912e       ?getFromListGreater@CompactibleFreeListSpace@@AAEPAVFreeChunk@@PAVFreeList@@I@Z 0804a12e f   compactibleFreeListSpace.obj
 0001:0004914f       ?splitChunkAndReturnRemainder@CompactibleFreeListSpace@@AAEPAVFreeChunk@@PAV2@I@Z 0804a14f f   compactibleFreeListSpace.obj
 0001:00049200       ?gc_prologue@CompactibleFreeListSpace@@QAEXXZ 0804a200 f   compactibleFreeListSpace.obj
 0001:00049228       ?gc_epilogue@CompactibleFreeListSpace@@QAEXXZ 0804a228 f   compactibleFreeListSpace.obj
 0001:00049258       ?save_marks@CompactibleFreeListSpace@@QAEXXZ 0804a258 f   compactibleFreeListSpace.obj
 0001:00049274       ?no_allocs_since_save_marks@CompactibleFreeListSpace@@QAEHXZ 0804a274 f   compactibleFreeListSpace.obj
 0001:000492a4       ?oop_since_save_marks_iterate_v@CompactibleFreeListSpace@@QAEXPAVOopsInGenClosure@@@Z 0804a2a4 f   compactibleFreeListSpace.obj
 0001:000492a4       ?oop_since_save_marks_iterate_nv@CompactibleFreeListSpace@@QAEXPAVUpdateTrainRSWrapParScanWithBarrierClosure@@@Z 0804a2a4 f   compactibleFreeListSpace.obj
 0001:000492a4       ?oop_since_save_marks_iterate_nv@CompactibleFreeListSpace@@QAEXPAVUpdateTrainRSWrapParScanWithoutBarrierClosure@@@Z 0804a2a4 f   compactibleFreeListSpace.obj
 0001:000492dd       ?oop_since_save_marks_iterate_nv@CompactibleFreeListSpace@@QAEXPAVScanClosure@@@Z 0804a2dd f   compactibleFreeListSpace.obj
 0001:00049316       ?equals@MemRegion@@QBEHV1@@Z 0804a316 f i compactibleFreeListSpace.obj
 0001:00049345       ?oop_since_save_marks_iterate_nv@CompactibleFreeListSpace@@QAEXPAVFastScanClosure@@@Z 0804a345 f   compactibleFreeListSpace.obj
 0001:0004937e       ?oop_since_save_marks_iterate_nv@CompactibleFreeListSpace@@QAEXPAVTrainScanClosure@@@Z 0804a37e f   compactibleFreeListSpace.obj
 0001:000493b7       ?oop_since_save_marks_iterate_nv@CompactibleFreeListSpace@@QAEXPAVUpdateTrainRSWrapScanClosure@@@Z 0804a3b7 f   compactibleFreeListSpace.obj
 0001:000493f0       ?oop_since_save_marks_iterate_nv@CompactibleFreeListSpace@@QAEXPAVUpdateTrainRSWrapFastScanClosure@@@Z 0804a3f0 f   compactibleFreeListSpace.obj
 0001:00049429       ?oop_since_save_marks_iterate_nv@CompactibleFreeListSpace@@QAEXPAVUpdateTrainRSWrapTrainScanClosure@@@Z 0804a429 f   compactibleFreeListSpace.obj
 0001:00049462       ?oop_since_save_marks_iterate_nv@CompactibleFreeListSpace@@QAEXPAVParScanWithBarrierClosure@@@Z 0804a462 f   compactibleFreeListSpace.obj
 0001:0004949b       ?oop_since_save_marks_iterate_nv@CompactibleFreeListSpace@@QAEXPAVParScanWithoutBarrierClosure@@@Z 0804a49b f   compactibleFreeListSpace.obj
 0001:000494d4       ?promoted_oops_iterate_nv@PromotionInfo@@QAEXPAVScanClosure@@@Z 0804a4d4 f   compactibleFreeListSpace.obj
 0001:00049532       ?promoted_oops_iterate_nv@PromotionInfo@@QAEXPAVFastScanClosure@@@Z 0804a532 f   compactibleFreeListSpace.obj
 0001:00049590       ?promoted_oops_iterate_nv@PromotionInfo@@QAEXPAVTrainScanClosure@@@Z 0804a590 f   compactibleFreeListSpace.obj
 0001:000495ee       ?promoted_oops_iterate_nv@PromotionInfo@@QAEXPAVUpdateTrainRSWrapScanClosure@@@Z 0804a5ee f   compactibleFreeListSpace.obj
 0001:0004964c       ?promoted_oops_iterate_nv@PromotionInfo@@QAEXPAVUpdateTrainRSWrapFastScanClosure@@@Z 0804a64c f   compactibleFreeListSpace.obj
 0001:000496aa       ?promoted_oops_iterate_nv@PromotionInfo@@QAEXPAVUpdateTrainRSWrapTrainScanClosure@@@Z 0804a6aa f   compactibleFreeListSpace.obj
 0001:00049708       ?promoted_oops_iterate_nv@PromotionInfo@@QAEXPAVParScanWithBarrierClosure@@@Z 0804a708 f   compactibleFreeListSpace.obj
 0001:00049766       ?promoted_oops_iterate_nv@PromotionInfo@@QAEXPAVParScanWithoutBarrierClosure@@@Z 0804a766 f   compactibleFreeListSpace.obj
 0001:000497c4       ?promoted_oops_iterate_nv@PromotionInfo@@QAEXPAVUpdateTrainRSWrapParScanWithoutBarrierClosure@@@Z 0804a7c4 f   compactibleFreeListSpace.obj
 0001:000497c4       ?promoted_oops_iterate_nv@PromotionInfo@@QAEXPAVUpdateTrainRSWrapParScanWithBarrierClosure@@@Z 0804a7c4 f   compactibleFreeListSpace.obj
 0001:000497c4       ?promoted_oops_iterate_v@PromotionInfo@@QAEXPAVOopsInGenClosure@@@Z 0804a7c4 f   compactibleFreeListSpace.obj
 0001:00049822       ?object_iterate_since_last_GC@CompactibleFreeListSpace@@QAEXPAVObjectClosure@@@Z 0804a822 f   compactibleFreeListSpace.obj
 0001:0004983d       ?linearAllocationWouldFail@CompactibleFreeListSpace@@QAEHXZ 0804a83d f   compactibleFreeListSpace.obj
 0001:00049849       ?repairLinearAllocationBlocks@CompactibleFreeListSpace@@AAEXXZ 0804a849 f   compactibleFreeListSpace.obj
 0001:00049856       ?repairLinearAllocBlock@CompactibleFreeListSpace@@AAEXPAVLinearAllocBlock@@@Z 0804a856 f   compactibleFreeListSpace.obj
 0001:00049870       ?refillLinearAllocBlocksIfNeeded@CompactibleFreeListSpace@@AAEXXZ 0804a870 f   compactibleFreeListSpace.obj
 0001:0004989e       ?refillLinearAllocBlockIfNeeded@CompactibleFreeListSpace@@AAEXPAVLinearAllocBlock@@@Z 0804a89e f   compactibleFreeListSpace.obj
 0001:000498b0       ?refillLinearAllocBlock@CompactibleFreeListSpace@@AAEXPAVLinearAllocBlock@@@Z 0804a8b0 f   compactibleFreeListSpace.obj
 0001:000498eb       ?adjust_pointers@CompactibleFreeListSpace@@UAEXXZ 0804a8eb f   compactibleFreeListSpace.obj
 0001:00049953       ?compact@CompactibleFreeListSpace@@UAEXXZ 0804a953 f   compactibleFreeListSpace.obj
 0001:00049a0e       ?flsFrag@CompactibleFreeListSpace@@QBENXZ 0804aa0e f   compactibleFreeListSpace.obj
 0001:00049a88       ?beginSweepFLCensus@CompactibleFreeListSpace@@QAEXXZ 0804aa88 f   compactibleFreeListSpace.obj
 0001:00049af1       ?setFLSurplus@CompactibleFreeListSpace@@QAEXXZ 0804aaf1 f   compactibleFreeListSpace.obj
 0001:00049b1f       ?setFLHints@CompactibleFreeListSpace@@QAEXXZ 0804ab1f f   compactibleFreeListSpace.obj
 0001:00049b47       ?clearFLCensus@CompactibleFreeListSpace@@QAEXXZ 0804ab47 f   compactibleFreeListSpace.obj
 0001:00049b71       ?endSweepFLCensus@CompactibleFreeListSpace@@QAEXH@Z 0804ab71 f   compactibleFreeListSpace.obj
 0001:00049ba1       ?coalOverPopulated@CompactibleFreeListSpace@@QAEHI@Z 0804aba1 f   compactibleFreeListSpace.obj
 0001:00049bda       ?smallCoalBirth@CompactibleFreeListSpace@@QAEXI@Z 0804abda f   compactibleFreeListSpace.obj
 0001:00049bf9       ?smallCoalDeath@CompactibleFreeListSpace@@QAEXI@Z 0804abf9 f   compactibleFreeListSpace.obj
 0001:00049c18       ?coalBirth@CompactibleFreeListSpace@@QAEXI@Z 0804ac18 f   compactibleFreeListSpace.obj
 0001:00049c3e       ?coalDeath@CompactibleFreeListSpace@@QAEXI@Z 0804ac3e f   compactibleFreeListSpace.obj
 0001:00049c64       ?smallSplitBirth@CompactibleFreeListSpace@@QAEXI@Z 0804ac64 f   compactibleFreeListSpace.obj
 0001:00049c83       ?smallSplitDeath@CompactibleFreeListSpace@@QAEXI@Z 0804ac83 f   compactibleFreeListSpace.obj
 0001:00049ca2       ?splitBirth@CompactibleFreeListSpace@@QAEXI@Z 0804aca2 f   compactibleFreeListSpace.obj
 0001:00049cc8       ?splitDeath@CompactibleFreeListSpace@@QAEXI@Z 0804acc8 f   compactibleFreeListSpace.obj
 0001:00049cee       ?split@CompactibleFreeListSpace@@QAEXII@Z 0804acee f   compactibleFreeListSpace.obj
 0001:00049d18       ?print@CompactibleFreeListSpace@@UBEXXZ 0804ad18 f   compactibleFreeListSpace.obj
 0001:00049d36       ?nextDisplacedHeader@PromotionInfo@@QAEPAVmarkOopDesc@@XZ 0804ad36 f   compactibleFreeListSpace.obj
 0001:00049d69       ?track@PromotionInfo@@QAEXPAVPromotedObject@@@Z 0804ad69 f   compactibleFreeListSpace.obj
 0001:00049db4       ?saveDisplacedHeader@PromotionInfo@@QAEXPAVmarkOopDesc@@@Z 0804adb4 f   compactibleFreeListSpace.obj
 0001:00049dfa       ?ensureSpoolingSpaceWork@PromotionInfo@@AAEHXZ 0804adfa f   compactibleFreeListSpace.obj
 0001:00049e30       ?getSpoolBlock@PromotionInfo@@QAEPAVSpoolBlock@@XZ 0804ae30 f   compactibleFreeListSpace.obj
 0001:00049e6b       ?init@SpoolBlock@@QAEXXZ   0804ae6b f i compactibleFreeListSpace.obj
 0001:00049e85       ?startTrackingPromotions@PromotionInfo@@QAEXXZ 0804ae85 f   compactibleFreeListSpace.obj
 0001:00049e91       ?stopTrackingPromotions@PromotionInfo@@QAEXXZ 0804ae91 f   compactibleFreeListSpace.obj
 0001:00049e9e       ??0CFLS_LAB@@QAE@PAVCompactibleFreeListSpace@@@Z 0804ae9e f   compactibleFreeListSpace.obj
 0001:00049ef9       ?alloc@CFLS_LAB@@QAEPAVHeapWord@@I@Z 0804aef9 f   compactibleFreeListSpace.obj
 0001:00049fa4       ?retire@CFLS_LAB@@QAEXXZ   0804afa4 f   compactibleFreeListSpace.obj
 0001:0004a097       ?par_get_chunk_of_blocks@CompactibleFreeListSpace@@AAEXIIPAVFreeList@@@Z 0804b097 f   compactibleFreeListSpace.obj
 0001:0004a340       ?initialize_sequential_subtasks_for_rescan@CompactibleFreeListSpace@@QAEXH@Z 0804b340 f   compactibleFreeListSpace.obj
 0001:0004a371       ?adjust_pointers@oopDesc@@QAEHXZ 0804b371 f i compactibleFreeListSpace.obj
 0001:0004a380       ?oop_iterate@oopDesc@@QAEHPAVOopClosure@@VMemRegion@@@Z 0804b380 f i compactibleFreeListSpace.obj
 0001:0004a3ae       ?oop_iterate@oopDesc@@QAEHPAVFilteringClosure@@VMemRegion@@@Z 0804b3ae f i compactibleFreeListSpace.obj
 0001:0004a3dc       ??0BlockOffsetArrayNonContigSpace@@QAE@PAVBlockOffsetSharedArray@@VMemRegion@@@Z 0804b3dc f i compactibleFreeListSpace.obj
 0001:0004a40c       ?allocated@BlockOffsetArrayNonContigSpace@@QAEXPAVHeapWord@@I@Z 0804b40c f i compactibleFreeListSpace.obj
 0001:0004a42f       ?freed@BlockOffsetArrayNonContigSpace@@QAEXPAVHeapWord@@I@Z 0804b42f f i compactibleFreeListSpace.obj
 0001:0004a456       ??0SpaceMemRegionOopsIterClosure@@QAE@PAVOopClosure@@VMemRegion@@@Z 0804b456 f i compactibleFreeListSpace.obj
 0001:0004a4a0       ?do_oop@SpaceMemRegionOopsIterClosure@@$4PPPPPPPM@A@AEXPAPAVoopDesc@@@Z 0804b4a0 f i compactibleFreeListSpace.obj
 0001:0004a4a8       ?do_oop@SpaceMemRegionOopsIterClosure@@UAEXPAPAVoopDesc@@@Z 0804b4a8 f i compactibleFreeListSpace.obj
 0001:0004a4ca       ??0Space@@IAE@XZ           0804b4ca f i compactibleFreeListSpace.obj
 0001:0004a4ea       ?set_bottom@Space@@UAEXPAVHeapWord@@@Z 0804b4ea f i compactibleFreeListSpace.obj
 0001:0004a4f4       ?set_end@Space@@UAEXPAVHeapWord@@@Z 0804b4f4 f i compactibleFreeListSpace.obj
 0001:0004a4fe       ?used_region@Space@@UBE?AVMemRegion@@XZ 0804b4fe f i compactibleFreeListSpace.obj
 0001:0004a515       ?used_region_at_save_marks@Space@@UBE?AVMemRegion@@XZ 0804b515 f i compactibleFreeListSpace.obj
 0001:0004a515       ?used_region_at_save_marks@ContiguousSpace@@UBE?AVMemRegion@@XZ 0804b515 f i compactibleFreeListSpace.obj
 0001:0004a52c       ?adjust_object_size_v@CompactibleSpace@@UBEII@Z 0804b52c f i compactibleFreeListSpace.obj
 0001:0004a533       ?cross_threshold@CompactibleSpace@@MAEPAVHeapWord@@PAV2@0@Z 0804b533 f i compactibleFreeListSpace.obj
 0001:0004a550       ?compilationPolicy_init@@YAXXZ 0804b550 f   compilationPolicy.obj
 0001:0004a5a9       ?completed_vm_startup@CompilationPolicy@@SAXXZ 0804b5a9 f   compilationPolicy.obj
 0001:0004a5b1       ?mustBeCompiled@CompilationPolicy@@SAHVmethodHandle@@@Z 0804b5b1 f   compilationPolicy.obj
 0001:0004a5f8       ?canBeCompiled@CompilationPolicy@@SAHVmethodHandle@@@Z 0804b5f8 f   compilationPolicy.obj
 0001:0004a623       ?reset_counter_for_invocation_event@CompilationPolicy@@QAEXVmethodHandle@@@Z 0804b623 f   compilationPolicy.obj
 0001:0004a6a0       ?reset_counter_for_back_branch_event@CompilationPolicy@@QAEXVmethodHandle@@@Z 0804b6a0 f   compilationPolicy.obj
 0001:0004a6d9       ?method_invocation_event@SimpleCompPolicy@@UAEXVmethodHandle@@PAVThread@@@Z 0804b6d9 f   compilationPolicy.obj
 0001:0004a72d       ?method_back_branch_event@SimpleCompPolicy@@UAEXVmethodHandle@@HHPAVThread@@@Z 0804b72d f   compilationPolicy.obj
 0001:0004a769       ?compilation_level@SimpleCompPolicy@@UAEHVmethodHandle@@H@Z 0804b769 f   compilationPolicy.obj
 0001:0004a76e       ?is_not_osr_compilable@methodOopDesc@@QBEHXZ 0804b76e f i compilationPolicy.obj
 0001:0004a787       ??0CompilationScope@@QAE@VmethodHandle@@PAVScope@@H@Z 0804b787 f   compilationScope.obj
 0001:0004a7a7       ?inline_scopes@CompilationScope@@QAEXXZ 0804b7a7 f   compilationScope.obj
 0001:0004a7b7       ?push_unresolved_string_at@MethodClosure@@UAEXH@Z 0804b7b7 f i compilationScope.obj
 0001:0004a7b7       ?arithmetic_int@MethodClosure@@UAEXW4arithmetic_op@1@@Z 0804b7b7 f i compilationScope.obj
 0001:0004a7b7       ?load_local_float@MethodClosure@@UAEXH@Z 0804b7b7 f i compilationScope.obj
 0001:0004a7b7       ?logical_long@MethodClosure@@UAEXW4logical_op@1@@Z 0804b7b7 f i compilationScope.obj
 0001:0004a7b7       ?arithmetic_double@MethodClosure@@UAEXW4arithmetic_op@1@@Z 0804b7b7 f i compilationScope.obj
 0001:0004a7b7       ?get_static_by_index@MethodClosure@@UAEXH@Z 0804b7b7 f i compilationScope.obj
 0001:0004a7b7       ?new_basic_array@MethodClosure@@UAEXH@Z 0804b7b7 f i compilationScope.obj
 0001:0004a7b7       ?load_local_long@MethodClosure@@UAEXH@Z 0804b7b7 f i compilationScope.obj
 0001:0004a7b7       ?store_local_double@MethodClosure@@UAEXH@Z 0804b7b7 f i compilationScope.obj
 0001:0004a7b7       ?push_int@MethodClosure@@UAEXH@Z 0804b7b7 f i compilationScope.obj
 0001:0004a7b7       ?new_object_array_by_index@MethodClosure@@UAEXH@Z 0804b7b7 f i compilationScope.obj
 0001:0004a7b7       ?store_local_int@MethodClosure@@UAEXH@Z 0804b7b7 f i compilationScope.obj
 0001:0004a7b7       ?load_local_double@MethodClosure@@UAEXH@Z 0804b7b7 f i compilationScope.obj
 0001:0004a7b7       ?push_float@MethodClosure@@UAEXM@Z 0804b7b7 f i compilationScope.obj
 0001:0004a7b7       ?store_local_long@MethodClosure@@UAEXH@Z 0804b7b7 f i compilationScope.obj
 0001:0004a7b7       ?ret@MethodClosure@@UAEXH@Z 0804b7b7 f i compilationScope.obj
 0001:0004a7b7       ?store_local_object@MethodClosure@@UAEXH@Z 0804b7b7 f i compilationScope.obj
 0001:0004a7b7       ?store_local_float@MethodClosure@@UAEXH@Z 0804b7b7 f i compilationScope.obj
 0001:0004a7b7       ?arithmetic_long@MethodClosure@@UAEXW4arithmetic_op@1@@Z 0804b7b7 f i compilationScope.obj
 0001:0004a7b7       ?instance_of_by_index@MethodClosure@@UAEXH@Z 0804b7b7 f i compilationScope.obj
 0001:0004a7b7       ?jsr@MethodClosure@@UAEXH@Z 0804b7b7 f i compilationScope.obj
 0001:0004a7b7       ?load_local_int@MethodClosure@@UAEXH@Z 0804b7b7 f i compilationScope.obj
 0001:0004a7b7       ?branch@MethodClosure@@UAEXH@Z 0804b7b7 f i compilationScope.obj
 0001:0004a7b7       ?push_object@MethodClosure@@UAEXPAVoopDesc@@@Z 0804b7b7 f i compilationScope.obj
 0001:0004a7b7       ?arithmetic_float@MethodClosure@@UAEXW4arithmetic_op@1@@Z 0804b7b7 f i compilationScope.obj
 0001:0004a7b7       ?load_local_object@MethodClosure@@UAEXH@Z 0804b7b7 f i compilationScope.obj
 0001:0004a7b7       ?fast_aaccess_0@MethodClosure@@UAEXH@Z 0804b7b7 f i compilationScope.obj
 0001:0004a7b7       ?put_static_by_index@MethodClosure@@UAEXH@Z 0804b7b7 f i compilationScope.obj
 0001:0004a7b7       ?fast_iaccess_0@MethodClosure@@UAEXH@Z 0804b7b7 f i compilationScope.obj
 0001:0004a7b7       ?check_cast_by_index@MethodClosure@@UAEXH@Z 0804b7b7 f i compilationScope.obj
 0001:0004a7b7       ?logical_int@MethodClosure@@UAEXW4logical_op@1@@Z 0804b7b7 f i compilationScope.obj
 0001:0004a7b7       ?new_object_by_index@MethodClosure@@UAEXH@Z 0804b7b7 f i compilationScope.obj
 0001:0004a7bf       ?float_cmpl@MethodClosure@@UAEXXZ 0804b7bf f i compilationScope.obj
 0001:0004a7bf       ?return_object@MethodClosure@@UAEXXZ 0804b7bf f i compilationScope.obj
 0001:0004a7bf       ?store_array_float@MethodClosure@@UAEXXZ 0804b7bf f i compilationScope.obj
 0001:0004a7bf       ?array_length@MethodClosure@@UAEXXZ 0804b7bf f i compilationScope.obj
 0001:0004a7bf       ?int_2_float@MethodClosure@@UAEXXZ 0804b7bf f i compilationScope.obj
 0001:0004a7bf       ?neg_int@MethodClosure@@UAEXXZ 0804b7bf f i compilationScope.obj
 0001:0004a7bf       ?store_array_char@MethodClosure@@UAEXXZ 0804b7bf f i compilationScope.obj
 0001:0004a7bf       ?load_array_long@MethodClosure@@UAEXXZ 0804b7bf f i compilationScope.obj
 0001:0004a7bf       ?load_array_short@MethodClosure@@UAEXXZ 0804b7bf f i compilationScope.obj
 0001:0004a7bf       ?return_int@MethodClosure@@UAEXXZ 0804b7bf f i compilationScope.obj
 0001:0004a7bf       ?nop@MethodClosure@@UAEXXZ 0804b7bf f i compilationScope.obj
 0001:0004a7bf       ?store_array_long@MethodClosure@@UAEXXZ 0804b7bf f i compilationScope.obj
 0001:0004a7bf       ?long_cmp@MethodClosure@@UAEXXZ 0804b7bf f i compilationScope.obj
 0001:0004a7bf       ?double_2_long@MethodClosure@@UAEXXZ 0804b7bf f i compilationScope.obj
 0001:0004a7bf       ?return_double@MethodClosure@@UAEXXZ 0804b7bf f i compilationScope.obj
 0001:0004a7bf       ?monitor_exit@MethodClosure@@UAEXXZ 0804b7bf f i compilationScope.obj
 0001:0004a7bf       ?int_2_double@MethodClosure@@UAEXXZ 0804b7bf f i compilationScope.obj
 0001:0004a7bf       ?store_array_short@MethodClosure@@UAEXXZ 0804b7bf f i compilationScope.obj
 0001:0004a7bf       ?neg_long@MethodClosure@@UAEXXZ 0804b7bf f i compilationScope.obj
 0001:0004a7bf       ?float_2_long@MethodClosure@@UAEXXZ 0804b7bf f i compilationScope.obj
 0001:0004a7bf       ?dup2_x1@MethodClosure@@UAEXXZ 0804b7bf f i compilationScope.obj
 0001:0004a7bf       ?load_array_double@MethodClosure@@UAEXXZ 0804b7bf f i compilationScope.obj
 0001:0004a7bf       ?load_array_float@MethodClosure@@UAEXXZ 0804b7bf f i compilationScope.obj
 0001:0004a7bf       ?float_2_double@MethodClosure@@UAEXXZ 0804b7bf f i compilationScope.obj
 0001:0004a7bf       ?load_array_object@MethodClosure@@UAEXXZ 0804b7bf f i compilationScope.obj
 0001:0004a7bf       ?load_array_byte@MethodClosure@@UAEXXZ 0804b7bf f i compilationScope.obj
 0001:0004a7bf       ?long_2_float@MethodClosure@@UAEXXZ 0804b7bf f i compilationScope.obj
 0001:0004a7bf       ?double_cmpg@MethodClosure@@UAEXXZ 0804b7bf f i compilationScope.obj
 0001:0004a7bf       ?store_array_double@MethodClosure@@UAEXXZ 0804b7bf f i compilationScope.obj
 0001:0004a7bf       ?neg_float@MethodClosure@@UAEXXZ 0804b7bf f i compilationScope.obj
 0001:0004a7bf       ?float_2_int@MethodClosure@@UAEXXZ 0804b7bf f i compilationScope.obj
 0001:0004a7bf       ?dup_x2@MethodClosure@@UAEXXZ 0804b7bf f i compilationScope.obj
 0001:0004a7bf       ?store_array_byte@MethodClosure@@UAEXXZ 0804b7bf f i compilationScope.obj
 0001:0004a7bf       ?load_array_int@MethodClosure@@UAEXXZ 0804b7bf f i compilationScope.obj
 0001:0004a7bf       ?load_array_char@MethodClosure@@UAEXXZ 0804b7bf f i compilationScope.obj
 0001:0004a7bf       ?dup2_x2@MethodClosure@@UAEXXZ 0804b7bf f i compilationScope.obj
 0001:0004a7bf       ?store_array_int@MethodClosure@@UAEXXZ 0804b7bf f i compilationScope.obj
 0001:0004a7bf       ?dup_x1@MethodClosure@@UAEXXZ 0804b7bf f i compilationScope.obj
 0001:0004a7bf       ?return_float@MethodClosure@@UAEXXZ 0804b7bf f i compilationScope.obj
 0001:0004a7bf       ?store_array_object@MethodClosure@@UAEXXZ 0804b7bf f i compilationScope.obj
 0001:0004a7bf       ?int_2_short@MethodClosure@@UAEXXZ 0804b7bf f i compilationScope.obj
 0001:0004a7bf       ?double_2_int@MethodClosure@@UAEXXZ 0804b7bf f i compilationScope.obj
 0001:0004a7bf       ?int_2_long@MethodClosure@@UAEXXZ 0804b7bf f i compilationScope.obj
 0001:0004a7bf       ?int_2_char@MethodClosure@@UAEXXZ 0804b7bf f i compilationScope.obj
 0001:0004a7bf       ?pop@MethodClosure@@UAEXXZ 0804b7bf f i compilationScope.obj
 0001:0004a7bf       ?long_2_int@MethodClosure@@UAEXXZ 0804b7bf f i compilationScope.obj
 0001:0004a7bf       ?long_2_double@MethodClosure@@UAEXXZ 0804b7bf f i compilationScope.obj
 0001:0004a7bf       ?dup@MethodClosure@@UAEXXZ 0804b7bf f i compilationScope.obj
 0001:0004a7bf       ?int_2_byte@MethodClosure@@UAEXXZ 0804b7bf f i compilationScope.obj
 0001:0004a7bf       ?dup2@MethodClosure@@UAEXXZ 0804b7bf f i compilationScope.obj
 0001:0004a7bf       ?throw_exception@MethodClosure@@UAEXXZ 0804b7bf f i compilationScope.obj
 0001:0004a7bf       ?double_cmpl@MethodClosure@@UAEXXZ 0804b7bf f i compilationScope.obj
 0001:0004a7bf       ?return_void@MethodClosure@@UAEXXZ 0804b7bf f i compilationScope.obj
 0001:0004a7bf       ?double_2_float@MethodClosure@@UAEXXZ 0804b7bf f i compilationScope.obj
 0001:0004a7bf       ?neg_double@MethodClosure@@UAEXXZ 0804b7bf f i compilationScope.obj
 0001:0004a7bf       ?return_long@MethodClosure@@UAEXXZ 0804b7bf f i compilationScope.obj
 0001:0004a7bf       ?swap@MethodClosure@@UAEXXZ 0804b7bf f i compilationScope.obj
 0001:0004a7bf       ?monitor_enter@MethodClosure@@UAEXXZ 0804b7bf f i compilationScope.obj
 0001:0004a7bf       ?pop2@MethodClosure@@UAEXXZ 0804b7bf f i compilationScope.obj
 0001:0004a7bf       ?float_cmpg@MethodClosure@@UAEXXZ 0804b7bf f i compilationScope.obj
 0001:0004a7c4       ?branch_if_oop@MethodClosure@@UAEXW4cond_op@1@H@Z 0804b7c4 f i compilationScope.obj
 0001:0004a7c4       ?branch_if_int@MethodClosure@@UAEXW4cond_op@1@H@Z 0804b7c4 f i compilationScope.obj
 0001:0004a7d7       ?invoke_interface_by_index@MethodClosure@@UAEXHVsymbolHandle@@0H@Z 0804b7d7 f i compilationScope.obj
 0001:0004a7d7       ?pre_invoke_interface_by_index@ScopeClosure@@MAEXHVsymbolHandle@@0H@Z 0804b7d7 f i compilationScope.obj
 0001:0004a7d7       ?table_switch@MethodClosure@@UAEXHHQAHH@Z 0804b7d7 f i compilationScope.obj
 0001:0004a7d7       ?lookup_switch@MethodClosure@@UAEXHQAH0H@Z 0804b7d7 f i compilationScope.obj
 0001:0004a7df       ?branch_if_icmp@MethodClosure@@UAEXW4cond_op@1@H@Z 0804b7df f i compilationScope.obj
 0001:0004a7df       ?push_long@MethodClosure@@UAEX_J@Z 0804b7df f i compilationScope.obj
 0001:0004a7df       ?branch_if@MethodClosure@@UAEXW4cond_op@1@H@Z 0804b7df f i compilationScope.obj
 0001:0004a7df       ?get_field@MethodClosure@@UAEXW4BasicType@@H@Z 0804b7df f i compilationScope.obj
 0001:0004a7df       ?put_field@MethodClosure@@UAEXW4BasicType@@H@Z 0804b7df f i compilationScope.obj
 0001:0004a7df       ?push_double@MethodClosure@@UAEXN@Z 0804b7df f i compilationScope.obj
 0001:0004a7df       ?new_multi_array_by_index@MethodClosure@@UAEXHH@Z 0804b7df f i compilationScope.obj
 0001:0004a7df       ?get_field_by_index@MethodClosure@@UAEXHPAVsymbolOopDesc@@@Z 0804b7df f i compilationScope.obj
 0001:0004a7df       ?branch_if_acmp@MethodClosure@@UAEXW4cond_op@1@H@Z 0804b7df f i compilationScope.obj
 0001:0004a7df       ?put_field_by_index@MethodClosure@@UAEXHPAVsymbolOopDesc@@@Z 0804b7df f i compilationScope.obj
 0001:0004a7df       ?increment_local_int@MethodClosure@@UAEXHH@Z 0804b7df f i compilationScope.obj
 0001:0004a7e7       ?unknown_bytecode@ScopeClosure@@UAEXXZ 0804b7e7 f i compilationScope.obj
 0001:0004a7f7       ?should_enter_scope@ScopeClosure@@MAEHPAVScope@@H@Z 0804b7f7 f i compilationScope.obj
 0001:0004a7fd       ?enter_scope@ResolveStringsClosure@@UAEXXZ 0804b7fd f i compilationScope.obj
 0001:0004a818       ?clone_for_subiteration@ResolveStringsClosure@@UAEPAVScopeClosure@@PAVScope@@@Z 0804b818 f i compilationScope.obj
 0001:0004a85c       ?resolve_string_constants@constantPoolOopDesc@@QAEXPAVThread@@@Z 0804b85c f i compilationScope.obj
 0001:0004a8e2       ??0CompileTaskWrapper@@QAE@PAVCompileTask@@@Z 0804b8e2 f   compileBroker.obj
 0001:0004a911       ??1CompileTaskWrapper@@QAE@XZ 0804b911 f   compileBroker.obj
 0001:0004a97c       ?initialize@CompileTask@@QAEXHVmethodHandle@@H0HPBDHH@Z 0804b97c f   compileBroker.obj
 0001:0004aa10       ?free@CompileTask@@QAEXXZ  0804ba10 f   compileBroker.obj
 0001:0004aa37       ?print_line@CompileTask@@QAEXXZ 0804ba37 f   compileBroker.obj
 0001:0004aba3       ?log_head@CompileTask@@QAEXPAVCompileLog@@@Z 0804bba3 f   compileBroker.obj
 0001:0004ad6c       ?log_tail@CompileTask@@QAEXPAVCompileLog@@@Z 0804bd6c f   compileBroker.obj
 0001:0004ae74       ?add@CompileQueue@@QAEXPAVCompileTask@@@Z 0804be74 f   compileBroker.obj
 0001:0004aeb9       ?get@CompileQueue@@QAEPAVCompileTask@@XZ 0804beb9 f   compileBroker.obj
 0001:0004aefa       ??0CompilerCounters@@QAE@PBDHPAVThread@@@Z 0804befa f   compileBroker.obj
 0001:0004afe3       ?compilation_init@CompileBroker@@SAXPAVAbstractCompiler@@@Z 0804bfe3 f   compileBroker.obj
 0001:0004b316       ?compiler_count@CompileBroker@@CAHXZ 0804c316 f i compileBroker.obj
 0001:0004b34b       ?make_compiler_thread@CompileBroker@@CAPAVCompilerThread@@PBDPAVCompileQueue@@PAVCompilerCounters@@PAVThread@@@Z 0804c34b f   compileBroker.obj
 0001:0004b4b1       ?init_compiler_threads@CompileBroker@@CAXH@Z 0804c4b1 f   compileBroker.obj
 0001:0004b6a7       ?compile_method_base@CompileBroker@@CAPAVnmethod@@VmethodHandle@@H0HPBDPAVThread@@@Z 0804c6a7 f   compileBroker.obj
 0001:0004b7ff       ?compile_method@CompileBroker@@SAPAVnmethod@@VmethodHandle@@H0HPBDPAVThread@@@Z 0804c7ff f   compileBroker.obj
 0001:0004b8f5       ?check_compilation_result@CompileBroker@@CAHVmethodHandle@@HPAPAVnmethod@@@Z 0804c8f5 f   compileBroker.obj
 0001:0004b94d       ?compilation_is_in_queue@CompileBroker@@CAHVmethodHandle@@H@Z 0804c94d f   compileBroker.obj
 0001:0004b95d       ?compilation_is_prohibited@CompileBroker@@CAHVmethodHandle@@H@Z 0804c95d f   compileBroker.obj
 0001:0004ba0c       ?is_not_compile_only@CompileBroker@@CAHVmethodHandle@@@Z 0804ca0c f   compileBroker.obj
 0001:0004ba95       ?assign_compile_id@CompileBroker@@CAIVmethodHandle@@H@Z 0804ca95 f   compileBroker.obj
 0001:0004bac7       ?is_compile_blocking@CompileBroker@@CAHVmethodHandle@@H@Z 0804cac7 f   compileBroker.obj
 0001:0004bad3       ?preload_classes@CompileBroker@@CAXVmethodHandle@@PAVThread@@@Z 0804cad3 f   compileBroker.obj
 0001:0004bae6       ?create_compile_task@CompileBroker@@CAPAVCompileTask@@PAVCompileQueue@@HVmethodHandle@@H1HPBDHH@Z 0804cae6 f   compileBroker.obj
 0001:0004bb1e       ?allocate_task@CompileBroker@@CAPAVCompileTask@@XZ 0804cb1e f   compileBroker.obj
 0001:0004bb6a       ??0CompileTask@@QAE@XZ     0804cb6a f i compileBroker.obj
 0001:0004bb97       ?free_task@CompileBroker@@CAXPAVCompileTask@@@Z 0804cb97 f   compileBroker.obj
 0001:0004bbc9       ?wait_for_completion@CompileBroker@@CAPAVnmethod@@PAVCompileTask@@@Z 0804cbc9 f   compileBroker.obj
 0001:0004bc58       ?compiler_thread_loop@CompileBroker@@SAXXZ 0804cc58 f   compileBroker.obj
 0001:0004be2a       ?init_compiler_thread_log@CompileBroker@@SAXXZ 0804ce2a f   compileBroker.obj
 0001:0004bf48       ?wait_for_compile_threads_to_block@CompileBroker@@SAXXZ 0804cf48 f   compileBroker.obj
 0001:0004bfa5       ?invoke_compiler_on_method@CompileBroker@@CAXPAVCompileTask@@@Z 0804cfa5 f   compileBroker.obj
 0001:0004c2a4       ?set_last_compile@CompileBroker@@CAXPAVCompilerThread@@VmethodHandle@@HH@Z 0804d2a4 f   compileBroker.obj
 0001:0004c3a9       ?set_current_method@CompilerCounters@@QAEXPBD@Z 0804d3a9 f i compileBroker.obj
 0001:0004c3db       ?push_jni_handle_block@CompileBroker@@CAXXZ 0804d3db f   compileBroker.obj
 0001:0004c401       ?pop_jni_handle_block@CompileBroker@@CAXXZ 0804d401 f   compileBroker.obj
 0001:0004c42e       ?check_break_at@CompileBroker@@CAHVmethodHandle@@HHH@Z 0804d42e f   compileBroker.obj
 0001:0004c457       ?collect_statistics@CompileBroker@@CAXPAVCompilerThread@@VelapsedTimer@@PAVCompileTask@@@Z 0804d457 f   compileBroker.obj
 0001:0004c7a8       ?print_times@CompileBroker@@SAXXZ 0804d7a8 f   compileBroker.obj
 0001:0004c976       ??0PerfTraceTimedEvent@@QAE@PAVPerfLongCounter@@0@Z 0804d976 f i compileBroker.obj
 0001:0004c9b7       ?unallocated_capacity@CodeCache@@SAIXZ 0804d9b7 f i compileBroker.obj
 0001:0004c9d6       ?has_exception_handler@methodOopDesc@@QBEHXZ 0804d9d6 f i compileBroker.obj
 0001:0004c9ea       ??0CompileLog@@QAE@PBDPAU_iobuf@@H@Z 0804d9ea f   compileLog.obj
 0001:0004cab7       ??0xmlStream@@IAE@XZ       0804dab7 f i compileLog.obj
 0001:0004cae3       ??_GxmlStream@@UAEPAXI@Z   0804dae3 f i compileLog.obj
 0001:0004cae3       ??_ExmlStream@@UAEPAXI@Z   0804dae3 f i compileLog.obj
 0001:0004caf2       ??_ECompileLog@@UAEPAXI@Z  0804daf2 f i compileLog.obj
 0001:0004caf2       ??_GCompileLog@@UAEPAXI@Z  0804daf2 f i compileLog.obj
 0001:0004cb00       ??1CompileLog@@UAE@XZ      0804db00 f   compileLog.obj
 0001:0004cb3e       ?see_tag@CompileLog@@UAEXPBDH@Z 0804db3e f   compileLog.obj
 0001:0004cb84       ?pop_tag@CompileLog@@UAEXPBD@Z 0804db84 f   compileLog.obj
 0001:0004cb9b       ?identify@CompileLog@@QAEHPAVciObject@@@Z 0804db9b f   compileLog.obj
 0001:0004ce92       ?name@CompileLog@@QAEXPAVciSymbol@@@Z 0804de92 f   compileLog.obj
 0001:0004cec6       ?clear_identities@CompileLog@@QAEXXZ 0804dec6 f   compileLog.obj
 0001:0004cece       ?finish_log@CompileLog@@SAXPAVoutputStream@@@Z 0804dece f   compileLog.obj
 0001:0004d0d1       ?clear_inline_cache@Relocation@@UAEXXZ 0804e0d1 f i compileLog.obj
 0001:0004d0d1       ?print@CodeBlob@@UBEXXZ    0804e0d1 f i compileLog.obj
 0001:0004d0d1       ?sample@PerfStringVariable@@MAEXXZ 0804e0d1 f i compileLog.obj
 0001:0004d0d1       ?doit@VM_First@@EAEXXZ     0804e0d1 f i compileLog.obj
 0001:0004d0d1       ?log@Events@@SAXPBDZZ      0804e0d1 f i compileLog.obj
 0001:0004d0d1       ?ensure_parseability@Generation@@UAEXXZ 0804e0d1 f i compileLog.obj
 0001:0004d0d1       ?pass_double@MaskFillerForNative@@UAEXXZ 0804e0d1 f i compileLog.obj
 0001:0004d0d1       ?print_instr@LIR_Op0@@UBEXXZ 0804e0d1 f i compileLog.obj
 0001:0004d0d1       ?print_instr@LIR_OpRTCall@@UBEXXZ 0804e0d1 f i compileLog.obj
 0001:0004d0d1       ?mangle_unused_area@Space@@UAEXXZ 0804e0d1 f i compileLog.obj
 0001:0004d0d1       ?fix_oop_relocation@breakpoint_Relocation@@UAEXXZ 0804e0d1 f i compileLog.obj
 0001:0004d0d1       ?unpack_data@Relocation@@UAEXXZ 0804e0d1 f i compileLog.obj
 0001:0004d0d1       ?print@RuntimeStub@@UBEXXZ 0804e0d1 f i compileLog.obj
 0001:0004d0d1       ?print_instr@LIR_Op2@@UBEXXZ 0804e0d1 f i compileLog.obj
 0001:0004d0d1       ?print_instr@LIR_Op1@@UBEXXZ 0804e0d1 f i compileLog.obj
 0001:0004d0d1       ?flush@defaultStream@@UAEXXZ 0804e0d1 f i compileLog.obj
 0001:0004d0d1       ?print@GenRemSet@@UAEXXZ   0804e0d1 f i compileLog.obj
 0001:0004d0d1       ?trace_state@ConcurrentMarkSweepThread@@CAXPBD@Z 0804e0d1 f i compileLog.obj
 0001:0004d0d1       ?print@LIR_Address@@UAEXXZ 0804e0d1 f i compileLog.obj
 0001:0004d0d1       ?bytecode_default@MethodClosure@@UAEXXZ 0804e0d1 f i compileLog.obj
 0001:0004d0d1       ?safepoint_msg@SafepointHandler@@QAAXPBDZZ 0804e0d1 f i compileLog.obj
 0001:0004d0d1       ?pass_int@MaskFillerForNative@@UAEXXZ 0804e0d1 f i compileLog.obj
 0001:0004d0d1       ?print@LIR_Const@@UAEXXZ   0804e0d1 f i compileLog.obj
 0001:0004d0d1       ?print_instr@LIR_OpAllocArray@@UBEXXZ 0804e0d1 f i compileLog.obj
 0001:0004d0d1       ?compute_new_size@CompactingPermGenGen@@UAEXXZ 0804e0d1 f i compileLog.obj
 0001:0004d0d1       ?print_instr@LIR_OpLock@@UBEXXZ 0804e0d1 f i compileLog.obj
 0001:0004d0d1       ?print_instr@LIR_OpLabel@@UBEXXZ 0804e0d1 f i compileLog.obj
 0001:0004d0d1       ?verify@BinaryTreeDictionary@@UBEXXZ 0804e0d1 f i compileLog.obj
 0001:0004d0d1       ?save_marks@Generation@@UAEXXZ 0804e0d1 f i compileLog.obj
 0001:0004d0d1       ?unused_initial_virtual@ThreadShadow@@MAEXXZ 0804e0d1 f i compileLog.obj
 0001:0004d0d1       ?sample@PerfLongConstant@@EAEXXZ 0804e0d1 f i compileLog.obj
 0001:0004d0d1       ?doit@VM_ForceSafepoint@@UAEXXZ 0804e0d1 f i compileLog.obj
 0001:0004d0d1       ?print_instr@LIR_Op3@@UBEXXZ 0804e0d1 f i compileLog.obj
 0001:0004d0d1       ?print_impl@ciObject@@MAEXXZ 0804e0d1 f i compileLog.obj
 0001:0004d0d1       ?print_tree@Scope@@UAEXXZ  0804e0d1 f i compileLog.obj
 0001:0004d0d1       ?prepare_for_verify@Generation@@UAEXXZ 0804e0d1 f i compileLog.obj
 0001:0004d0d1       ?verify@BufferBlob@@UAEXXZ 0804e0d1 f i compileLog.obj
 0001:0004d0d1       ?verify@SingletonBlob@@UAEXXZ 0804e0d1 f i compileLog.obj
 0001:0004d0d1       ?prepare_for_verify@GenCollectedHeap@@UAEXXZ 0804e0d1 f i compileLog.obj
 0001:0004d0d1       ?flush@outputStream@@UAEXXZ 0804e0d1 f i compileLog.obj
 0001:0004d0d1       ?bytecode_epilog@MethodClosure@@UAEXXZ 0804e0d1 f i compileLog.obj
 0001:0004d0d1       ?print@nmethod@@UBEXXZ     0804e0d1 f i compileLog.obj
 0001:0004d0d1       ?sample@PerfStringConstant@@EAEXXZ 0804e0d1 f i compileLog.obj
 0001:0004d0d1       ?reset_after_compaction@CompactibleSpace@@UAEXXZ 0804e0d1 f i compileLog.obj
 0001:0004d0d1       ?unused_initial_virtual@Klass_vtbl@@MAEXXZ 0804e0d1 f i compileLog.obj
 0001:0004d0d1       ?doit_epilogue@VM_Operation@@UAEXXZ 0804e0d1 f i compileLog.obj
 0001:0004d0d1       ?adjust_pointers@ProfileData@@UAEXXZ 0804e0d1 f i compileLog.obj
 0001:0004d0d1       ?follow_contents@ProfileData@@UAEXXZ 0804e0d1 f i compileLog.obj
 0001:0004d0d1       ?print_instr@LIR_OpArrayCopy@@UBEXXZ 0804e0d1 f i compileLog.obj
 0001:0004d0d1       ?verify@nmethod@@UAEXXZ    0804e0d1 f i compileLog.obj
 0001:0004d0d1       ?print_instr@LIR_OpBranch@@UBEXXZ 0804e0d1 f i compileLog.obj
 0001:0004d0d1       ?do_void@JNI_ArgumentPusher@@UAEXXZ 0804e0d1 f i compileLog.obj
 0001:0004d0d1       ?print_instr@LIR_OpConvert@@UBEXXZ 0804e0d1 f i compileLog.obj
 0001:0004d0d1       ?pass_long@MaskFillerForNative@@UAEXXZ 0804e0d1 f i compileLog.obj
 0001:0004d0d1       ?fill_stackmap_epilog@GeneratePairingInfo@@EAEXXZ 0804e0d1 f i compileLog.obj
 0001:0004d0d1       ?verify@RuntimeStub@@UAEXXZ 0804e0d1 f i compileLog.obj
 0001:0004d0d1       ?verify@CodeBlob@@UAEXXZ   0804e0d1 f i compileLog.obj
 0001:0004d0d1       ?print_instr@LIR_OpCompareAndSwap@@UBEXXZ 0804e0d1 f i compileLog.obj
 0001:0004d0d1       ??1BreakpointStepping@@QAE@XZ 0804e0d1 f i compileLog.obj
 0001:0004d0d1       ?exit_scope@ScopeClosure@@MAEXXZ 0804e0d1 f i compileLog.obj
 0001:0004d0d1       ?print_instr@LIR_OpTypeCheck@@UBEXXZ 0804e0d1 f i compileLog.obj
 0001:0004d0d1       ?fill_stackmap_epilog@ciOneAddressMapGenerator@@EAEXXZ 0804e0d1 f i compileLog.obj
 0001:0004d0d1       ?print_instr@LIR_OpJavaCall@@UBEXXZ 0804e0d1 f i compileLog.obj
 0001:0004d0d1       ?print@SingletonBlob@@UBEXXZ 0804e0d1 f i compileLog.obj
 0001:0004d0d1       ?fix_oop_relocation@Relocation@@UAEXXZ 0804e0d1 f i compileLog.obj
 0001:0004d0d1       ?print@BufferBlob@@UBEXXZ  0804e0d1 f i compileLog.obj
 0001:0004d0d1       ?fill_stackmap_epilog@ResolveOopMapConflicts@@EAEXXZ 0804e0d1 f i compileLog.obj
 0001:0004d0d1       ?print_instr@LIR_OpAllocObj@@UBEXXZ 0804e0d1 f i compileLog.obj
 0001:0004d0d1       ?safepoint_msg@SafepointSynchronize@@SAXPBDZZ 0804e0d1 f i compileLog.obj
 0001:0004d0d1       ?reset_saved_marks@Generation@@UAEXXZ 0804e0d1 f i compileLog.obj
 0001:0004d0d2       ??_GoutputStream@@UAEPAXI@Z 0804e0d2 f i compileLog.obj
 0001:0004d0d2       ??_EoutputStream@@UAEPAXI@Z 0804e0d2 f i compileLog.obj
 0001:0004d0d2       ??_GxmlTextStream@@UAEPAXI@Z 0804e0d2 f i compileLog.obj
 0001:0004d0d2       ??_ExmlTextStream@@UAEPAXI@Z 0804e0d2 f i compileLog.obj
 0001:0004d0dd       ??_EfileStream@@UAEPAXI@Z  0804e0dd f i compileLog.obj
 0001:0004d0dd       ??_GfileStream@@UAEPAXI@Z  0804e0dd f i compileLog.obj
 0001:0004d0eb       ?set_cached_oop@CompiledIC@@AAEXPAVoopDesc@@@Z 0804e0eb f   compiledIC.obj
 0001:0004d15b       ?cached_oop@CompiledIC@@QBEPAVoopDesc@@XZ 0804e15b f   compiledIC.obj
 0001:0004d188       ?set_ic_destination@CompiledIC@@AAEXPAE@Z 0804e188 f   compiledIC.obj
 0001:0004d1b8       ?ic_destination@CompiledIC@@QBEPAEXZ 0804e1b8 f   compiledIC.obj
 0001:0004d1d6       ?is_in_transition_state@CompiledIC@@ABEHXZ 0804e1d6 f   compiledIC.obj
 0001:0004d1e5       ?stub_address@CompiledIC@@ABEPAEXZ 0804e1e5 f   compiledIC.obj
 0001:0004d1ec       ?set_to_megamorphic@CompiledIC@@QAEXPAVCallInfo@@W4Code@Bytecodes@@PAVThread@@@Z 0804e1ec f   compiledIC.obj
 0001:0004d28b       ?is_megamorphic@CompiledIC@@QBEHXZ 0804e28b f   compiledIC.obj
 0001:0004d298       ?set_to_clean@CompiledIC@@QAEXXZ 0804e298 f   compiledIC.obj
 0001:0004d2de       ?is_clean@CompiledIC@@QBEHXZ 0804e2de f   compiledIC.obj
 0001:0004d300       ?set_to_monomorphic@CompiledIC@@QAEXABVCompiledICInfo@@@Z 0804e300 f   compiledIC.obj
 0001:0004d3fb       ?compute_monomorphic_entry@CompiledIC@@SAXVmethodHandle@@VKlassHandle@@HHAAVCompiledICInfo@@PAVThread@@@Z 0804e3fb f   compiledIC.obj
 0001:0004d48b       ??0CompiledIC@@AAE@PAVNativeCall@@@Z 0804e48b f   compiledIC.obj
 0001:0004d4d9       ??0CompiledIC@@AAE@PAVRelocation@@@Z 0804e4d9 f   compiledIC.obj
 0001:0004d52f       ?is_optimized_virtual@CompiledStaticCall@@AAEHXZ 0804e52f f   compiledIC.obj
 0001:0004d56e       ?set_to_clean@CompiledStaticCall@@QAEXXZ 0804e56e f   compiledIC.obj
 0001:0004d5b5       ?is_clean@CompiledStaticCall@@QBEHXZ 0804e5b5 f   compiledIC.obj
 0001:0004d5f3       ?set_to_interpreted@CompiledStaticCall@@AAEXVmethodHandle@@PAE@Z 0804e5f3 f   compiledIC.obj
 0001:0004d63b       ?set@CompiledStaticCall@@QAEXABVStaticCallInfo@@@Z 0804e63b f   compiledIC.obj
 0001:0004d682       ?compute_entry@CompiledStaticCall@@SAXVmethodHandle@@AAVStaticCallInfo@@@Z 0804e682 f   compiledIC.obj
 0001:0004d6d5       ?set_stub_to_clean@CompiledStaticCall@@SAXPAVstatic_stub_Relocation@@@Z 0804e6d5 f   compiledIC.obj
 0001:0004d6fe       ?find_stub@CompiledStaticCall@@QAEPAEXZ 0804e6fe f   compiledIC.obj
 0001:0004d787       ?create_klass@compiledICHolderKlass@@SAPAVklassOopDesc@@PAVThread@@@Z 0804e787 f   compiledICHolderKlass.obj
 0001:0004d7f4       ?allocate_permanent@compiledICHolderKlass@@UBEPAXAAVKlassHandle@@HPAVThread@@@Z 0804e7f4 f i compiledICHolderKlass.obj
 0001:0004d81b       ?set_alloc_size@methodDataKlass@@UAEX_I@Z 0804e81b f i compiledICHolderKlass.obj
 0001:0004d81b       ?set_alloc_size@methodKlass@@UAEX_I@Z 0804e81b f i compiledICHolderKlass.obj
 0001:0004d81b       ?set_alloc_size@klassKlass@@UAEX_I@Z 0804e81b f i compiledICHolderKlass.obj
 0001:0004d81b       ?set_alloc_size@compiledICHolderKlass@@UAEX_I@Z 0804e81b f i compiledICHolderKlass.obj
 0001:0004d81b       ?set_alloc_size@symbolKlass@@UAEX_I@Z 0804e81b f i compiledICHolderKlass.obj
 0001:0004d825       ?allocate@compiledICHolderKlass@@QAEPAVcompiledICHolderOopDesc@@PAVThread@@@Z 0804e825 f   compiledICHolderKlass.obj
 0001:0004d884       ?oop_size@compiledICHolderKlass@@UBEHPAVoopDesc@@@Z 0804e884 f   compiledICHolderKlass.obj
 0001:0004d88c       ?oop_follow_contents@compiledICHolderKlass@@UAEXPAVoopDesc@@@Z 0804e88c f   compiledICHolderKlass.obj
 0001:0004d8d0       ?oop_oop_iterate@compiledICHolderKlass@@UAEHPAVoopDesc@@PAVOopClosure@@@Z 0804e8d0 f   compiledICHolderKlass.obj
 0001:0004d908       ?oop_oop_iterate_m@compiledICHolderKlass@@UAEHPAVoopDesc@@PAVOopClosure@@VMemRegion@@@Z 0804e908 f   compiledICHolderKlass.obj
 0001:0004d969       ?oop_adjust_pointers@compiledICHolderKlass@@UAEHPAVoopDesc@@@Z 0804e969 f   compiledICHolderKlass.obj
 0001:0004d9a8       ?oop_being_unloaded@compiledICHolderKlass@@UAEHPAVoopDesc@@@Z 0804e9a8 f   compiledICHolderKlass.obj
 0001:0004d9d2       ?oop_being_unloaded_for_CMS@compiledICHolderKlass@@UAEHPAVCMSIsAliveClosure@@PAVoopDesc@@@Z 0804e9d2 f   compiledICHolderKlass.obj
 0001:0004da04       ?is_leaf_class@Klass@@UBEHXZ 0804ea04 f i compiledICHolderKlass.obj
 0001:0004da1f       ?common_permanent_mem_allocate_init@CollectedHeap@@KAPAVHeapWord@@IPAVThread@@@Z 0804ea1f f i compiledICHolderKlass.obj
 0001:0004da4e       ?common_permanent_mem_allocate_noinit@CollectedHeap@@KAPAVHeapWord@@IPAVThread@@@Z 0804ea4e f i compiledICHolderKlass.obj
 0001:0004da7d       ?follow_header@oopDesc@@QAEXXZ 0804ea7d f i compiledICHolderKlass.obj
 0001:0004da98       ?being_unloaded@oopDesc@@QAEHXZ 0804ea98 f i compiledICHolderKlass.obj
 0001:0004dab4       ?being_unloaded_for_CMS@oopDesc@@QAEHPAVCMSIsAliveClosure@@@Z 0804eab4 f i compiledICHolderKlass.obj
 0001:0004dadf       ?oop_iterate_header@oopDesc@@QAEXPAVOopClosure@@VMemRegion@@@Z 0804eadf f i compiledICHolderKlass.obj
 0001:0004db01       ??0MethodMatcher@@QAE@VsymbolHandle@@0PAV0@@Z 0804eb01 f   compilerOracle.obj
 0001:0004db2f       ?match@MethodMatcher@@QAEHVmethodHandle@@@Z 0804eb2f f   compilerOracle.obj
 0001:0004db7b       ?add_should_break_at@CompilerOracle@@SAXVsymbolHandle@@0@Z 0804eb7b f   compilerOracle.obj
 0001:0004dbaa       ?add_should_exclude@CompilerOracle@@SAXVsymbolHandle@@0@Z 0804ebaa f   compilerOracle.obj
 0001:0004dbd9       ?add_should_inline@CompilerOracle@@SAXVsymbolHandle@@0@Z 0804ebd9 f   compilerOracle.obj
 0001:0004dc08       ?add_should_print@CompilerOracle@@SAXVsymbolHandle@@0@Z 0804ec08 f   compilerOracle.obj
 0001:0004dc37       ?add_should_log@CompilerOracle@@SAXVsymbolHandle@@0@Z 0804ec37 f   compilerOracle.obj
 0001:0004dc8a       ?should_exclude@CompilerOracle@@SAHVmethodHandle@@@Z 0804ec8a f   compilerOracle.obj
 0001:0004dca8       ?should_log@CompilerOracle@@SAHVmethodHandle@@@Z 0804eca8 f   compilerOracle.obj
 0001:0004dcd9       ?should_break_at@CompilerOracle@@SAHVmethodHandle@@@Z 0804ecd9 f   compilerOracle.obj
 0001:0004dcf7       ?read_from_line@CompilerOracle@@CAXPAD@Z 0804ecf7 f   compilerOracle.obj
 0001:0004e19e       ?parse_from_file@CompilerOracle@@SAXXZ 0804f19e f   compilerOracle.obj
 0001:0004e22f       ?parse_from_string@CompilerOracle@@SAXPBD@Z 0804f22f f   compilerOracle.obj
 0001:0004e28c       ?compilerOracle_init@@YAXXZ 0804f28c f   compilerOracle.obj
 0001:0004e29d       ?new_symbol_handle@oopFactory@@SA?AVsymbolHandle@@PADPAVThread@@@Z 0804f29d f i compilerOracle.obj
 0001:0004e29d       ?new_symbol_handle@oopFactory@@SA?AVsymbolHandle@@PBDPAVThread@@@Z 0804f29d f i compilerOracle.obj
 0001:0004e2dc       ?read_long@CompressedReadStream@@QAE_JXZ 0804f2dc f   compressedStream.obj
 0001:0004e2fe       ??0CompressedWriteStream@@QAE@H@Z 0804f2fe f   compressedStream.obj
 0001:0004e326       ?grow@CompressedWriteStream@@AAEXXZ 0804f326 f   compressedStream.obj
 0001:0004e35a       ?write_long@CompressedWriteStream@@QAEX_J@Z 0804f35a f   compressedStream.obj
 0001:0004e37b       ?read_int@CompressedReadStream@@QAEHXZ 0804f37b f i compressedStream.obj
 0001:0004e3c3       ?write_int@CompressedWriteStream@@QAEXH@Z 0804f3c3 f i compressedStream.obj
 0001:0004e3f6       ??0ConcurrentMarkSweepGeneration@@QAE@VReservedSpace@@IHPAVCardTableRS@@HW4DictionaryChoice@FreeBlockDictionary@@@Z 0804f3f6 f   concurrentMarkSweepGeneration.obj
 0001:0004e542       ?capacity@ConcurrentMarkSweepGeneration@@UBEIXZ 0804f542 f i concurrentMarkSweepGeneration.obj
 0001:0004e54f       ?used@ConcurrentMarkSweepGeneration@@UBEIXZ 0804f54f f i concurrentMarkSweepGeneration.obj
 0001:0004e55a       ?free@ConcurrentMarkSweepGeneration@@UBEIXZ 0804f55a f i concurrentMarkSweepGeneration.obj
 0001:0004e565       ?used_region@ConcurrentMarkSweepGeneration@@UBE?AVMemRegion@@XZ 0804f565 f i concurrentMarkSweepGeneration.obj
 0001:0004e58c       ?initialize_performance_counters@ConcurrentMarkSweepGeneration@@QAEXXZ 0804f58c f   concurrentMarkSweepGeneration.obj
 0001:0004e5fd       ??0CMSStats@@QAE@PAVConcurrentMarkSweepGeneration@@I@Z 0804f5fd f   concurrentMarkSweepGeneration.obj
 0001:0004e684       ?time_until_cms_gen_full@CMSStats@@QBENXZ 0804f684 f   concurrentMarkSweepGeneration.obj
 0001:0004e70b       ?icms_damped_duty_cycle@CMSStats@@KAIII@Z 0804f70b f   concurrentMarkSweepGeneration.obj
 0001:0004e750       ?icms_update_duty_cycle_impl@CMSStats@@IAEIXZ 0804f750 f   concurrentMarkSweepGeneration.obj
 0001:0004e840       ??0CMSCollector@@QAE@PAVConcurrentMarkSweepGeneration@@0PAVCardTableRS@@@Z 0804f840 f   concurrentMarkSweepGeneration.obj
 0001:0004eb4c       ?name@ConcurrentMarkSweepGeneration@@UBEPBDXZ 0804fb4c f   concurrentMarkSweepGeneration.obj
 0001:0004eb52       ?update_counters@ConcurrentMarkSweepGeneration@@UAEXXZ 0804fb52 f   concurrentMarkSweepGeneration.obj
 0001:0004eb81       ?update_counters@ConcurrentMarkSweepGeneration@@QAEXI@Z 0804fb81 f   concurrentMarkSweepGeneration.obj
 0001:0004ebbf       ?print@ConcurrentMarkSweepGeneration@@UBEXXZ 0804fbbf f   concurrentMarkSweepGeneration.obj
 0001:0004ebd4       ?printOccupancy@ConcurrentMarkSweepGeneration@@QAEXPBD@Z 0804fbd4 f   concurrentMarkSweepGeneration.obj
 0001:0004ec49       ?contiguous_available@ConcurrentMarkSweepGeneration@@UBEIXZ 0804fc49 f   concurrentMarkSweepGeneration.obj
 0001:0004ec65       ?unsafe_max_alloc_nogc@ConcurrentMarkSweepGeneration@@UBEIXZ 0804fc65 f   concurrentMarkSweepGeneration.obj
 0001:0004ec74       ?first_compaction_space@ConcurrentMarkSweepGeneration@@UBEPAVCompactibleSpace@@XZ 0804fc74 f   concurrentMarkSweepGeneration.obj
 0001:0004ec7b       ?reset_after_compaction@ConcurrentMarkSweepGeneration@@QAEXXZ 0804fc7b f   concurrentMarkSweepGeneration.obj
 0001:0004ecae       ?space_iterate@ConcurrentMarkSweepGeneration@@UAEXPAVSpaceClosure@@H@Z 0804fcae f   concurrentMarkSweepGeneration.obj
 0001:0004ecc1       ?compute_new_size@ConcurrentMarkSweepGeneration@@UAEXXZ 0804fcc1 f   concurrentMarkSweepGeneration.obj
 0001:0004ed51       ?freelistLock@ConcurrentMarkSweepGeneration@@QBEPAVMutex@@XZ 0804fd51 f   concurrentMarkSweepGeneration.obj
 0001:0004ed5b       ?allocate@ConcurrentMarkSweepGeneration@@UAEPAVHeapWord@@IHH@Z 0804fd5b f   concurrentMarkSweepGeneration.obj
 0001:0004eda9       ?have_lock_and_allocate@ConcurrentMarkSweepGeneration@@QAEPAVHeapWord@@IHH@Z 0804fda9 f   concurrentMarkSweepGeneration.obj
 0001:0004edeb       ?direct_allocated@CMSCollector@@QAEXPAVHeapWord@@I@Z 0804fdeb f   concurrentMarkSweepGeneration.obj
 0001:0004ee45       ?mark@CMSBitMap@@QAEXPAVHeapWord@@@Z 0804fe45 f i concurrentMarkSweepGeneration.obj
 0001:0004ee6f       ?promoted@CMSCollector@@QAEXHPAVHeapWord@@@Z 0804fe6f f   concurrentMarkSweepGeneration.obj
 0001:0004eef8       ?icms_update_allocation_limits@CMSCollector@@AAEXXZ 0804fef8 f   concurrentMarkSweepGeneration.obj
 0001:0004eff2       ?allocation_limit_reached@CMSCollector@@QAEPAVHeapWord@@PAVSpace@@PAV2@I@Z 0804fff2 f   concurrentMarkSweepGeneration.obj
 0001:0004f049       ?promote@ConcurrentMarkSweepGeneration@@UAEPAVoopDesc@@PAV2@IPAPAV2@@Z 08050049 f   concurrentMarkSweepGeneration.obj
 0001:0004f0bb       ?allocation_limit_reached@ConcurrentMarkSweepGeneration@@UAEPAVHeapWord@@PAVSpace@@PAV2@I@Z 080500bb f   concurrentMarkSweepGeneration.obj
 0001:0004f0d5       ?par_promote@ConcurrentMarkSweepGeneration@@UAEPAVoopDesc@@HPAV2@PAVmarkOopDesc@@I@Z 080500d5 f   concurrentMarkSweepGeneration.obj
 0001:0004f19d       ?par_promote_alloc_undo@ConcurrentMarkSweepGeneration@@UAEXHPAVHeapWord@@I@Z 0805019d f   concurrentMarkSweepGeneration.obj
 0001:0004f1b2       ?par_promote_alloc_done@ConcurrentMarkSweepGeneration@@UAEXH@Z 080501b2 f   concurrentMarkSweepGeneration.obj
 0001:0004f1c7       ?par_oop_since_save_marks_iterate_done@ConcurrentMarkSweepGeneration@@UAEXH@Z 080501c7 f   concurrentMarkSweepGeneration.obj
 0001:0004f1e4       ?should_collect@ConcurrentMarkSweepGeneration@@UAEHHIHH@Z 080501e4 f   concurrentMarkSweepGeneration.obj
 0001:0004f206       ?shouldConcurrentCollect@CMSCollector@@QAEHXZ 08050206 f   concurrentMarkSweepGeneration.obj
 0001:0004f258       ?shouldConcurrentCollect@ConcurrentMarkSweepGeneration@@QAEHN@Z 08050258 f   concurrentMarkSweepGeneration.obj
 0001:0004f2d6       ?collect@ConcurrentMarkSweepGeneration@@UAEXHHIHH@Z 080502d6 f   concurrentMarkSweepGeneration.obj
 0001:0004f2f7       ?collect@CMSCollector@@QAEXHHIHH@Z 080502f7 f   concurrentMarkSweepGeneration.obj
 0001:0004f31f       ?acquire_control_and_collect@CMSCollector@@AAEXHH@Z 0805031f f   concurrentMarkSweepGeneration.obj
 0001:0004f42a       ?decide_foreground_collection_type@CMSCollector@@AAEXHPAH0@Z 0805042a f   concurrentMarkSweepGeneration.obj
 0001:0004f497       ?do_compaction_work@CMSCollector@@AAEXH@Z 08050497 f   concurrentMarkSweepGeneration.obj
 0001:0004f51e       ?do_mark_sweep_work@CMSCollector@@AAEXHW4CollectorState@1@H@Z 0805051e f   concurrentMarkSweepGeneration.obj
 0001:0004f551       ?getFreelistLocks@CMSCollector@@QAEXXZ 08050551 f   concurrentMarkSweepGeneration.obj
 0001:0004f574       ?releaseFreelistLocks@CMSCollector@@QAEXXZ 08050574 f   concurrentMarkSweepGeneration.obj
 0001:0004f597       ?collect_in_background@CMSCollector@@QAEXH@Z 08050597 f   concurrentMarkSweepGeneration.obj
 0001:0004f7d7       ?record_cms_begin@CMSStats@@QAEXXZ 080507d7 f i concurrentMarkSweepGeneration.obj
 0001:0004f840       ?record_cms_end@CMSStats@@QAEXXZ 08050840 f i concurrentMarkSweepGeneration.obj
 0001:0004f8ef       ?collect_in_foreground@CMSCollector@@QAEXH@Z 080508ef f   concurrentMarkSweepGeneration.obj
 0001:0004f969       ?waitForForegroundGC@CMSCollector@@AAEHXZ 08050969 f   concurrentMarkSweepGeneration.obj
 0001:0004f9e9       ?gc_prologue@CMSCollector@@QAEXH@Z 080509e9 f   concurrentMarkSweepGeneration.obj
 0001:0004fa7d       ?record_gc0_begin@CMSStats@@QAEXXZ 08050a7d f i concurrentMarkSweepGeneration.obj
 0001:0004faeb       ?gc_prologue@ConcurrentMarkSweepGeneration@@UAEXH@Z 08050aeb f   concurrentMarkSweepGeneration.obj
 0001:0004fafd       ?gc_prologue_work@ConcurrentMarkSweepGeneration@@QAEXHHPAVModUnionClosure@@@Z 08050afd f   concurrentMarkSweepGeneration.obj
 0001:0004fb1f       ?gc_epilogue@CMSCollector@@QAEXH@Z 08050b1f f   concurrentMarkSweepGeneration.obj
 0001:0004fbd1       ?record_gc0_end@CMSStats@@QAEXI@Z 08050bd1 f i concurrentMarkSweepGeneration.obj
 0001:0004fca8       ?gc_epilogue@ConcurrentMarkSweepGeneration@@UAEXH@Z 08050ca8 f   concurrentMarkSweepGeneration.obj
 0001:0004fcee       ?gc_epilogue_work@ConcurrentMarkSweepGeneration@@QAEXH@Z 08050cee f   concurrentMarkSweepGeneration.obj
 0001:0004fd08       ?save_marks@ConcurrentMarkSweepGeneration@@UAEXXZ 08050d08 f   concurrentMarkSweepGeneration.obj
 0001:0004fd46       ?no_allocs_since_save_marks@ConcurrentMarkSweepGeneration@@UAEHXZ 08050d46 f   concurrentMarkSweepGeneration.obj
 0001:0004fd51       ?set_generation@OopsInGenClosure@@QAEXPAVGeneration@@@Z 08050d51 f i concurrentMarkSweepGeneration.obj
 0001:0004fd72       ?oop_since_save_marks_iterate_nv@ConcurrentMarkSweepGeneration@@UAEXPAVScanClosure@@@Z 08050d72 f   concurrentMarkSweepGeneration.obj
 0001:0004fda3       ?oop_since_save_marks_iterate_nv@ConcurrentMarkSweepGeneration@@UAEXPAVFastScanClosure@@@Z 08050da3 f   concurrentMarkSweepGeneration.obj
 0001:0004fdd4       ?oop_since_save_marks_iterate_nv@ConcurrentMarkSweepGeneration@@UAEXPAVTrainScanClosure@@@Z 08050dd4 f   concurrentMarkSweepGeneration.obj
 0001:0004fe05       ?oop_since_save_marks_iterate_nv@ConcurrentMarkSweepGeneration@@UAEXPAVUpdateTrainRSWrapScanClosure@@@Z 08050e05 f   concurrentMarkSweepGeneration.obj
 0001:0004fe36       ?oop_since_save_marks_iterate_nv@ConcurrentMarkSweepGeneration@@UAEXPAVUpdateTrainRSWrapFastScanClosure@@@Z 08050e36 f   concurrentMarkSweepGeneration.obj
 0001:0004fe67       ?oop_since_save_marks_iterate_nv@ConcurrentMarkSweepGeneration@@UAEXPAVUpdateTrainRSWrapTrainScanClosure@@@Z 08050e67 f   concurrentMarkSweepGeneration.obj
 0001:0004fe98       ?oop_since_save_marks_iterate_nv@ConcurrentMarkSweepGeneration@@UAEXPAVParScanWithBarrierClosure@@@Z 08050e98 f   concurrentMarkSweepGeneration.obj
 0001:0004fec9       ?oop_since_save_marks_iterate_nv@ConcurrentMarkSweepGeneration@@UAEXPAVParScanWithoutBarrierClosure@@@Z 08050ec9 f   concurrentMarkSweepGeneration.obj
 0001:0004fefa       ?oop_since_save_marks_iterate_nv@ConcurrentMarkSweepGeneration@@UAEXPAVUpdateTrainRSWrapParScanWithoutBarrierClosure@@@Z 08050efa f   concurrentMarkSweepGeneration.obj
 0001:0004fefa       ?oop_since_save_marks_iterate_v@ConcurrentMarkSweepGeneration@@UAEXPAVOopsInGenClosure@@@Z 08050efa f   concurrentMarkSweepGeneration.obj
 0001:0004fefa       ?oop_since_save_marks_iterate_nv@ConcurrentMarkSweepGeneration@@UAEXPAVUpdateTrainRSWrapParScanWithBarrierClosure@@@Z 08050efa f   concurrentMarkSweepGeneration.obj
 0001:0004ff2b       ?object_iterate_since_last_GC@ConcurrentMarkSweepGeneration@@UAEXPAVObjectClosure@@@Z 08050f2b f   concurrentMarkSweepGeneration.obj
 0001:0004ff3d       ?younger_refs_iterate@ConcurrentMarkSweepGeneration@@UAEXPAVOopsInGenClosure@@@Z 08050f3d f   concurrentMarkSweepGeneration.obj
 0001:0004ff66       ?get_locks_and_oop_iterate@ConcurrentMarkSweepGeneration@@QAEXPAVOopClosure@@@Z 08050f66 f   concurrentMarkSweepGeneration.obj
 0001:0004ffbc       ?get_locks_and_object_iterate@ConcurrentMarkSweepGeneration@@QAEXPAVObjectClosure@@@Z 08050fbc f   concurrentMarkSweepGeneration.obj
 0001:00050012       ?prepare_for_verify@ConcurrentMarkSweepGeneration@@UAEXXZ 08051012 f   concurrentMarkSweepGeneration.obj
 0001:00050042       ?expand_and_allocate@ConcurrentMarkSweepGeneration@@UAEPAVHeapWord@@IHHH@Z 08051042 f   concurrentMarkSweepGeneration.obj
 0001:000500ad       ?expand@ConcurrentMarkSweepGeneration@@QAEXIIW4Cause@CMSExpansionCause@@@Z 080510ad f   concurrentMarkSweepGeneration.obj
 0001:00050154       ?expand_and_par_lab_allocate@ConcurrentMarkSweepGeneration@@QAEPAVHeapWord@@PAVCMSParGCThreadState@@I@Z 08051154 f   concurrentMarkSweepGeneration.obj
 0001:000501b5       ?grow_by@ConcurrentMarkSweepGeneration@@AAEHI@Z 080511b5 f   concurrentMarkSweepGeneration.obj
 0001:0005026e       ??0CMSPhaseAccounting@@QAE@PAVCMSCollector@@PBD@Z 0805126e f   concurrentMarkSweepGeneration.obj
 0001:000502ea       ??1CMSPhaseAccounting@@QAE@XZ 080512ea f   concurrentMarkSweepGeneration.obj
 0001:00050399       ?checkpointRootsInitial@CMSCollector@@QAEXH@Z 08051399 f   concurrentMarkSweepGeneration.obj
 0001:0005041d       ?checkpointRootsInitialWork@CMSCollector@@AAEXH@Z 0805141d f   concurrentMarkSweepGeneration.obj
 0001:000504d1       ?save_sweep_limits@CMSCollector@@AAEXXZ 080514d1 f i concurrentMarkSweepGeneration.obj
 0001:000504f2       ?save_sweep_limit@CompactibleFreeListSpace@@QAEXXZ 080514f2 f i concurrentMarkSweepGeneration.obj
 0001:0005050a       ?markFromRoots@CMSCollector@@QAEXH@Z 0805150a f   concurrentMarkSweepGeneration.obj
 0001:00050571       ??0CMSTokenSyncWithLocks@@QAE@HPAVMutex@@00@Z 08051571 f i concurrentMarkSweepGeneration.obj
 0001:000505b7       ??1CMSTokenSyncWithLocks@@QAE@XZ 080515b7 f i concurrentMarkSweepGeneration.obj
 0001:000505e8       ?markFromRootsWork@CMSCollector@@AAEXH@Z 080515e8 f   concurrentMarkSweepGeneration.obj
 0001:00050683       ?preclean@CMSCollector@@QAEXH@Z 08051683 f   concurrentMarkSweepGeneration.obj
 0001:000506ec       ?precleanWork@CMSCollector@@AAEXXZ 080516ec f   concurrentMarkSweepGeneration.obj
 0001:00050817       ??0MarkRefsIntoAndScanClosure@@QAE@VMemRegion@@PAVReferenceProcessor@@PAVCMSBitMap@@PAVCMSMarkStack@@3PAVCMSCollector@@H@Z 08051817 f i concurrentMarkSweepGeneration.obj
 0001:0005087a       ??0OopsInGenClosure@@QAE@XZ 0805187a f i concurrentMarkSweepGeneration.obj
 0001:00050894       ??0PushAndMarkClosure@@QAE@VMemRegion@@PAVReferenceProcessor@@PAVCMSBitMap@@PAVCMSMarkStack@@3@Z 08051894 f i concurrentMarkSweepGeneration.obj
 0001:000508c7       ?precleanModUnionTable@CMSCollector@@AAEIPAVScanMarkedObjectsAgainCarefullyClosure@@@Z 080518c7 f   concurrentMarkSweepGeneration.obj
 0001:00050bc4       ?markRange@CMSBitMap@@QAEXVMemRegion@@@Z 08051bc4 f i concurrentMarkSweepGeneration.obj
 0001:00050c4c       ?getAndClearMarkedRegion@CMSBitMap@@QAE?AVMemRegion@@PAVHeapWord@@0@Z 08051c4c f i concurrentMarkSweepGeneration.obj
 0001:00050c94       ?clearRange@CMSBitMap@@QAEXVMemRegion@@@Z 08051c94 f i concurrentMarkSweepGeneration.obj
 0001:00050d1e       ?getNextMarkedWordAddress@CMSBitMap@@QBEPAVHeapWord@@PAV2@0@Z 08051d1e f i concurrentMarkSweepGeneration.obj
 0001:00050d54       ?getNextUnmarkedWordAddress@CMSBitMap@@QBEPAVHeapWord@@PAV2@0@Z 08051d54 f i concurrentMarkSweepGeneration.obj
 0001:00050d8a       ??0MemRegion@@QAE@PAVHeapWord@@I@Z 08051d8a f i concurrentMarkSweepGeneration.obj
 0001:00050d9c       ?precleanCardTable@CMSCollector@@AAEIPAVConcurrentMarkSweepGeneration@@PAVScanMarkedObjectsAgainCarefullyClosure@@@Z 08051d9c f   concurrentMarkSweepGeneration.obj
 0001:00050f78       ?checkpointRootsFinal@CMSCollector@@QAEXHHH@Z 08051f78 f   concurrentMarkSweepGeneration.obj
 0001:00050ff1       ?checkpointRootsFinalWork@CMSCollector@@AAEXHHH@Z 08051ff1 f   concurrentMarkSweepGeneration.obj
 0001:000510cf       ?work@CMSParRemarkTask@@UAEXH@Z 080520cf f   concurrentMarkSweepGeneration.obj
 0001:00051206       ??0Par_MarkRefsIntoAndScanClosure@@QAE@VMemRegion@@PAVReferenceProcessor@@PAVCMSBitMap@@PAVOopTaskQueue@@PAVCMSMarkStack@@@Z 08052206 f i concurrentMarkSweepGeneration.obj
 0001:00051259       ??0Par_PushAndMarkClosure@@QAE@VMemRegion@@PAVReferenceProcessor@@PAVCMSBitMap@@PAVOopTaskQueue@@PAVCMSMarkStack@@@Z 08052259 f i concurrentMarkSweepGeneration.obj
 0001:0005128c       ?do_rescan_tasks@CMSParRemarkTask@@AAEXPAVCompactibleFreeListSpace@@HPAVPar_MarkRefsIntoAndScanClosure@@@Z 0805228c f   concurrentMarkSweepGeneration.obj
 0001:000513ec       ?do_work_steal@CMSParRemarkTask@@AAEXHPAVPar_MarkRefsIntoAndScanClosure@@PAH@Z 080523ec f   concurrentMarkSweepGeneration.obj
 0001:00051447       ?trim_queue@Par_MarkRefsIntoAndScanClosure@@QAEXI@Z 08052447 f i concurrentMarkSweepGeneration.obj
 0001:00051496       ?do_remark_parallel@CMSCollector@@AAEXXZ 08052496 f   concurrentMarkSweepGeneration.obj
 0001:00051541       ??0CMSParRemarkTask@@QAE@PAVCMSCollector@@PAVCompactibleFreeListSpace@@1HPAVWorkGang@@PAVOopTaskQueueSet@@@Z 08052541 f i concurrentMarkSweepGeneration.obj
 0001:0005158e       ??_GCMSParRemarkTask@@UAEPAXI@Z 0805258e f i concurrentMarkSweepGeneration.obj
 0001:0005158e       ??_ECMSParRemarkTask@@UAEPAXI@Z 0805258e f i concurrentMarkSweepGeneration.obj
 0001:000515b3       ?do_remark_non_parallel@CMSCollector@@AAEXXZ 080525b3 f   concurrentMarkSweepGeneration.obj
 0001:00051811       ?refProcessingWork@CMSCollector@@AAEXHH@Z 08052811 f   concurrentMarkSweepGeneration.obj
 0001:00051a08       ?sweep@CMSCollector@@QAEXH@Z 08052a08 f   concurrentMarkSweepGeneration.obj
 0001:00051aec       ?setNearLargestChunk@ConcurrentMarkSweepGeneration@@QAEXXZ 08052aec f   concurrentMarkSweepGeneration.obj
 0001:00051b4b       ?isNearLargestChunk@ConcurrentMarkSweepGeneration@@QAEHPAVHeapWord@@@Z 08052b4b f   concurrentMarkSweepGeneration.obj
 0001:00051b61       ?sweepWork@CMSCollector@@AAEXPAVConcurrentMarkSweepGeneration@@H@Z 08052b61 f   concurrentMarkSweepGeneration.obj
 0001:00051be6       ?reset@CMSCollector@@AAEXH@Z 08052be6 f   concurrentMarkSweepGeneration.obj
 0001:00051d74       ?doCMSOperation@CMSCollector@@IAEXW4CMS_op_type@1@@Z 08052d74 f   concurrentMarkSweepGeneration.obj
 0001:00051e18       ?stopWorldAndDo@CMSCollector@@IAEHW4CMS_op_type@1@@Z 08052e18 f   concurrentMarkSweepGeneration.obj
 0001:00051f32       ?block_size_using_printezis_bits@CMSCollector@@ABEIPAVHeapWord@@@Z 08052f32 f   concurrentMarkSweepGeneration.obj
 0001:00051f64       ?next_card_start_after_block@CMSCollector@@ABEPAVHeapWord@@PAV2@@Z 08052f64 f   concurrentMarkSweepGeneration.obj
 0001:00051fb2       ??0CMSBitMap@@QAE@HHPBD@Z  08052fb2 f   concurrentMarkSweepGeneration.obj
 0001:00051fef       ?allocate@CMSBitMap@@QAEXVMemRegion@@@Z 08052fef f   concurrentMarkSweepGeneration.obj
 0001:0005207a       ?dirty_range_iterate_clear@CMSBitMap@@QAEXVMemRegion@@PAVMemRegionClosure@@@Z 0805307a f   concurrentMarkSweepGeneration.obj
 0001:000520c4       ?allocate@CMSMarkStack@@QAEXI@Z 080530c4 f   concurrentMarkSweepGeneration.obj
 0001:0005212d       ??0MarkRefsIntoClosure@@QAE@VMemRegion@@PAVCMSBitMap@@H@Z 0805312d f   concurrentMarkSweepGeneration.obj
 0001:0005215d       ?do_oop@MarkRefsIntoClosure@@UAEXPAPAVoopDesc@@@Z 0805315d f   concurrentMarkSweepGeneration.obj
 0001:00052186       ?do_oop@MarkRefsIntoAndScanClosure@@UAEXPAPAVoopDesc@@@Z 08053186 f   concurrentMarkSweepGeneration.obj
 0001:000521fa       ?do_yield_check@MarkRefsIntoAndScanClosure@@AAEXXZ 080531fa f i concurrentMarkSweepGeneration.obj
 0001:00052217       ?do_yield_work@MarkRefsIntoAndScanClosure@@AAEXXZ 08053217 f   concurrentMarkSweepGeneration.obj
 0001:000522c5       ?do_oop@Par_MarkRefsIntoAndScanClosure@@UAEXPAPAVoopDesc@@@Z 080532c5 f   concurrentMarkSweepGeneration.obj
 0001:0005232d       ?do_object_careful@ScanMarkedObjectsAgainCarefullyClosure@@UAEIPAVoopDesc@@@Z 0805332d f   concurrentMarkSweepGeneration.obj
 0001:000523d3       ?do_yield_check@ScanMarkedObjectsAgainCarefullyClosure@@AAEXXZ 080533d3 f i concurrentMarkSweepGeneration.obj
 0001:000523f0       ?do_yield_work@ScanMarkedObjectsAgainCarefullyClosure@@AAEXXZ 080533f0 f   concurrentMarkSweepGeneration.obj
 0001:0005249e       ?do_object@ScanMarkedObjectsAgainClosure@@UAEXPAVoopDesc@@@Z 0805349e f   concurrentMarkSweepGeneration.obj
 0001:000524d8       ??0MarkFromRootsClosure@@QAE@PAVCMSCollector@@VMemRegion@@PAVCMSBitMap@@PAVCMSMarkStack@@3H@Z 080534d8 f   concurrentMarkSweepGeneration.obj
 0001:0005251a       ?do_bit@MarkFromRootsClosure@@UAEXI@Z 0805351a f   concurrentMarkSweepGeneration.obj
 0001:0005255a       ?do_yield_work@MarkFromRootsClosure@@AAEXXZ 0805355a f   concurrentMarkSweepGeneration.obj
 0001:000525f8       ?scanOopsInOop@MarkFromRootsClosure@@AAEXPAVHeapWord@@@Z 080535f8 f   concurrentMarkSweepGeneration.obj
 0001:0005267a       ?do_yield_check@MarkFromRootsClosure@@AAEXXZ 0805367a f i concurrentMarkSweepGeneration.obj
 0001:00052697       ??0PushOrMarkClosure@@QAE@PAVReferenceProcessor@@VMemRegion@@PAVCMSBitMap@@PAVCMSMarkStack@@3PAVHeapWord@@@Z 08053697 f   concurrentMarkSweepGeneration.obj
 0001:000526d4       ?do_oop@PushOrMarkClosure@@UAEXPAPAVoopDesc@@@Z 080536d4 f   concurrentMarkSweepGeneration.obj
 0001:00052718       ?do_oop@PushAndMarkClosure@@UAEXPAPAVoopDesc@@@Z 08053718 f   concurrentMarkSweepGeneration.obj
 0001:00052757       ?do_oop@Par_PushAndMarkClosure@@UAEXPAPAVoopDesc@@@Z 08053757 f   concurrentMarkSweepGeneration.obj
 0001:000527a7       ?remember_klass@PushAndMarkClosure@@UAEXPAVKlass@@@Z 080537a7 f   concurrentMarkSweepGeneration.obj
 0001:000527b6       ?remember_klass@Par_PushAndMarkClosure@@UAEXPAVKlass@@@Z 080537b6 f   concurrentMarkSweepGeneration.obj
 0001:000527c5       ?do_MemRegion@MarkFromDirtyCardsClosure@@UAEXVMemRegion@@@Z 080537c5 f   concurrentMarkSweepGeneration.obj
 0001:000527fe       ??0SweepClosure@@QAE@PAVCMSCollector@@PAVConcurrentMarkSweepGeneration@@PAVCMSBitMap@@H@Z 080537fe f   concurrentMarkSweepGeneration.obj
 0001:00052865       ?do_blk@BlkClosureCareful@@UAEIPAVHeapWord@@@Z 08053865 f i concurrentMarkSweepGeneration.obj
 0001:0005287f       ??1SweepClosure@@QAE@XZ    0805387f f   concurrentMarkSweepGeneration.obj
 0001:0005289e       ?initialize_free_range@SweepClosure@@AAEXPAVHeapWord@@H@Z 0805389e f   concurrentMarkSweepGeneration.obj
 0001:000528ba       ?do_blk_careful@SweepClosure@@UAEIPAVHeapWord@@@Z 080538ba f   concurrentMarkSweepGeneration.obj
 0001:0005291c       ?do_yield_check@SweepClosure@@AAEXPAVHeapWord@@@Z 0805391c f i concurrentMarkSweepGeneration.obj
 0001:0005293f       ?doAlreadyFreeChunk@SweepClosure@@AAEXPAVFreeChunk@@@Z 0805393f f   concurrentMarkSweepGeneration.obj
 0001:000529d9       ?doGarbageChunk@SweepClosure@@AAEIPAVFreeChunk@@@Z 080539d9 f   concurrentMarkSweepGeneration.obj
 0001:00052a42       ?heap@Universe@@SAPAVCollectedHeap@@XZ 08053a42 f i concurrentMarkSweepGeneration.obj
 0001:00052a48       ?doLiveChunk@SweepClosure@@AAEIPAVFreeChunk@@@Z 08053a48 f   concurrentMarkSweepGeneration.obj
 0001:00052aef       ?doPostIsFreeOrGarbageChunk@SweepClosure@@AAEXPAVFreeChunk@@I@Z 08053aef f   concurrentMarkSweepGeneration.obj
 0001:00052ba2       ?flushCurFreeChunk@SweepClosure@@AAEXPAVHeapWord@@I@Z 08053ba2 f   concurrentMarkSweepGeneration.obj
 0001:00052bdc       ?do_yield_work@SweepClosure@@AAEXPAVHeapWord@@@Z 08053bdc f   concurrentMarkSweepGeneration.obj
 0001:00052ca5       ?do_object_b@CMSIsAliveClosure@@UAEHPAVoopDesc@@@Z 08053ca5 f   concurrentMarkSweepGeneration.obj
 0001:00052cd7       ?do_oop@CMSKeepAliveClosure@@UAEXPAPAVoopDesc@@@Z 08053cd7 f   concurrentMarkSweepGeneration.obj
 0001:00052d16       ??0TraceCollectorStats@@QAE@PAVCollectorCounters@@@Z 08053d16 f i concurrentMarkSweepGeneration.obj
 0001:00052d4b       ??1TraceCollectorStats@@QAE@XZ 08053d4b f i concurrentMarkSweepGeneration.obj
 0001:00052d75       ?set_span@ReferenceProcessor@@QAEXVMemRegion@@@Z 08053d75 f i concurrentMarkSweepGeneration.obj
 0001:00052d85       ??0ReferenceProcessorSpanMutator@@QAE@PAVReferenceProcessor@@VMemRegion@@@Z 08053d85 f i concurrentMarkSweepGeneration.obj
 0001:00052dc1       ??1ReferenceProcessorSpanMutator@@QAE@XZ 08053dc1 f i concurrentMarkSweepGeneration.obj
 0001:00052dd8       ?should_allocate@Generation@@UAEHIHH@Z 08053dd8 f i concurrentMarkSweepGeneration.obj
 0001:00052dfa       ?tlab_capacity@Generation@@UBEIXZ 08053dfa f i concurrentMarkSweepGeneration.obj
 0001:00052e15       ?contribute_scratch@Generation@@UAEXAAPAUScratchBlock@@PAV1@I@Z 08053e15 f i concurrentMarkSweepGeneration.obj
 0001:00052e15       ?oop_iterate_m@ProfileData@@UAEXPAVOopClosure@@VMemRegion@@@Z 08053e15 f i concurrentMarkSweepGeneration.obj
 0001:00052e18       ?addr_to_arena_id@Generation@@UAEHPAX@Z 08053e18 f i concurrentMarkSweepGeneration.obj
 0001:00052e1e       ?update_all@GenerationCounters@@QAEXXZ 08053e1e f i concurrentMarkSweepGeneration.obj
 0001:00052e37       ?update_capacity@GSpaceCounters@@QAEXXZ 08053e37 f i concurrentMarkSweepGeneration.obj
 0001:00052e50       ?update_used@GSpaceCounters@@QAEXXZ 08053e50 f i concurrentMarkSweepGeneration.obj
 0001:00052e6a       ??1MutexUnlockerEx@@QAE@XZ 08053e6a f i concurrentMarkSweepGeneration.obj
 0001:00052e7c       ?size@TaskQueueSuper@@QAE_IXZ 08053e7c f i concurrentMarkSweepGeneration.obj
 0001:00052e96       ??0OopTaskQueueSet@@QAE@H@Z 08053e96 f i concurrentMarkSweepGeneration.obj
 0001:00052f07       ?push@OopTaskQueue@@QAEHPAVoopDesc@@@Z 08053f07 f i concurrentMarkSweepGeneration.obj
 0001:00052f44       ?pop_local@OopTaskQueue@@QAEHAAPAVoopDesc@@@Z 08053f44 f i concurrentMarkSweepGeneration.obj
 0001:00052f9b       ??0CMSMarkStack@@QAE@XZ    08053f9b f i concurrentMarkSweepGeneration.obj
 0001:00052fb8       ?pop@CMSMarkStack@@QAEPAVoopDesc@@XZ 08053fb8 f i concurrentMarkSweepGeneration.obj
 0001:00052fcd       ?push@CMSMarkStack@@QAEXPAVoopDesc@@@Z 08053fcd f i concurrentMarkSweepGeneration.obj
 0001:00053007       ?par_push@CMSMarkStack@@QAEXPAVoopDesc@@@Z 08054007 f i concurrentMarkSweepGeneration.obj
 0001:00053034       ?do_MemRegion@ModUnionClosure@@UAEXVMemRegion@@@Z 08054034 f i concurrentMarkSweepGeneration.obj
 0001:00053050       ?do_MemRegion@ModUnionClosurePar@@UAEXVMemRegion@@@Z 08054050 f i concurrentMarkSweepGeneration.obj
 0001:0005306c       ?par_markRange@CMSBitMap@@QAEXVMemRegion@@@Z 0805406c f i concurrentMarkSweepGeneration.obj
 0001:000530e7       ?cmsSpace@ConcurrentMarkSweepGeneration@@QBEPAVCompactibleFreeListSpace@@XZ 080540e7 f i concurrentMarkSweepGeneration.obj
 0001:000530ee       ?occupancy@ConcurrentMarkSweepGeneration@@QAENXZ 080540ee f i concurrentMarkSweepGeneration.obj
 0001:00053120       ?par_allocate@ConcurrentMarkSweepGeneration@@UAEPAVHeapWord@@IHH@Z 08054120 f i concurrentMarkSweepGeneration.obj
 0001:00053134       ?time_of_last_gc@ConcurrentMarkSweepGeneration@@UAE_J_J@Z 08054134 f i concurrentMarkSweepGeneration.obj
 0001:00053154       ?update_time_of_last_gc@ConcurrentMarkSweepGeneration@@UAEX_J@Z 08054154 f i concurrentMarkSweepGeneration.obj
 0001:00053170       ?counters@ConcurrentMarkSweepGeneration@@UAEPAVCollectorCounters@@XZ 08054170 f i concurrentMarkSweepGeneration.obj
 0001:00053179       ?short_name@ConcurrentMarkSweepGeneration@@UBEPBDXZ 08054179 f i concurrentMarkSweepGeneration.obj
 0001:0005317f       ?should_remember_klasses@Par_PushAndMarkClosure@@UBE?BHXZ 0805417f f i concurrentMarkSweepGeneration.obj
 0001:0005317f       ?should_remember_klasses@PushOrMarkClosure@@UBE?BHXZ 0805417f f i concurrentMarkSweepGeneration.obj
 0001:0005317f       ?should_remember_klasses@PushAndMarkClosure@@UBE?BHXZ 0805417f f i concurrentMarkSweepGeneration.obj
 0001:00053185       ?remember_klass@PushOrMarkClosure@@UAEXPAVKlass@@@Z 08054185 f i concurrentMarkSweepGeneration.obj
 0001:0005319b       ??0MarkFromDirtyCardsClosure@@QAE@PAVCMSCollector@@VMemRegion@@PAVCompactibleFreeListSpace@@PAVCMSBitMap@@PAVCMSMarkStack@@4PAVMarkRefsIntoAndScanClosure@@@Z 0805419b f i concurrentMarkSweepGeneration.obj
 0001:000531e6       ??0ScanMarkedObjectsAgainClosure@@QAE@VMemRegion@@PAVReferenceProcessor@@PAVCMSBitMap@@PAVCMSMarkStack@@3PAVMarkRefsIntoAndScanClosure@@@Z 080541e6 f i concurrentMarkSweepGeneration.obj
 0001:00053207       ??0MarkFromDirtyCardsClosure@@QAE@PAVCMSCollector@@VMemRegion@@PAVCompactibleFreeListSpace@@PAVCMSBitMap@@PAVOopTaskQueue@@PAVCMSMarkStack@@PAVPar_MarkRefsIntoAndScanClosure@@@Z 08054207 f i concurrentMarkSweepGeneration.obj
 0001:00053252       ??0ScanMarkedObjectsAgainClosure@@QAE@VMemRegion@@PAVReferenceProcessor@@PAVCMSBitMap@@PAVOopTaskQueue@@PAVCMSMarkStack@@PAVPar_MarkRefsIntoAndScanClosure@@@Z 08054252 f i concurrentMarkSweepGeneration.obj
 0001:00053276       ??0ScanMarkedObjectsAgainCarefullyClosure@@QAE@PAVCMSCollector@@VMemRegion@@PAVCMSBitMap@@PAVCMSMarkStack@@3PAVMarkRefsIntoAndScanClosure@@H@Z 08054276 f i concurrentMarkSweepGeneration.obj
 0001:000532b3       ?do_object@MemObjectClosureCareful@@UAEXPAVoopDesc@@@Z 080542b3 f i concurrentMarkSweepGeneration.obj
 0001:000532cb       ??0CMSIsAliveClosure@@QAE@VMemRegion@@PAVCMSBitMap@@@Z 080542cb f i concurrentMarkSweepGeneration.obj
 0001:000532eb       ??0CMSKeepAliveClosure@@QAE@VMemRegion@@PAVCMSBitMap@@PAVCMSMarkStack@@@Z 080542eb f i concurrentMarkSweepGeneration.obj
 0001:00053316       ??0CMSDrainMarkingStackClosure@@QAE@VMemRegion@@PAVCMSBitMap@@PAVCMSMarkStack@@PAVCMSKeepAliveClosure@@@Z 08054316 f i concurrentMarkSweepGeneration.obj
 0001:00053343       ?do_void@CMSDrainMarkingStackClosure@@UAEXXZ 08054343 f i concurrentMarkSweepGeneration.obj
 0001:0005336a       ?ct_bs@CardTableRS@@QAEPAVCardTableModRefBS@@XZ 0805436a f i concurrentMarkSweepGeneration.obj
 0001:0005336e       ??_EAbstractGangTask@@MAEPAXI@Z 0805436e f i concurrentMarkSweepGeneration.obj
 0001:0005336e       ??_GAbstractGangTask@@MAEPAXI@Z 0805436e f i concurrentMarkSweepGeneration.obj
 0001:0005338b       ??0ConcurrentMarkSweepThread@@QAE@PAVCMSCollector@@@Z 0805438b f   concurrentMarkSweepThread.obj
 0001:00053429       ?run@ConcurrentMarkSweepThread@@UAEXXZ 08054429 f   concurrentMarkSweepThread.obj
 0001:00053587       ?tick@CMSLoopCountWarn@@IAEXXZ 08054587 f i concurrentMarkSweepThread.obj
 0001:000535b6       ?start@ConcurrentMarkSweepThread@@SAXPAVCMSCollector@@@Z 080545b6 f   concurrentMarkSweepThread.obj
 0001:000535da       ?stop@ConcurrentMarkSweepThread@@SAXXZ 080545da f   concurrentMarkSweepThread.obj
 0001:00053631       ?synchronize@ConcurrentMarkSweepThread@@SAXH@Z 08054631 f   concurrentMarkSweepThread.obj
 0001:000536c0       ?desynchronize@ConcurrentMarkSweepThread@@SAXH@Z 080546c0 f   concurrentMarkSweepThread.obj
 0001:00053711       ?sleepBeforeNextCycle@ConcurrentMarkSweepThread@@AAEXXZ 08054711 f   concurrentMarkSweepThread.obj
 0001:0005377f       ?start_icms@ConcurrentMarkSweepThread@@SAXXZ 0805477f f   concurrentMarkSweepThread.obj
 0001:000537be       ?stop_icms@ConcurrentMarkSweepThread@@SAXXZ 080547be f   concurrentMarkSweepThread.obj
 0001:00053820       ?icms_wait@ConcurrentMarkSweepThread@@QAEXXZ 08054820 f   concurrentMarkSweepThread.obj
 0001:000538b8       ?makeSurrogateLockerThread@ConcurrentMarkSweepThread@@SAXPAVThread@@@Z 080548b8 f   concurrentMarkSweepThread.obj
 0001:00053a45       ?manipulatePLL@ConcurrentMarkSweepThread@@SAXW4SLT_msg_type@SurrogateLockerThread@@@Z 08054a45 f   concurrentMarkSweepThread.obj
 0001:00053a94       ??0SurrogateLockerThread@@QAE@PAW4SLT_msg_type@0@PAVMonitor@@@Z 08054a94 f   concurrentMarkSweepThread.obj
 0001:00053acc       ?loop@SurrogateLockerThread@@SAXPAVJavaThread@@@Z 08054acc f   concurrentMarkSweepThread.obj
 0001:00053b7b       ?allocate@constantPoolKlass@@QAEPAVconstantPoolOopDesc@@HPAVThread@@@Z 08054b7b f   constantPoolKlass.obj
 0001:00053cac       ?create_klass@constantPoolKlass@@SAPAVklassOopDesc@@PAVThread@@@Z 08054cac f   constantPoolKlass.obj
 0001:00053d37       ?klass_oop_size@constantPoolKlass@@UBEHXZ 08054d37 f i constantPoolKlass.obj
 0001:00053d37       ?klass_oop_size@constantPoolCacheKlass@@UBEHXZ 08054d37 f i constantPoolKlass.obj
 0001:00053d3f       ?allocate_permanent@constantPoolKlass@@UBEPAXAAVKlassHandle@@HPAVThread@@@Z 08054d3f f i constantPoolKlass.obj
 0001:00053d66       ?oop_size@constantPoolKlass@@UBEHPAVoopDesc@@@Z 08054d66 f   constantPoolKlass.obj
 0001:00053d76       ?oop_follow_contents@constantPoolKlass@@UAEXPAVoopDesc@@@Z 08054d76 f   constantPoolKlass.obj
 0001:00053e8f       ?oop_adjust_pointers@constantPoolKlass@@UAEHPAVoopDesc@@@Z 08054e8f f   constantPoolKlass.obj
 0001:00053f7c       ?oop_oop_iterate@constantPoolKlass@@UAEHPAVoopDesc@@PAVOopClosure@@@Z 08054f7c f   constantPoolKlass.obj
 0001:0005406c       ?oop_oop_iterate_m@constantPoolKlass@@UAEHPAVoopDesc@@PAVOopClosure@@VMemRegion@@@Z 0805506c f   constantPoolKlass.obj
 0001:00054177       ?alloc_size@arrayKlass@@UBE_IXZ 08055177 f i constantPoolKlass.obj
 0001:0005417b       ?set_alloc_size@arrayKlass@@UAEX_I@Z 0805517b f i constantPoolKlass.obj
 0001:00054185       ?object_size@constantPoolOopDesc@@SAHH@Z 08055185 f i constantPoolKlass.obj
 0001:0005418f       ?klass_at_impl@constantPoolOopDesc@@CAPAVklassOopDesc@@VconstantPoolHandle@@HPAVThread@@@Z 0805518f f   constantPoolOop.obj
 0001:00054411       ?klass_at_if_loaded@constantPoolOopDesc@@SAPAVklassOopDesc@@VconstantPoolHandle@@H@Z 08055411 f   constantPoolOop.obj
 0001:00054504       ?klass_ref_at_if_loaded_check@constantPoolOopDesc@@SAPAVklassOopDesc@@VconstantPoolHandle@@HPAVThread@@@Z 08055504 f   constantPoolOop.obj
 0001:000545cf       ?verify_constant_pool_resolve@constantPoolOopDesc@@CAXVconstantPoolHandle@@VKlassHandle@@PAVThread@@@Z 080555cf f   constantPoolOop.obj
 0001:00054664       ?klass_ref_index_at@constantPoolOopDesc@@QAEHH@Z 08055664 f   constantPoolOop.obj
 0001:00054675       ?name_and_type_ref_index_at@constantPoolOopDesc@@QAEHH@Z 08055675 f   constantPoolOop.obj
 0001:00054689       ?signature_ref_index_at@constantPoolOopDesc@@QAEHH@Z 08055689 f   constantPoolOop.obj
 0001:0005469c       ?klass_ref_at@constantPoolOopDesc@@QAEPAVklassOopDesc@@HPAVThread@@@Z 0805569c f   constantPoolOop.obj
 0001:000546b8       ?klass_name_at@constantPoolOopDesc@@QAEPAVsymbolOopDesc@@H@Z 080556b8 f   constantPoolOop.obj
 0001:000546dc       ?klass_ref_at_noresolve@constantPoolOopDesc@@QAEPAVsymbolOopDesc@@H@Z 080556dc f   constantPoolOop.obj
 0001:000546f4       ?string_at_noresolve@constantPoolOopDesc@@QAEPADH@Z 080556f4 f   constantPoolOop.obj
 0001:00054721       ?name_ref_at@constantPoolOopDesc@@QAEPAVsymbolOopDesc@@H@Z 08055721 f   constantPoolOop.obj
 0001:0005473e       ?signature_ref_at@constantPoolOopDesc@@QAEPAVsymbolOopDesc@@H@Z 0805573e f   constantPoolOop.obj
 0001:0005475e       ?basic_type_for_signature_at@constantPoolOopDesc@@QAE?AW4BasicType@@H@Z 0805575e f   constantPoolOop.obj
 0001:0005476f       ?resolve_string_constants_impl@constantPoolOopDesc@@CAXVconstantPoolHandle@@PAVThread@@@Z 0805576f f   constantPoolOop.obj
 0001:000547b3       ?string_at_impl@constantPoolOopDesc@@CAPAVoopDesc@@VconstantPoolHandle@@HPAVThread@@@Z 080557b3 f   constantPoolOop.obj
 0001:00054849       ?klass_name_at_matches@constantPoolOopDesc@@QAEHVinstanceKlassHandle@@H@Z 08055849 f   constantPoolOop.obj
 0001:00054869       ?klass_at_put@constantPoolOopDesc@@QAEXHPAVklassOopDesc@@@Z 08055869 f i constantPoolOop.obj
 0001:000548b0       ?string_at_put@constantPoolOopDesc@@QAEXHPAVoopDesc@@@Z 080558b0 f i constantPoolOop.obj
 0001:000548ee       ?klass_at@constantPoolOopDesc@@QAEPAVklassOopDesc@@HPAVThread@@@Z 080558ee f i constantPoolOop.obj
 0001:0005491d       ?string_at@constantPoolOopDesc@@QAEPAVoopDesc@@HPAVThread@@@Z 0805591d f i constantPoolOop.obj
 0001:0005494c       ?field_or_method_at@constantPoolOopDesc@@QAEHH@Z 0805594c f i constantPoolOop.obj
 0001:0005497a       ?oop_size@constantPoolCacheKlass@@UBEHPAVoopDesc@@@Z 0805597a f   cpCacheKlass.obj
 0001:0005498a       ?allocate@constantPoolCacheKlass@@QAEPAVconstantPoolCacheOopDesc@@HPAVThread@@@Z 0805598a f   cpCacheKlass.obj
 0001:000549fb       ?create_klass@constantPoolCacheKlass@@SAPAVklassOopDesc@@PAVThread@@@Z 080559fb f   cpCacheKlass.obj
 0001:00054a86       ?allocate_permanent@constantPoolCacheKlass@@UBEPAXAAVKlassHandle@@HPAVThread@@@Z 08055a86 f i cpCacheKlass.obj
 0001:00054aad       ?oop_follow_contents@constantPoolCacheKlass@@UAEXPAVoopDesc@@@Z 08055aad f   cpCacheKlass.obj
 0001:00054af5       ?oop_oop_iterate@constantPoolCacheKlass@@UAEHPAVoopDesc@@PAVOopClosure@@@Z 08055af5 f   cpCacheKlass.obj
 0001:00054b42       ?oop_oop_iterate_m@constantPoolCacheKlass@@UAEHPAVoopDesc@@PAVOopClosure@@VMemRegion@@@Z 08055b42 f   cpCacheKlass.obj
 0001:00054ba8       ?oop_adjust_pointers@constantPoolCacheKlass@@UAEHPAVoopDesc@@@Z 08055ba8 f   cpCacheKlass.obj
 0001:00054bef       ?object_size@constantPoolCacheOopDesc@@CAHH@Z 08055bef f i cpCacheKlass.obj
 0001:00054bfd       ?entry_at@constantPoolCacheOopDesc@@QBEPAVConstantPoolCacheEntry@@H@Z 08055bfd f i cpCacheKlass.obj
 0001:00054c0a       ?set_stack_location@ArgumentLocation@@AAEXH@Z 08055c0a f   cpCacheOop.obj
 0001:00054c0a       ?set_initial_state@ConstantPoolCacheEntry@@QAEXH@Z 08055c0a f   cpCacheOop.obj
 0001:00054c0a       ?set_base@iEntries@@QAEXPAE@Z 08055c0a f   cpCacheOop.obj
 0001:00054c13       ?as_flags@ConstantPoolCacheEntry@@AAEHW4TosState@@HHHHH@Z 08055c13 f   cpCacheOop.obj
 0001:00054c5a       ?set_bytecode_1@ConstantPoolCacheEntry@@AAEXW4Code@Bytecodes@@@Z 08055c5a f   cpCacheOop.obj
 0001:00054c73       ?set_bytecode_2@ConstantPoolCacheEntry@@AAEXW4Code@Bytecodes@@@Z 08055c73 f   cpCacheOop.obj
 0001:00054c8c       ?set_field@ConstantPoolCacheEntry@@QAEXW4Code@Bytecodes@@0VKlassHandle@@HHW4TosState@@HH@Z 08055c8c f   cpCacheOop.obj
 0001:00054cfd       ?set_method@ConstantPoolCacheEntry@@QAEXW4Code@Bytecodes@@VmethodHandle@@H@Z 08055cfd f   cpCacheOop.obj
 0001:00054ec0       ?set_interface_call@ConstantPoolCacheEntry@@QAEXVmethodHandle@@H@Z 08055ec0 f   cpCacheOop.obj
 0001:00054fbc       ?do_oop@LocalOopClosure@@UAEXPAPAVoopDesc@@@Z 08055fbc f i cpCacheOop.obj
 0001:00054fc7       ?oop_iterate@ConstantPoolCacheEntry@@QAEXPAVOopClosure@@@Z 08055fc7 f   cpCacheOop.obj
 0001:00054ff6       ?oop_iterate_m@ConstantPoolCacheEntry@@QAEXPAVOopClosure@@VMemRegion@@@Z 08055ff6 f   cpCacheOop.obj
 0001:00055045       ?follow_contents@ConstantPoolCacheEntry@@QAEXXZ 08056045 f   cpCacheOop.obj
 0001:0005508c       ?adjust_pointers@ConstantPoolCacheEntry@@QAEXXZ 0805608c f   cpCacheOop.obj
 0001:000550bd       ?adjust_method_entry@ConstantPoolCacheEntry@@QAEXPAVmethodOopDesc@@0@Z 080560bd f   cpCacheOop.obj
 0001:000550f6       ?initialize@constantPoolCacheOopDesc@@QAEXAAVintArray@@@Z 080560f6 f   cpCacheOop.obj
 0001:00055125       ?adjust_method_entries@constantPoolCacheOopDesc@@QAEXPAVobjArrayOopDesc@@0@Z 08056125 f   cpCacheOop.obj
 0001:000551a4       ?is_resolved@ConstantPoolCacheEntry@@QBEHW4Code@Bytecodes@@@Z 080561a4 f i cpCacheOop.obj
 0001:00055204       ?obfuscate_location@@YAXPBDHPADH@Z 08056204 f   debug.obj
 0001:0005528c       ?warning@@YAXPBDZZ         0805628c f   debug.obj
 0001:000552ca       ?report_fatal@@YAXPBDH0ZZ  080562ca f   debug.obj
 0001:0005530a       ?report_should_not_call@@YAXPBDH@Z 0805630a f   debug.obj
 0001:00055327       ?report_should_not_reach_here@@YAXPBDH@Z 08056327 f   debug.obj
 0001:00055344       ?report_unimplemented@@YAXPBDH@Z 08056344 f   debug.obj
 0001:00055361       ?is_error_reported@@YAHXZ  08056361 f   debug.obj
 0001:00055378       ?inc_error_level@@YAHXZ    08056378 f   debug.obj
 0001:0005538b       ?dec_error_level@@YAHXZ    0805638b f   debug.obj
 0001:0005539e       ?report_error@@YAXHPBDH00ZZ 0805639e f   debug.obj
 0001:00055728       ??0DebugInfoWriteStream@@QAE@PAVDebugInformationRecorder@@H@Z 08056728 f   debugInfo.obj
 0001:00055741       ??0DebugInfoReadStream@@QAE@PBVnmethod@@H@Z 08056741 f   debugInfo.obj
 0001:00055762       ?write_handle@DebugInfoWriteStream@@QAEXPAV_jobject@@@Z 08056762 f   debugInfo.obj
 0001:0005577d       ?read_handle@DebugInfoReadStream@@QAE?AVHandle@@XZ 0805677d f   debugInfo.obj
 0001:000557a8       ?read_from@ScopeValue@@SAPAV1@PAVDebugInfoReadStream@@@Z 080567a8 f   debugInfo.obj
 0001:0005584e       ??0LocationValue@@QAE@PAVDebugInfoReadStream@@@Z 0805684e f   debugInfo.obj
 0001:000558a9       ?write_on@LocationValue@@UAEXPAVDebugInfoWriteStream@@@Z 080568a9 f   debugInfo.obj
 0001:000558d2       ??0ConstantIntValue@@QAE@PAVDebugInfoReadStream@@@Z 080568d2 f   debugInfo.obj
 0001:000558ed       ?write_on@ConstantIntValue@@UAEXPAVDebugInfoWriteStream@@@Z 080568ed f   debugInfo.obj
 0001:0005590b       ??0ConstantLongValue@@QAE@PAVDebugInfoReadStream@@@Z 0805690b f   debugInfo.obj
 0001:00055929       ?write_on@ConstantLongValue@@UAEXPAVDebugInfoWriteStream@@@Z 08056929 f   debugInfo.obj
 0001:0005594a       ??0ConstantDoubleValue@@QAE@PAVDebugInfoReadStream@@@Z 0805694a f   debugInfo.obj
 0001:00055973       ?write_on@ConstantDoubleValue@@UAEXPAVDebugInfoWriteStream@@@Z 08056973 f   debugInfo.obj
 0001:0005599e       ?write_on@ConstantOopWriteValue@@UAEXPAVDebugInfoWriteStream@@@Z 0805699e f   debugInfo.obj
 0001:000559bc       ??0ConstantOopReadValue@@QAE@PAVDebugInfoReadStream@@@Z 080569bc f   debugInfo.obj
 0001:000559e4       ?write_on@ConstantOopReadValue@@UAEXPAVDebugInfoWriteStream@@@Z 080569e4 f   debugInfo.obj
 0001:000559f9       ??0MonitorValue@@QAE@PAVScopeValue@@VLocation@@@Z 080569f9 f   debugInfo.obj
 0001:00055a3f       ??0MonitorValue@@QAE@PAVDebugInfoReadStream@@@Z 08056a3f f   debugInfo.obj
 0001:00055a9a       ?write_on@MonitorValue@@QAEXPAVDebugInfoWriteStream@@@Z 08056a9a f   debugInfo.obj
 0001:00055ab8       ?check_phase@DebugInformationRecorder@@AAEXW4Phase@1@@Z 08056ab8 f   debugInfoRec.obj
 0001:00055ac2       ??0DebugInformationRecorder@@QAE@PAVOopRecorder@@@Z 08056ac2 f   debugInfoRec.obj
 0001:00055b23       ?add_safepoint@DebugInformationRecorder@@QAEXHHPAVOopMap@@@Z 08056b23 f   debugInfoRec.obj
 0001:00055bb2       ?serialize_monitor_values@DebugInformationRecorder@@AAEHPAV?$GrowableArray@PAVMonitorValue@@@@@Z 08056bb2 f   debugInfoRec.obj
 0001:00055bf9       ?serialize_scope_values@DebugInformationRecorder@@AAEHPAV?$GrowableArray@PAVScopeValue@@@@@Z 08056bf9 f   debugInfoRec.obj
 0001:00055c40       ?describe_scope@DebugInformationRecorder@@QAEXPAVciMethod@@HPAVDebugToken@@11@Z 08056c40 f   debugInfoRec.obj
 0001:00055ce0       ?create_scope_values@DebugInformationRecorder@@QAEPAVDebugToken@@PAV?$GrowableArray@PAVScopeValue@@@@@Z 08056ce0 f   debugInfoRec.obj
 0001:00055cf9       ?create_monitor_values@DebugInformationRecorder@@QAEPAVDebugToken@@PAV?$GrowableArray@PAVMonitorValue@@@@@Z 08056cf9 f   debugInfoRec.obj
 0001:00055d12       ?add_dependent@DebugInformationRecorder@@QAEXPAVciInstanceKlass@@PAVciMethod@@@Z 08056d12 f   debugInfoRec.obj
 0001:00055d94       ?append_handle@DebugInformationRecorder@@QAEHPAV_jobject@@@Z 08056d94 f   debugInfoRec.obj
 0001:00055da3       ?data_size@DebugInformationRecorder@@QAEHXZ 08056da3 f   debugInfoRec.obj
 0001:00055db5       ?pcs_size@DebugInformationRecorder@@QAEHXZ 08056db5 f   debugInfoRec.obj
 0001:00055dc7       ?copy_to@DebugInformationRecorder@@QAEXPAVnmethod@@@Z 08056dc7 f   debugInfoRec.obj
 0001:00055e2e       ??0IsAliveClosure@DefNewGeneration@@QAE@PAVGeneration@@@Z 08056e2e f   defNewGeneration.obj
 0001:00055e40       ?do_object_b@IsAliveClosure@DefNewGeneration@@UAEHPAVoopDesc@@@Z 08056e40 f   defNewGeneration.obj
 0001:00055e6a       ??0KeepAliveClosure@DefNewGeneration@@QAE@PAVScanWeakRefClosure@@@Z 08056e6a f   defNewGeneration.obj
 0001:00055e8f       ?do_oop@KeepAliveClosure@DefNewGeneration@@UAEXPAPAVoopDesc@@@Z 08056e8f f   defNewGeneration.obj
 0001:00055ec8       ?do_oop@ScanWeakRefClosure@@UAEXPAPAVoopDesc@@@Z 08056ec8 f i defNewGeneration.obj
 0001:00055f04       ??0FastKeepAliveClosure@DefNewGeneration@@QAE@PAV1@PAVScanWeakRefClosure@@@Z 08056f04 f   defNewGeneration.obj
 0001:00055f2c       ?do_oop@FastKeepAliveClosure@DefNewGeneration@@UAEXPAPAVoopDesc@@@Z 08056f2c f   defNewGeneration.obj
 0001:00055f6c       ??0TrainPolicyKeepAliveClosure@DefNewGeneration@@QAE@PAVTrainGeneration@@PAVScanWeakRefClosure@@@Z 08056f6c f   defNewGeneration.obj
 0001:00055f8b       ?do_oop@TrainPolicyKeepAliveClosure@DefNewGeneration@@UAEXPAPAVoopDesc@@@Z 08056f8b f   defNewGeneration.obj
 0001:00055faa       ?weak_ref_barrier_check@TrainGeneration@@QAEXPAPAVoopDesc@@@Z 08056faa f i defNewGeneration.obj
 0001:00056008       ??0EvacuateFollowersClosure@DefNewGeneration@@QAE@PAVGenCollectedHeap@@HPAVScanClosure@@1@Z 08057008 f   defNewGeneration.obj
 0001:0005602f       ?do_void@EvacuateFollowersClosure@DefNewGeneration@@UAEXXZ 0805702f f   defNewGeneration.obj
 0001:00056054       ??0FastEvacuateFollowersClosure@DefNewGeneration@@QAE@PAVGenCollectedHeap@@HPAVFastScanClosure@@1@Z 08057054 f   defNewGeneration.obj
 0001:0005607b       ?do_void@FastEvacuateFollowersClosure@DefNewGeneration@@UAEXXZ 0805707b f   defNewGeneration.obj
 0001:000560a0       ??0ScanClosure@@QAE@PAVDefNewGeneration@@H@Z 080570a0 f   defNewGeneration.obj
 0001:000560d1       ??0OopsInGenClosure@@QAE@PAVGeneration@@@Z 080570d1 f i defNewGeneration.obj
 0001:000560f9       ?do_oop@ScanClosure@@UAEXPAPAVoopDesc@@@Z 080570f9 f i defNewGeneration.obj
 0001:0005613b       ?do_barrier@OopsInGenClosure@@IAEXPAPAVoopDesc@@@Z 0805713b f i defNewGeneration.obj
 0001:00056156       ??0FastScanClosure@@QAE@PAVDefNewGeneration@@H@Z 08057156 f   defNewGeneration.obj
 0001:00056187       ?do_oop@FastScanClosure@@UAEXPAPAVoopDesc@@@Z 08057187 f i defNewGeneration.obj
 0001:000561c9       ??0ScanWeakRefClosure@@QAE@PAVDefNewGeneration@@@Z 080571c9 f   defNewGeneration.obj
 0001:000561ed       ??0DefNewGeneration@@QAE@VReservedSpace@@IHPBD@Z 080571ed f   defNewGeneration.obj
 0001:0005641d       ?should_allocate@DefNewGeneration@@UAEHIHH@Z 0805741d f i defNewGeneration.obj
 0001:00056460       ?short_name@DefNewGeneration@@UBEPBDXZ 08057460 f i defNewGeneration.obj
 0001:00056466       ?first_compaction_space@DefNewGeneration@@UBEPAVCompactibleSpace@@XZ 08057466 f i defNewGeneration.obj
 0001:00056466       ?eden@DefNewGeneration@@QBEPAVEdenSpace@@XZ 08057466 f i defNewGeneration.obj
 0001:0005646d       ?allocate@DefNewGeneration@@UAEPAVHeapWord@@IHH@Z 0805746d f i defNewGeneration.obj
 0001:000564d3       ?par_allocate@DefNewGeneration@@UAEPAVHeapWord@@IHH@Z 080574d3 f i defNewGeneration.obj
 0001:000564e5       ?gc_prologue@DefNewGeneration@@UAEXH@Z 080574e5 f i defNewGeneration.obj
 0001:000564f4       ?tlab_capacity@DefNewGeneration@@UBEIXZ 080574f4 f i defNewGeneration.obj
 0001:00056501       ?compute_space_boundaries@DefNewGeneration@@IAEXI@Z 08057501 f   defNewGeneration.obj
 0001:0005666b       ?from@DefNewGeneration@@QBEPAVContiguousSpace@@XZ 0805766b f i defNewGeneration.obj
 0001:00056672       ?to@DefNewGeneration@@QBEPAVContiguousSpace@@XZ 08057672 f i defNewGeneration.obj
 0001:00056679       ?swap_spaces@DefNewGeneration@@IAEXXZ 08057679 f   defNewGeneration.obj
 0001:0005671b       ?compute_new_size@DefNewGeneration@@UAEXXZ 0805771b f   defNewGeneration.obj
 0001:0005683b       ?object_iterate_since_last_GC@DefNewGeneration@@UAEXPAVObjectClosure@@@Z 0805783b f   defNewGeneration.obj
 0001:0005684d       ?capacity@DefNewGeneration@@UBEIXZ 0805784d f   defNewGeneration.obj
 0001:00056866       ?used@DefNewGeneration@@UBEIXZ 08057866 f   defNewGeneration.obj
 0001:00056889       ?free@DefNewGeneration@@UBEIXZ 08057889 f   defNewGeneration.obj
 0001:000568ac       ?max_capacity@DefNewGeneration@@UBEIXZ 080578ac f   defNewGeneration.obj
 0001:000568da       ?unsafe_max_alloc_nogc@DefNewGeneration@@UBEIXZ 080578da f   defNewGeneration.obj
 0001:000568da       ?contiguous_available@DefNewGeneration@@UBEIXZ 080578da f   defNewGeneration.obj
 0001:000568e5       ?capacity_before_gc@DefNewGeneration@@UBEIXZ 080578e5 f   defNewGeneration.obj
 0001:000568f2       ?top_addr@DefNewGeneration@@UBEPAPAVHeapWord@@XZ 080578f2 f   defNewGeneration.obj
 0001:000568fc       ?end_addr@DefNewGeneration@@UBEPAPAVHeapWord@@XZ 080578fc f   defNewGeneration.obj
 0001:00056906       ?object_iterate@DefNewGeneration@@UAEXPAVObjectClosure@@@Z 08057906 f   defNewGeneration.obj
 0001:0005692b       ?space_iterate@DefNewGeneration@@UAEXPAVSpaceClosure@@H@Z 0805792b f   defNewGeneration.obj
 0001:00056963       ?allocate_from_space@DefNewGeneration@@QAEPAVHeapWord@@I@Z 08057963 f   defNewGeneration.obj
 0001:0005699a       ?expand_and_allocate@DefNewGeneration@@UAEPAVHeapWord@@IHHH@Z 0805799a f   defNewGeneration.obj
 0001:0005699f       ?collect@DefNewGeneration@@UAEXHHIHH@Z 0805799f f   defNewGeneration.obj
 0001:00056bce       ?copy_to_survivor_space@DefNewGeneration@@QAEPAVoopDesc@@PAV2@PAPAV2@@Z 08057bce f   defNewGeneration.obj
 0001:00056c93       ?save_marks@DefNewGeneration@@UAEXXZ 08057c93 f   defNewGeneration.obj
 0001:00056cb8       ?reset_saved_marks@DefNewGeneration@@UAEXXZ 08057cb8 f   defNewGeneration.obj
 0001:00056cdd       ?no_allocs_since_save_marks@DefNewGeneration@@UAEHXZ 08057cdd f   defNewGeneration.obj
 0001:00056cef       ?oop_since_save_marks_iterate_nv@DefNewGeneration@@UAEXPAVUpdateTrainRSWrapParScanWithoutBarrierClosure@@@Z 08057cef f   defNewGeneration.obj
 0001:00056cef       ?oop_since_save_marks_iterate_nv@DefNewGeneration@@UAEXPAVUpdateTrainRSWrapParScanWithBarrierClosure@@@Z 08057cef f   defNewGeneration.obj
 0001:00056cef       ?oop_since_save_marks_iterate_v@DefNewGeneration@@UAEXPAVOopsInGenClosure@@@Z 08057cef f   defNewGeneration.obj
 0001:00056d38       ?oop_since_save_marks_iterate_nv@DefNewGeneration@@UAEXPAVScanClosure@@@Z 08057d38 f   defNewGeneration.obj
 0001:00056d81       ?oop_since_save_marks_iterate_nv@DefNewGeneration@@UAEXPAVFastScanClosure@@@Z 08057d81 f   defNewGeneration.obj
 0001:00056dca       ?oop_since_save_marks_iterate_nv@DefNewGeneration@@UAEXPAVTrainScanClosure@@@Z 08057dca f   defNewGeneration.obj
 0001:00056e13       ?oop_since_save_marks_iterate_nv@DefNewGeneration@@UAEXPAVUpdateTrainRSWrapScanClosure@@@Z 08057e13 f   defNewGeneration.obj
 0001:00056e5c       ?oop_since_save_marks_iterate_nv@DefNewGeneration@@UAEXPAVUpdateTrainRSWrapFastScanClosure@@@Z 08057e5c f   defNewGeneration.obj
 0001:00056ea5       ?oop_since_save_marks_iterate_nv@DefNewGeneration@@UAEXPAVUpdateTrainRSWrapTrainScanClosure@@@Z 08057ea5 f   defNewGeneration.obj
 0001:00056eee       ?oop_since_save_marks_iterate_nv@DefNewGeneration@@UAEXPAVParScanWithBarrierClosure@@@Z 08057eee f   defNewGeneration.obj
 0001:00056f37       ?oop_since_save_marks_iterate_nv@DefNewGeneration@@UAEXPAVParScanWithoutBarrierClosure@@@Z 08057f37 f   defNewGeneration.obj
 0001:00056f80       ?contribute_scratch@DefNewGeneration@@UAEXAAPAUScratchBlock@@PAVGeneration@@I@Z 08057f80 f   defNewGeneration.obj
 0001:00056fac       ?full_promotion_would_succeed@DefNewGeneration@@IAEHXZ 08057fac f   defNewGeneration.obj
 0001:00057021       ?gc_epilogue@DefNewGeneration@@UAEXH@Z 08058021 f   defNewGeneration.obj
 0001:00057070       ?fill_newgen@DefNewGeneration@@IAEXXZ 08058070 f   defNewGeneration.obj
 0001:0005708f       ?update_counters@DefNewGeneration@@UAEXXZ 0805808f f   defNewGeneration.obj
 0001:000570e6       ?update_capacity@CSpaceCounters@@QAEXXZ 080580e6 f i defNewGeneration.obj
 0001:000570fb       ?update_used@CSpaceCounters@@QAEXXZ 080580fb f i defNewGeneration.obj
 0001:00057115       ?print_on@DefNewGeneration@@UBEXPAVoutputStream@@@Z 08058115 f   defNewGeneration.obj
 0001:00057173       ?addr_to_arena_id@DefNewGeneration@@UAEHPAX@Z 08058173 f   defNewGeneration.obj
 0001:000571d3       ?name@DefNewGeneration@@UBEPBDXZ 080581d3 f   defNewGeneration.obj
 0001:000571d9       ?reserved@Generation@@QBE?AVMemRegion@@XZ 080581d9 f i defNewGeneration.obj
 0001:000571d9       ?used_region@Generation@@UBE?AVMemRegion@@XZ 080581d9 f i defNewGeneration.obj
 0001:000571eb       ?allocation_limit_reached@Generation@@UAEPAVHeapWord@@PAVSpace@@PAV2@I@Z 080581eb f i defNewGeneration.obj
 0001:000571f0       ?should_collect@Generation@@UAEHHIHH@Z 080581f0 f i defNewGeneration.obj
 0001:00057212       ?time_of_last_gc@Generation@@UAE_J_J@Z 08058212 f i defNewGeneration.obj
 0001:0005721b       ?update_time_of_last_gc@Generation@@UAEX_J@Z 0805821b f i defNewGeneration.obj
 0001:0005722c       ?counters@Generation@@UAEPAVCollectorCounters@@XZ 0805822c f i defNewGeneration.obj
 0001:00057230       ?age@oopDesc@@QBEHXZ       08058230 f i defNewGeneration.obj
 0001:00057246       ?incr_age@oopDesc@@QAEXXZ  08058246 f i defNewGeneration.obj
 0001:00057271       ?incr_age@markOopDesc@@QBEPAV1@XZ 08058271 f i defNewGeneration.obj
 0001:00057289       ?used@ContiguousSpace@@UBEIXZ 08058289 f i defNewGeneration.obj
 0001:00057290       ?free@ContiguousSpace@@UBEIXZ 08058290 f i defNewGeneration.obj
 0001:00057297       ?used_region@ContiguousSpace@@UBE?AVMemRegion@@XZ 08058297 f i defNewGeneration.obj
 0001:000572ae       ?obj_allocated_since_save_marks@ContiguousSpace@@UBEHQAVoopDesc@@@Z 080582ae f i defNewGeneration.obj
 0001:000572bb       ?reset_after_compaction@ContiguousSpace@@UAEXXZ 080582bb f i defNewGeneration.obj
 0001:000572c2       ?block_is_obj@ContiguousSpace@@UBEHPBVHeapWord@@@Z 080582c2 f i defNewGeneration.obj
 0001:000572d0       ?set_end@EdenSpace@@UAEXPAVHeapWord@@@Z 080582d0 f i defNewGeneration.obj
 0001:000572dd       ??0UnrollBlock@Deoptimization@@QAE@HHHHHPAHPAPAEW4BasicType@@@Z 080582dd f   deoptimization.obj
 0001:0005734d       ??1UnrollBlock@Deoptimization@@QAE@XZ 0805834d f   deoptimization.obj
 0001:0005736d       ?fetch_unroll_info@Deoptimization@@SAPAVUnrollBlock@1@PAVJavaThread@@@Z 0805836d f   deoptimization.obj
 0001:000573cb       ?fetch_unroll_info_helper@Deoptimization@@CAPAVUnrollBlock@1@PAVJavaThread@@@Z 080583cb f   deoptimization.obj
 0001:00057713       ?unpack_frames@Deoptimization@@SA?AW4BasicType@@PAVJavaThread@@H@Z 08058713 f   deoptimization.obj
 0001:00057815       ?deoptimize_dependents@Deoptimization@@SAHXZ 08058815 f   deoptimization.obj
 0001:0005781d       ?create_vframeArray@Deoptimization@@SAPAVvframeArray@@PAVJavaThread@@Vframe@@PAVRegisterMap@@@Z 0805881d f   deoptimization.obj
 0001:0005797a       ?deoptimize@Deoptimization@@SAXPAVJavaThread@@Vframe@@1PAVRegisterMap@@@Z 0805897a f   deoptimization.obj
 0001:00057a22       ?deoptimize_frame@Deoptimization@@SAXPAVJavaThread@@PAH@Z 08058a22 f   deoptimization.obj
 0001:00057af9       ?popframe_preserve_args@Deoptimization@@SAXPAVJavaThread@@HPAX@Z 08058af9 f   deoptimization.obj
 0001:00057b0b       ?append@?$GrowableArray@PAVdeoptimizedVFrame@@@@QAEXQAVdeoptimizedVFrame@@@Z 08058b0b f i deoptimization.obj
 0001:00057b0b       ?append@?$GrowableArray@W4RootType@CollectRootOopsClosure@@@@QAEXW4RootType@CollectRootOopsClosure@@@Z 08058b0b f i deoptimization.obj
 0001:00057b0b       ?append@?$GrowableArray@PAVBlockBegin@@@@QAEXQAVBlockBegin@@@Z 08058b0b f i deoptimization.obj
 0001:00057b0b       ?append@?$GrowableArray@PAVoopDesc@@@@QAEXQAVoopDesc@@@Z 08058b0b f i deoptimization.obj
 0001:00057b2d       ?add_entry@ExceptionRangeTable@@AAEXVExceptionRangeEntry@@@Z 08058b2d f   exceptionHandlerTable.obj
 0001:00057b85       ??0ExceptionRangeEntry@@QAE@HHHHHH@Z 08058b85 f   exceptionHandlerTable.obj
 0001:00057bb1       ??0ExceptionRangeTable@@QAE@H@Z 08058bb1 f   exceptionHandlerTable.obj
 0001:00057c0e       ?compute_modified_at_call_pco@ExceptionRangeTable@@SAHHH@Z 08058c0e f   exceptionHandlerTable.obj
 0001:00057c20       ?add_entry@ExceptionRangeTable@@QAEXHHHHHH@Z 08058c20 f   exceptionHandlerTable.obj
 0001:00057c5f       ?entry_at@ExceptionRangeTable@@QAEPAVExceptionRangeEntry@@H@Z 08058c5f f   exceptionHandlerTable.obj
 0001:00057c6e       ?entry_index_for_pco@ExceptionRangeTable@@QAEHH@Z 08058c6e f   exceptionHandlerTable.obj
 0001:00057cb1       ?special_exception@Exceptions@@CAHPAVThread@@PBDHVHandle@@@Z 08058cb1 f   exceptions.obj
 0001:00057d08       ?special_exception@Exceptions@@CAHPAVThread@@PBDHVsymbolHandle@@1@Z 08058d08 f   exceptions.obj
 0001:00057d62       ?_throw_oop@Exceptions@@SAXPAVThread@@PBDHPAVoopDesc@@@Z 08058d62 f   exceptions.obj
 0001:00057d95       ?_throw@Exceptions@@SAXPAVThread@@PBDHVHandle@@@Z 08058d95 f   exceptions.obj
 0001:00057ddd       ?_throw_msg@Exceptions@@SAXPAVThread@@PBDHVsymbolHandle@@1VHandle@@3@Z 08058ddd f   exceptions.obj
 0001:00057e28       ?_throw_msg@Exceptions@@SAXPAVThread@@PBDHPAVsymbolOopDesc@@1@Z 08058e28 f   exceptions.obj
 0001:00057e64       ?_throw_msg@Exceptions@@SAXPAVThread@@PBDHVsymbolHandle@@1@Z 08058e64 f   exceptions.obj
 0001:00057e86       ?_throw_args@Exceptions@@SAXPAVThread@@PBDHVsymbolHandle@@2PAVJavaCallArguments@@@Z 08058e86 f   exceptions.obj
 0001:00057ed1       ?throw_stack_overflow_exception@Exceptions@@SAXPAVThread@@PBDH@Z 08058ed1 f   exceptions.obj
 0001:00057f05       ?fthrow@Exceptions@@SAXPAVThread@@PBDHVsymbolHandle@@1ZZ 08058f05 f   exceptions.obj
 0001:00057f48       ?new_exception@Exceptions@@SA?AVHandle@@PAVThread@@VsymbolHandle@@1PAVJavaCallArguments@@V2@3@Z 08058f48 f   exceptions.obj
 0001:0005801e       ?set_receiver@JavaCallArguments@@QAEXVHandle@@@Z 0805901e f i exceptions.obj
 0001:00058040       ?new_exception@Exceptions@@SA?AVHandle@@PAVThread@@VsymbolHandle@@PBDV2@3@Z 08059040 f   exceptions.obj
 0001:000580fb       ?initialize@JavaCallArguments@@AAEXXZ 080590fb f i exceptions.obj
 0001:00058117       ?push_oop@JavaCallArguments@@QAEXVHandle@@@Z 08059117 f i exceptions.obj
 0001:00058139       ?new_exception@Exceptions@@SA?AVHandle@@PAVThread@@PAVsymbolOopDesc@@PBD@Z 08059139 f   exceptions.obj
 0001:0005817a       ??0ExceptionMark@@QAE@AAPAVThread@@@Z 0805917a f   exceptions.obj
 0001:000581c9       ??1ExceptionMark@@QAE@XZ   080591c9 f   exceptions.obj
 0001:00058227       ?adjust@ExtendedPC@@QAE?AV1@PAE00@Z 08059227 f   extendedPC_i486.obj
 0001:00058242       ?caller_scope@ExceptionScope@@QBEPAV1@XZ 08059242 f   extendedPC_i486.obj
 0001:00058242       ?pop_scope@ExceptionScope@@QAEPAV1@XZ 08059242 f   extendedPC_i486.obj
 0001:00058242       ?contained_pc@ExtendedPC@@QAEPAEXZ 08059242 f   extendedPC_i486.obj
 0001:00058242       ?must_bailout@LIR_Emitter@@QBEHXZ 08059242 f   extendedPC_i486.obj
 0001:00058245       ?loader@fieldDescriptor@@QBEPAVoopDesc@@XZ 08059245 f   fieldDescriptor.obj
 0001:00058254       ?int_initial_value@fieldDescriptor@@QBEHXZ 08059254 f   fieldDescriptor.obj
 0001:00058265       ?long_initial_value@fieldDescriptor@@QBE_JXZ 08059265 f   fieldDescriptor.obj
 0001:0005827e       ?float_initial_value@fieldDescriptor@@QBEMXZ 0805927e f   fieldDescriptor.obj
 0001:0005828f       ?double_initial_value@fieldDescriptor@@QBENXZ 0805928f f   fieldDescriptor.obj
 0001:000582b3       ?string_initial_value@fieldDescriptor@@QBEPAVoopDesc@@PAVThread@@@Z 080592b3 f   fieldDescriptor.obj
 0001:000582cd       ?initialize@fieldDescriptor@@QAEXPAVklassOopDesc@@H@Z 080592cd f   fieldDescriptor.obj
 0001:0005837e       ?skip_optional_size@FieldType@@CAXPAVsymbolOopDesc@@PAH@Z 0805937e f   fieldType.obj
 0001:000583a1       ?basic_type@FieldType@@SA?AW4BasicType@@PAVsymbolOopDesc@@@Z 080593a1 f   fieldType.obj
 0001:0005840b       ?is_valid_array_signature@FieldType@@CAHPAVsymbolOopDesc@@@Z 0805940b f   fieldType.obj
 0001:00058479       ?get_array_info@FieldType@@SA?AW4BasicType@@PAVsymbolOopDesc@@PAHPAPAV3@PAVThread@@@Z 08059479 f   fieldType.obj
 0001:0005856e       ??0ThreadProfiler@@QAE@XZ  0805956e f   fprofiler.obj
 0001:000585e7       ??1ThreadProfiler@@QAE@XZ  080595e7 f   fprofiler.obj
 0001:0005860c       ?entry@ThreadProfiler@@CAHH@Z 0805960c f   fprofiler.obj
 0001:00058620       ??0ThreadProfilerMark@@QAE@W4Region@0@@Z 08059620 f   fprofiler.obj
 0001:00058668       ??1ThreadProfilerMark@@QAE@XZ 08059668 f   fprofiler.obj
 0001:0005867a       ?init@PCRecorder@@SAXXZ    0805967a f   fprofiler.obj
 0001:000586f9       ?record@PCRecorder@@SAXPAE@Z 080596f9 f   fprofiler.obj
 0001:0005871c       ?print@PCRecorder@@SAXXZ   0805971c f   fprofiler.obj
 0001:00058839       ?print_blobs@PCRecorder@@SAXPAVCodeBlob@@@Z 08059839 f   fprofiler.obj
 0001:00058871       ??2ProfilerNode@@SAPAXIPAVThreadProfiler@@@Z 08059871 f   fprofiler.obj
 0001:000588a5       ?interpreted_update@ThreadProfiler@@AAEXPAVmethodOopDesc@@W4TickPosition@@@Z 080598a5 f   fprofiler.obj
 0001:00058950       ?hash@ProfilerNode@@SAHPAVmethodOopDesc@@@Z 08059950 f i fprofiler.obj
 0001:0005896b       ??0interpretedNode@@QAE@PAVmethodOopDesc@@W4TickPosition@@@Z 0805996b f i fprofiler.obj
 0001:0005899b       ?print@ProfilerNode@@UAEXPAVoutputStream@@H@Z 0805999b f i fprofiler.obj
 0001:00058a09       ?print_method_on@ProfilerNode@@UAEXPAVoutputStream@@@Z 08059a09 f i fprofiler.obj
 0001:00058a9f       ??_GcompiledNode@@UAEPAXI@Z 08059a9f f i fprofiler.obj
 0001:00058a9f       ??_GstubNode@@UAEPAXI@Z    08059a9f f i fprofiler.obj
 0001:00058a9f       ??_EstubNode@@UAEPAXI@Z    08059a9f f i fprofiler.obj
 0001:00058a9f       ??_EProfilerNode@@UAEPAXI@Z 08059a9f f i fprofiler.obj
 0001:00058a9f       ??_GvmNode@@UAEPAXI@Z      08059a9f f i fprofiler.obj
 0001:00058a9f       ??_EinterpretedNode@@UAEPAXI@Z 08059a9f f i fprofiler.obj
 0001:00058a9f       ??_EcompiledNode@@UAEPAXI@Z 08059a9f f i fprofiler.obj
 0001:00058a9f       ??_EruntimeStubNode@@UAEPAXI@Z 08059a9f f i fprofiler.obj
 0001:00058a9f       ??_GinterpretedNode@@UAEPAXI@Z 08059a9f f i fprofiler.obj
 0001:00058a9f       ??_Gunknown_compiledNode@@UAEPAXI@Z 08059a9f f i fprofiler.obj
 0001:00058a9f       ??_GruntimeStubNode@@UAEPAXI@Z 08059a9f f i fprofiler.obj
 0001:00058a9f       ??_EvmNode@@UAEPAXI@Z      08059a9f f i fprofiler.obj
 0001:00058a9f       ??_GProfilerNode@@UAEPAXI@Z 08059a9f f i fprofiler.obj
 0001:00058a9f       ??_Eunknown_compiledNode@@UAEPAXI@Z 08059a9f f i fprofiler.obj
 0001:00058a9f       ??_EadapterNode@@UAEPAXI@Z 08059a9f f i fprofiler.obj
 0001:00058a9f       ??_GadapterNode@@UAEPAXI@Z 08059a9f f i fprofiler.obj
 0001:00058abb       ??1ProfilerNode@@UAE@XZ    08059abb f i fprofiler.obj
 0001:00058acf       ?compiled_update@ThreadProfiler@@AAEXPAVmethodOopDesc@@W4TickPosition@@@Z 08059acf f   fprofiler.obj
 0001:00058b7a       ??0compiledNode@@QAE@PAVmethodOopDesc@@W4TickPosition@@@Z 08059b7a f i fprofiler.obj
 0001:00058baa       ?compiled_match@compiledNode@@UBEHPAVmethodOopDesc@@@Z 08059baa f i fprofiler.obj
 0001:00058baa       ?interpreted_match@interpretedNode@@UBEHPAVmethodOopDesc@@@Z 08059baa f i fprofiler.obj
 0001:00058bb9       ?method@compiledNode@@UAEPAVmethodOopDesc@@XZ 08059bb9 f i fprofiler.obj
 0001:00058bb9       ?info@ClassCastExceptionStub@@UBEPAVCodeEmitInfo@@XZ 08059bb9 f i fprofiler.obj
 0001:00058bb9       ?info@NewInstanceStub@@UBEPAVCodeEmitInfo@@XZ 08059bb9 f i fprofiler.obj
 0001:00058bb9       ?method@interpretedNode@@UAEPAVmethodOopDesc@@XZ 08059bb9 f i fprofiler.obj
 0001:00058bb9       ?method@stubNode@@UAEPAVmethodOopDesc@@XZ 08059bb9 f i fprofiler.obj
 0001:00058bbd       ?print_method_on@interpretedNode@@UAEXPAVoutputStream@@@Z 08059bbd f i fprofiler.obj
 0001:00058bbd       ?print_method_on@compiledNode@@UAEXPAVoutputStream@@@Z 08059bbd f i fprofiler.obj
 0001:00058bc9       ?stub_update@ThreadProfiler@@AAEXPAVmethodOopDesc@@PBDW4TickPosition@@@Z 08059bc9 f   fprofiler.obj
 0001:00058c7d       ??0stubNode@@QAE@PAVmethodOopDesc@@PBDW4TickPosition@@@Z 08059c7d f i fprofiler.obj
 0001:00058cb4       ?stub_match@stubNode@@UBEHPAVmethodOopDesc@@PBD@Z 08059cb4 f i fprofiler.obj
 0001:00058cd0       ?oops_do@interpretedNode@@UAEXPAVOopClosure@@@Z 08059cd0 f i fprofiler.obj
 0001:00058cd0       ?oops_do@compiledNode@@UAEXPAVOopClosure@@@Z 08059cd0 f i fprofiler.obj
 0001:00058cd0       ?oops_do@stubNode@@UAEXPAVOopClosure@@@Z 08059cd0 f i fprofiler.obj
 0001:00058ce1       ?print_method_on@stubNode@@UAEXPAVoutputStream@@@Z 08059ce1 f i fprofiler.obj
 0001:00058d0a       ?adapter_update@ThreadProfiler@@AAEXW4TickPosition@@@Z 08059d0a f   fprofiler.obj
 0001:00058d94       ??0adapterNode@@QAE@W4TickPosition@@@Z 08059d94 f i fprofiler.obj
 0001:00058dbd       ?print_method_on@adapterNode@@UAEXPAVoutputStream@@@Z 08059dbd f i fprofiler.obj
 0001:00058dd6       ?runtime_stub_update@ThreadProfiler@@AAEXPBVCodeBlob@@PBDW4TickPosition@@@Z 08059dd6 f   fprofiler.obj
 0001:00058e71       ??0runtimeStubNode@@QAE@PBVCodeBlob@@PBDW4TickPosition@@@Z 08059e71 f i fprofiler.obj
 0001:00058ea8       ?runtimeStub_match@runtimeStubNode@@UBEHPBVCodeBlob@@PBD@Z 08059ea8 f i fprofiler.obj
 0001:00058ed2       ?print_method_on@runtimeStubNode@@UAEXPAVoutputStream@@@Z 08059ed2 f i fprofiler.obj
 0001:00058f09       ?unknown_compiled_update@ThreadProfiler@@AAEXPBVCodeBlob@@W4TickPosition@@@Z 08059f09 f   fprofiler.obj
 0001:00058f9d       ??0unknown_compiledNode@@QAE@PBVCodeBlob@@W4TickPosition@@@Z 08059f9d f i fprofiler.obj
 0001:00058fee       ?unknown_compiled_match@unknown_compiledNode@@UBEHPBVCodeBlob@@@Z 08059fee f i fprofiler.obj
 0001:00059068       ?print_method_on@unknown_compiledNode@@UAEXPAVoutputStream@@@Z 0805a068 f i fprofiler.obj
 0001:0005907f       ?vm_update@ThreadProfiler@@AAEXPBDW4TickPosition@@@Z 0805a07f f   fprofiler.obj
 0001:00059162       ??0vmNode@@QAE@PBDW4TickPosition@@@Z 0805a162 f i fprofiler.obj
 0001:00059192       ?hash@vmNode@@SAHPBD@Z     0805a192 f i fprofiler.obj
 0001:000591b2       ?print@adapterNode@@UAEXPAVoutputStream@@H@Z 0805a1b2 f i fprofiler.obj
 0001:000591b2       ?print@vmNode@@UAEXPAVoutputStream@@H@Z 0805a1b2 f i fprofiler.obj
 0001:000591b2       ?print@compiledNode@@UAEXPAVoutputStream@@H@Z 0805a1b2 f i fprofiler.obj
 0001:000591b2       ?print@runtimeStubNode@@UAEXPAVoutputStream@@H@Z 0805a1b2 f i fprofiler.obj
 0001:000591b2       ?print@unknown_compiledNode@@UAEXPAVoutputStream@@H@Z 0805a1b2 f i fprofiler.obj
 0001:000591b2       ?print@interpretedNode@@UAEXPAVoutputStream@@H@Z 0805a1b2 f i fprofiler.obj
 0001:000591b2       ?print@stubNode@@UAEXPAVoutputStream@@H@Z 0805a1b2 f i fprofiler.obj
 0001:000591c2       ?print_method_on@vmNode@@UAEXPAVoutputStream@@@Z 0805a1c2 f i fprofiler.obj
 0001:000591e5       ?record_vm_operation@FlatProfiler@@CAXXZ 0805a1e5 f   fprofiler.obj
 0001:0005920e       ?record_vm_tick@FlatProfiler@@CAXXZ 0805a20e f   fprofiler.obj
 0001:00059276       ?record_thread_ticks@FlatProfiler@@CAXXZ 0805a276 f   fprofiler.obj
 0001:00059395       ?task@FlatProfilerTask@@UAEXXZ 0805a395 f   fprofiler.obj
 0001:000593bd       ?record_interpreted_tick@ThreadProfiler@@AAEXVframe@@W4TickPosition@@PAH@Z 0805a3bd f   fprofiler.obj
 0001:00059434       ?is_valid_method@@YAHPAVmethodOopDesc@@@Z 0805a434 f i fprofiler.obj
 0001:00059471       ?record_compiled_tick@ThreadProfiler@@AAEXVframe@@W4TickPosition@@@Z 0805a471 f   fprofiler.obj
 0001:00059546       ?record_tick_for_running_frame@ThreadProfiler@@AAEXPAVJavaThread@@Vframe@@@Z 0805a546 f   fprofiler.obj
 0001:00059609       ?record_tick_for_calling_frame@ThreadProfiler@@AAEXPAVJavaThread@@Vframe@@@Z 0805a609 f   fprofiler.obj
 0001:000596ab       ?record_tick@ThreadProfiler@@AAEHPAVJavaThread@@@Z 0805a6ab f   fprofiler.obj
 0001:0005982f       ?engage@ThreadProfiler@@QAEXXZ 0805a82f f   fprofiler.obj
 0001:0005983e       ?disengage@ThreadProfiler@@QAEXXZ 0805a83e f   fprofiler.obj
 0001:0005984a       ?initialize@ThreadProfiler@@AAEXXZ 0805a84a f   fprofiler.obj
 0001:000598a4       ?reset@ThreadProfiler@@QAEXXZ 0805a8a4 f   fprofiler.obj
 0001:000598e3       ?allocate_table@FlatProfiler@@CAXXZ 0805a8e3 f   fprofiler.obj
 0001:00059981       ?engage@FlatProfiler@@SAXPAVJavaThread@@H@Z 0805a981 f   fprofiler.obj
 0001:00059a5a       ?disengage@FlatProfiler@@SAXXZ 0805aa5a f   fprofiler.obj
 0001:00059adf       ?is_active@FlatProfiler@@SAHXZ 0805aadf f   fprofiler.obj
 0001:00059aeb       ?print_byte_code_statistics@FlatProfiler@@CAXXZ 0805aaeb f   fprofiler.obj
 0001:00059b6d       ?print_ticks@@YAXPBDHH@Z   0805ab6d f   fprofiler.obj
 0001:00059bcd       ?print@ThreadProfiler@@QAEXPBD@Z 0805abcd f   fprofiler.obj
 0001:0005a0e0       ?unknown_ticks@ThreadProfiler@@AAEHXZ 0805b0e0 f i fprofiler.obj
 0001:0005a0f1       ?print_total@ProfilerNode@@SAXPAVoutputStream@@PAVtick_counter@@HPBD@Z 0805b0f1 f i fprofiler.obj
 0001:0005a15f       ?compare@ProfilerNode@@SAHPAPAV1@0@Z 0805b15f f i fprofiler.obj
 0001:0005a17c       ?print_title@interpretedNode@@SAXPAVoutputStream@@@Z 0805b17c f i fprofiler.obj
 0001:0005a1a5       ?print_title@ProfilerNode@@SAXPAVoutputStream@@@Z 0805b1a5 f i fprofiler.obj
 0001:0005a1df       ?print_title@compiledNode@@SAXPAVoutputStream@@@Z 0805b1df f i fprofiler.obj
 0001:0005a208       ?print_title@stubNode@@SAXPAVoutputStream@@@Z 0805b208 f i fprofiler.obj
 0001:0005a231       ?print_title@runtimeStubNode@@SAXPAVoutputStream@@@Z 0805b231 f i fprofiler.obj
 0001:0005a25a       ?print@FlatProfiler@@SAXH@Z 0805b25a f   fprofiler.obj
 0001:0005a401       ?non_method_ticks@FlatProfiler@@CAHXZ 0805b401 f i fprofiler.obj
 0001:0005a433       ?print_header@IntervalData@@SAXPAVoutputStream@@@Z 0805b433 f   fprofiler.obj
 0001:0005a444       ?print_data@IntervalData@@QAEXPAVoutputStream@@@Z 0805b444 f   fprofiler.obj
 0001:0005a463       ?interval_record_thread@FlatProfiler@@CAXPAVThreadProfiler@@@Z 0805b463 f   fprofiler.obj
 0001:0005a4f0       ?total@IntervalData@@QAEHXZ 0805b4f0 f i fprofiler.obj
 0001:0005a4fc       ?interval_print@FlatProfiler@@CAXXZ 0805b4fc f   fprofiler.obj
 0001:0005a584       ?interval_reset@FlatProfiler@@CAXXZ 0805b584 f   fprofiler.obj
 0001:0005a5a7       ?oops_do@ThreadProfiler@@QAEXPAVOopClosure@@@Z 0805b5a7 f   fprofiler.obj
 0001:0005a5e5       ?oops_do@FlatProfiler@@SAXPAVOopClosure@@@Z 0805b5e5 f   fprofiler.obj
 0001:0005a61d       ??0RegisterMap@@QAE@PAVJavaThread@@H@Z 0805b61d f   frame.obj
 0001:0005a64d       ??0RegisterMap@@QAE@PBV0@@Z 0805b64d f   frame.obj
 0001:0005a6bd       ?clear@RegisterMap@@QAEXPAH@Z 0805b6bd f   frame.obj
 0001:0005a6db       ?is_first_frame@frame@@QBEHXZ 0805b6db f   frame.obj
 0001:0005a6fb       ?is_native_frame@frame@@QBEHXZ 0805b6fb f   frame.obj
 0001:0005a71a       ?is_java_frame@frame@@QBEHXZ 0805b71a f   frame.obj
 0001:0005a745       ?is_deoptimized_frame@frame@@QBEHXZ 0805b745 f   frame.obj
 0001:0005a772       ?is_compiled_frame@frame@@QBEHXZ 0805b772 f   frame.obj
 0001:0005a791       ?is_c2runtime_frame@frame@@QBEHXZ 0805b791 f   frame.obj
 0001:0005a7b0       ?is_osr_adapter_frame@frame@@QBEHXZ 0805b7b0 f   frame.obj
 0001:0005a7cc       ?is_glue_frame@frame@@QBEHXZ 0805b7cc f   frame.obj
 0001:0005a808       ?entry_frame_is_first@frame@@QBEHXZ 0805b808 f   frame.obj
 0001:0005a819       ?should_be_deoptimized@frame@@QBEHXZ 0805b819 f   frame.obj
 0001:0005a838       ?real_sender@frame@@QBE?AV1@PAVRegisterMap@@@Z 0805b838 f   frame.obj
 0001:0005a881       ?profile_find_Java_sender_frame@frame@@QAE?AV1@PAVJavaThread@@@Z 0805b881 f   frame.obj
 0001:0005a93d       ?interpreter_frame_set_locals@frame@@QAEXPAH@Z 0805b93d f   frame.obj
 0001:0005a94a       ?interpreter_frame_method@frame@@QBEPAVmethodOopDesc@@XZ 0805b94a f   frame.obj
 0001:0005a951       ?interpreter_frame_set_method@frame@@QAEXPAVmethodOopDesc@@@Z 0805b951 f   frame.obj
 0001:0005a95e       ?interpreter_frame_set_bcx@frame@@QAEXH@Z 0805b95e f   frame.obj
 0001:0005a96b       ?interpreter_frame_bci@frame@@QBEHXZ 0805b96b f   frame.obj
 0001:0005a98a       ?interpreter_frame_bcp@frame@@QBEPAEXZ 0805b98a f   frame.obj
 0001:0005a9a9       ?interpreter_frame_set_bcp@frame@@QAEXPAE@Z 0805b9a9 f   frame.obj
 0001:0005a9b5       ?next_monitor_in_interpreter_frame@frame@@QBEPAVBasicObjectLock@@PAV2@@Z 0805b9b5 f   frame.obj
 0001:0005a9bf       ?previous_monitor_in_interpreter_frame@frame@@QBEPAVBasicObjectLock@@PAV2@@Z 0805b9bf f   frame.obj
 0001:0005a9c9       ?interpreter_callee_receiver_addr@frame@@QAEPAPAVoopDesc@@VsymbolHandle@@@Z 0805b9c9 f   frame.obj
 0001:0005a9f8       ?oops_interpreted_do@frame@@AAEXPAVOopClosure@@PBVRegisterMap@@@Z 0805b9f8 f   frame.obj
 0001:0005aba3       ?offset_do@InterpreterFrameClosure@@UAEXH@Z 0805bba3 f i frame.obj
 0001:0005abf1       ?oops_interpreted_arguments_do@frame@@QAEXVsymbolHandle@@HPAVOopClosure@@@Z 0805bbf1 f   frame.obj
 0001:0005ac15       ??0ArgumentOopFinder@@QAE@VsymbolHandle@@HPAVframe@@PAVOopClosure@@@Z 0805bc15 f i frame.obj
 0001:0005ac8a       ?set@ArgumentOopFinder@@EAEXHW4BasicType@@@Z 0805bc8a f i frame.obj
 0001:0005aca7       ?oop_offset_do@ArgumentOopFinder@@AAEXXZ 0805bca7 f i frame.obj
 0001:0005acbf       ?oops_do@ArgumentOopFinder@@QAEXXZ 0805bcbf f i frame.obj
 0001:0005acd9       ?oops_code_blob_do@frame@@AAEXPAVOopClosure@@PBVRegisterMap@@@Z 0805bcd9 f   frame.obj
 0001:0005ad39       ?nmethods_code_blob_do@frame@@AAEXXZ 0805bd39 f   frame.obj
 0001:0005ad64       ?oops_compiled_arguments_do@frame@@QAEXVsymbolHandle@@HPBVRegisterMap@@PAVOopClosure@@@Z 0805bd64 f   frame.obj
 0001:0005ad78       ?oopmapreg_to_location@frame@@QBEPAPAVoopDesc@@W4Name@VMReg@@PBVRegisterMap@@@Z 0805bd78 f   frame.obj
 0001:0005add0       ?oops_entry_do@frame@@AAEXPAVOopClosure@@PBVRegisterMap@@@Z 0805bdd0 f   frame.obj
 0001:0005ae6f       ??0EntryFrameOopFinder@@QAE@PAVframe@@VsymbolHandle@@H@Z 0805be6f f i frame.obj
 0001:0005aed9       ?set@EntryFrameOopFinder@@EAEXHW4BasicType@@@Z 0805bed9 f i frame.obj
 0001:0005aeff       ?oop_at_offset_do@EntryFrameOopFinder@@AAEXH@Z 0805beff f i frame.obj
 0001:0005af1a       ?arguments_do@EntryFrameOopFinder@@QAEXPAVOopClosure@@@Z 0805bf1a f i frame.obj
 0001:0005af3f       ?oops_do@frame@@QAEXPAVOopClosure@@PAVRegisterMap@@@Z 0805bf3f f   frame.obj
 0001:0005afb5       ?nmethods_do@frame@@QAEXXZ 0805bfb5 f   frame.obj
 0001:0005afed       ?gc_prologue@frame@@QAEXXZ 0805bfed f   frame.obj
 0001:0005b00a       ?gc_epilogue@frame@@QAEXXZ 0805c00a f   frame.obj
 0001:0005b02e       ??0StackFrameStream@@QAE@PAVJavaThread@@H@Z 0805c02e f   frame.obj
 0001:0005b08a       ?contains@StubRoutines@@SAHPAE@Z 0805c08a f i frame.obj
 0001:0005b0c1       ??0ArgumentSizeComputer@@QAE@VsymbolHandle@@@Z 0805c0c1 f i frame.obj
 0001:0005b0eb       ?set@ArgumentSizeComputer@@EAEXHW4BasicType@@@Z 0805c0eb f i frame.obj
 0001:0005b0f5       ?get_top_frame@JavaThread@@QAEHPAVframe@@PAVExtendedPC@@H@Z 0805c0f5 f   frame_i486.obj
 0001:0005b154       ?profile_top_frame@JavaThread@@QAEHPAVframe@@PAVExtendedPC@@@Z 0805c154 f   frame_i486.obj
 0001:0005b199       ?profile_last_Java_frame@JavaThread@@QAEHPAVframe@@PAVExtendedPC@@@Z 0805c199 f   frame_i486.obj
 0001:0005b1de       ?safe_for_sender@frame@@QAEHPAVJavaThread@@@Z 0805c1de f   frame_i486.obj
 0001:0005b215       ?patch_pc@frame@@QAEXPAVThread@@PAE@Z 0805c215 f   frame_i486.obj
 0001:0005b224       ?set_sender_pc@frame@@QAEXPAE@Z 0805c224 f   frame_i486.obj
 0001:0005b231       ?is_interpreted_frame@frame@@QBEHXZ 0805c231 f   frame_i486.obj
 0001:0005b250       ?is_entry_frame@frame@@QBEHXZ 0805c250 f   frame_i486.obj
 0001:0005b25f       ?interpreter_frame_sender_sp@frame@@QBEPAHXZ 0805c25f f   frame_i486.obj
 0001:0005b266       ?set_interpreter_frame_sender_sp@frame@@QAEXPAH@Z 0805c266 f   frame_i486.obj
 0001:0005b273       ?interpreter_frame_monitor_begin@frame@@QBEPAVBasicObjectLock@@XZ 0805c273 f   frame_i486.obj
 0001:0005b27a       ?interpreter_frame_monitor_end@frame@@QBEPAVBasicObjectLock@@XZ 0805c27a f   frame_i486.obj
 0001:0005b281       ?interpreter_frame_set_monitor_end@frame@@QAEXPAVBasicObjectLock@@@Z 0805c281 f   frame_i486.obj
 0001:0005b28e       ?sender_for_raw_compiled_frame@frame@@QBE?AV1@PAVRegisterMap@@@Z 0805c28e f   frame_i486.obj
 0001:0005b2c2       ?sender_for_compiled_frame@frame@@QBE?AV1@PAVRegisterMap@@PAVCodeBlob@@H@Z 0805c2c2 f   frame_i486.obj
 0001:0005b358       ?sender@frame@@QBE?AV1@PAVRegisterMap@@PAVCodeBlob@@@Z 0805c358 f   frame_i486.obj
 0001:0005b414       ?sender_for_entry_frame@frame@@ABE?AV1@PAVRegisterMap@@@Z 0805c414 f i frame_i486.obj
 0001:0005b45f       ?sender_for_interpreter_frame@frame@@ABE?AV1@PAVRegisterMap@@@Z 0805c45f f i frame_i486.obj
 0001:0005b48c       ?sender_for_deoptimized_frame@frame@@ABE?AV1@PAVRegisterMap@@PAVCodeBlob@@@Z 0805c48c f i frame_i486.obj
 0001:0005b524       ?is_interpreted_frame_valid@frame@@QBEHXZ 0805c524 f   frame_i486.obj
 0001:0005b559       ?set_sender_pc_for_unpack@frame@@QAEXV1@H@Z 0805c559 f   frame_i486.obj
 0001:0005b5a6       ?patch_for_deoptimization@frame@@QAEXPAVJavaThread@@V1@PAE@Z 0805c5a6 f   frame_i486.obj
 0001:0005b5e3       ?frameless_stub_return_addr@frame@@QAEPAEXZ 0805c5e3 f   frame_i486.obj
 0001:0005b5e9       ?patch_frameless_stub_return_addr@frame@@QAEXPAVThread@@PAE@Z 0805c5e9 f   frame_i486.obj
 0001:0005b5f5       ??0FreeList@@QAE@XZ        0805c5f5 f   freeList.obj
 0001:0005b61d       ?reset@FreeList@@QAEXI@Z   0805c61d f   freeList.obj
 0001:0005b631       ?init_statistics@FreeList@@IAEXXZ 0805c631 f   freeList.obj
 0001:0005b639       ?getChunkAtHead@FreeList@@QAEPAVFreeChunk@@XZ 0805c639 f   freeList.obj
 0001:0005b660       ?getFirstNChunksFromList@FreeList@@QAEXIPAV1@@Z 0805c660 f   freeList.obj
 0001:0005b6b4       ?removeChunk@FreeList@@QAEXPAVFreeChunk@@@Z 0805c6b4 f   freeList.obj
 0001:0005b736       ?returnChunkAtHead@FreeList@@QAEXPAVFreeChunk@@H@Z 0805c736 f   freeList.obj
 0001:0005b76c       ?returnChunkAtHead@FreeList@@QAEXPAVFreeChunk@@@Z 0805c76c f   freeList.obj
 0001:0005b77a       ?returnChunkAtTail@FreeList@@QAEXPAVFreeChunk@@H@Z 0805c77a f   freeList.obj
 0001:0005b7b0       ?returnChunkAtTail@FreeList@@QAEXPAVFreeChunk@@@Z 0805c7b0 f   freeList.obj
 0001:0005b7be       ?prepend@FreeList@@QAEXPAV1@@Z 0805c7be f   freeList.obj
 0001:0005b806       ??0GSpaceCounters@@QAE@PBD0HIPAVGeneration@@H@Z 0805c806 f   gSpaceCounters.obj
 0001:0005b959       ?take_sample@GenerationUsedHelper@@UAE_JXZ 0805c959 f i gSpaceCounters.obj
 0001:0005b964       ?to_string@GCCause@@SAPBDW4Cause@1@@Z 0805c964 f   gcCause.obj
 0001:0005ba0c       ??0GCPolicyCounters@@QAE@PBD0HH@Z 0805ca0c f   gcPolicyCounters.obj
 0001:0005bacf       ??0GCTask@@IAE@XZ          0805cacf f   gcTaskManager.obj
 0001:0005baec       ?name@GCTask@@UAEPADXZ     0805caec f i gcTaskManager.obj
 0001:0005baf2       ??0GCTask@@IAE@W4kind@Kind@0@@Z 0805caf2 f   gcTaskManager.obj
 0001:0005bb11       ?initialize@GCTask@@IAEXXZ 0805cb11 f   gcTaskManager.obj
 0001:0005bb1a       ?create@GCTaskQueue@@SAPAV1@XZ 0805cb1a f   gcTaskManager.obj
 0001:0005bb33       ?create_on_c_heap@GCTaskQueue@@SAPAV1@XZ 0805cb33 f   gcTaskManager.obj
 0001:0005bb4f       ??0GCTaskQueue@@IAE@H@Z    0805cb4f f   gcTaskManager.obj
 0001:0005bb6a       ?initialize@GCTaskQueue@@IAEXXZ 0805cb6a f   gcTaskManager.obj
 0001:0005bb6a       ?clear_pending_exception@Thread@@QAEXXZ 0805cb6a f   gcTaskManager.obj
 0001:0005bb76       ?enqueue@GCTaskQueue@@QAEXPAVGCTask@@@Z 0805cb76 f   gcTaskManager.obj
 0001:0005bb9c       ?enqueue@GCTaskQueue@@QAEXPAV1@@Z 0805cb9c f   gcTaskManager.obj
 0001:0005bbe5       ?dequeue@GCTaskQueue@@QAEPAVGCTask@@XZ 0805cbe5 f   gcTaskManager.obj
 0001:0005bbea       ?dequeue@GCTaskQueue@@QAEPAVGCTask@@I@Z 0805cbea f   gcTaskManager.obj
 0001:0005bc1f       ?remove@GCTaskQueue@@IAEPAVGCTask@@XZ 0805cc1f f   gcTaskManager.obj
 0001:0005bc3d       ?remove@GCTaskQueue@@IAEPAVGCTask@@PAV2@@Z 0805cc3d f   gcTaskManager.obj
 0001:0005bc7b       ??0GCTaskManager@@IAE@I@Z  0805cc7b f   gcTaskManager.obj
 0001:0005bc93       ?initialize@GCTaskManager@@IAEXXZ 0805cc93 f   gcTaskManager.obj
 0001:0005be1f       ?print_task_time_stamps@GCTaskManager@@QAEXXZ 0805ce1f f   gcTaskManager.obj
 0001:0005be48       ?thread@GCTaskManager@@IAEPAVGCTaskThread@@I@Z 0805ce48 f   gcTaskManager.obj
 0001:0005be55       ?set_thread@GCTaskManager@@IAEXIPAVGCTaskThread@@@Z 0805ce55 f   gcTaskManager.obj
 0001:0005be66       ?add_list@GCTaskManager@@QAEXPAVGCTaskQueue@@@Z 0805ce66 f   gcTaskManager.obj
 0001:0005be9c       ?enqueue@SynchronizedGCTaskQueue@@QAEXPAVGCTaskQueue@@@Z 0805ce9c f i gcTaskManager.obj
 0001:0005bed5       ?get_task@GCTaskManager@@QAEPAVGCTask@@I@Z 0805ced5 f   gcTaskManager.obj
 0001:0005bf6e       ?is_empty@SynchronizedGCTaskQueue@@QBEHXZ 0805cf6e f i gcTaskManager.obj
 0001:0005bfa3       ?dequeue@SynchronizedGCTaskQueue@@QAEPAVGCTask@@XZ 0805cfa3 f i gcTaskManager.obj
 0001:0005bfd3       ?dequeue@SynchronizedGCTaskQueue@@QAEPAVGCTask@@I@Z 0805cfd3 f i gcTaskManager.obj
 0001:0005c00c       ?note_completion@GCTaskManager@@QAEXI@Z 0805d00c f   gcTaskManager.obj
 0001:0005c06e       ?increment_busy_workers@GCTaskManager@@IAEIXZ 0805d06e f   gcTaskManager.obj
 0001:0005c075       ?decrement_busy_workers@GCTaskManager@@IAEIXZ 0805d075 f   gcTaskManager.obj
 0001:0005c07c       ?release_all_resources@GCTaskManager@@QAEXXZ 0805d07c f   gcTaskManager.obj
 0001:0005c09a       ?should_release_resources@GCTaskManager@@QAEHI@Z 0805d09a f   gcTaskManager.obj
 0001:0005c0a6       ?note_release@GCTaskManager@@QAEXI@Z 0805d0a6 f   gcTaskManager.obj
 0001:0005c0b4       ?resource_flag@GCTaskManager@@IAEHI@Z 0805d0b4 f   gcTaskManager.obj
 0001:0005c0c1       ?set_resource_flag@GCTaskManager@@IAEXIH@Z 0805d0c1 f   gcTaskManager.obj
 0001:0005c0d2       ?create_on_c_heap@NoopGCTask@@SAPAV1@XZ 0805d0d2 f   gcTaskManager.obj
 0001:0005c102       ?do_it_internal@BarrierGCTask@@IAEXPAVGCTaskManager@@I@Z 0805d102 f   gcTaskManager.obj
 0001:0005c11f       ?create@WaitForBarrierGCTask@@SAPAV1@XZ 0805d11f f   gcTaskManager.obj
 0001:0005c138       ??0WaitForBarrierGCTask@@IAE@H@Z 0805d138 f   gcTaskManager.obj
 0001:0005c164       ?name@WaitForBarrierGCTask@@UAEPADXZ 0805d164 f i gcTaskManager.obj
 0001:0005c16a       ?destroy@WaitForBarrierGCTask@@SAXPAV1@@Z 0805d16a f   gcTaskManager.obj
 0001:0005c189       ?destruct@WaitForBarrierGCTask@@MAEXXZ 0805d189 f   gcTaskManager.obj
 0001:0005c1a8       ?do_it@WaitForBarrierGCTask@@UAEXPAVGCTaskManager@@I@Z 0805d1a8 f   gcTaskManager.obj
 0001:0005c201       ?wait_for@WaitForBarrierGCTask@@QAEXXZ 0805d201 f   gcTaskManager.obj
 0001:0005c23c       ?reserve@MonitorSupply@@SAPAVMonitor@@XZ 0805d23c f   gcTaskManager.obj
 0001:0005c30b       ?release@MonitorSupply@@SAXPAVMonitor@@@Z 0805d30b f   gcTaskManager.obj
 0001:0005c34f       ??0GCTaskThread@@IAE@PAVGCTaskManager@@II@Z 0805d34f f   gcTaskThread.obj
 0001:0005c3e9       ??_GGCTaskThread@@MAEPAXI@Z 0805d3e9 f i gcTaskThread.obj
 0001:0005c3e9       ??_EGCTaskThread@@MAEPAXI@Z 0805d3e9 f i gcTaskThread.obj
 0001:0005c405       ??1GCTaskThread@@MAE@XZ    0805d405 f   gcTaskThread.obj
 0001:0005c428       ?start@GCTaskThread@@QAEXXZ 0805d428 f   gcTaskThread.obj
 0001:0005c430       ?time_stamp_at@GCTaskThread@@AAEPAVGCTaskTimeStamp@@I@Z 0805d430 f   gcTaskThread.obj
 0001:0005c469       ?print_task_time_stamps@GCTaskThread@@QAEXXZ 0805d469 f   gcTaskThread.obj
 0001:0005c4d2       ?run@GCTaskThread@@UAEXXZ  0805d4d2 f   gcTaskThread.obj
 0001:0005c623       ?compute_adaptive_average@AdaptiveWeightedAverage@@IAEMMM@Z 0805d623 f   gcUtil.obj
 0001:0005c65d       ?sample@AdaptiveWeightedAverage@@QAEXM@Z 0805d65d f   gcUtil.obj
 0001:0005c67c       ?sample@AdaptivePaddedAverage@@QAEXM@Z 0805d67c f   gcUtil.obj
 0001:0005c6dd       ?sample@AdaptivePaddedNoZeroDevAverage@@QAEXM@Z 0805d6dd f   gcUtil.obj
 0001:0005c74d       ??0GenCollectedHeap@@QAE@PAVCollectorPolicy@@@Z 0805d74d f   genCollectedHeap.obj
 0001:0005c79e       ?initialize@GenCollectedHeap@@UAEXXZ 0805d79e f   genCollectedHeap.obj
 0001:0005c99a       ?post_initialize@GenCollectedHeap@@UAEXXZ 0805d99a f   genCollectedHeap.obj
 0001:0005c9a2       ?ref_processing_init@GenCollectedHeap@@UAEXXZ 0805d9a2 f   genCollectedHeap.obj
 0001:0005c9ca       ?capacity@GenCollectedHeap@@UBEIXZ 0805d9ca f   genCollectedHeap.obj
 0001:0005c9f5       ?used@GenCollectedHeap@@UBEIXZ 0805d9f5 f   genCollectedHeap.obj
 0001:0005ca20       ?max_capacity@GenCollectedHeap@@UBEIXZ 0805da20 f   genCollectedHeap.obj
 0001:0005ca4b       ?attempt_allocation@GenCollectedHeap@@IAEPAVHeapWord@@IHHH@Z 0805da4b f   genCollectedHeap.obj
 0001:0005ca9c       ?mem_allocate@GenCollectedHeap@@UAEPAVHeapWord@@IHH@Z 0805da9c f   genCollectedHeap.obj
 0001:0005cab3       ?must_clear_all_soft_refs@GenCollectedHeap@@IAEHXZ 0805dab3 f   genCollectedHeap.obj
 0001:0005cabd       ?do_collection@GenCollectedHeap@@IAEXHHIHHHAAH@Z 0805dabd f   genCollectedHeap.obj
 0001:0005cdb5       ?satisfy_failed_allocation@GenCollectedHeap@@IAEPAVHeapWord@@IHHAAH@Z 0805ddb5 f   genCollectedHeap.obj
 0001:0005cdd0       ?set_par_threads@GenCollectedHeap@@UAEXH@Z 0805ddd0 f   genCollectedHeap.obj
 0001:0005ce03       ?process_strong_roots@GenCollectedHeap@@QAEXHHHW4ClassScanningOption@1@PAVOopsInGenClosure@@1@Z 0805de03 f   genCollectedHeap.obj
 0001:0005cf96       ?do_object@AlwaysTrueClosure@@UAEXPAVoopDesc@@@Z 0805df96 f i genCollectedHeap.obj
 0001:0005cfab       ?do_object_b@AlwaysTrueClosure@@UAEHPAVoopDesc@@@Z 0805dfab f i genCollectedHeap.obj
 0001:0005cfab       ?should_clear_reference@AlwaysClearPolicy@@UAEHPAVoopDesc@@@Z 0805dfab f i genCollectedHeap.obj
 0001:0005cfab       ?oop_is_parsable@Klass@@UBEHPAVoopDesc@@@Z 0805dfab f i genCollectedHeap.obj
 0001:0005cfab       ?do_object_b@PSAlwaysTrueClosure@@UAEHPAVoopDesc@@@Z 0805dfab f i genCollectedHeap.obj
 0001:0005cfb1       ?process_weak_roots@GenCollectedHeap@@QAEXPAVOopClosure@@0@Z 0805dfb1 f   genCollectedHeap.obj
 0001:0005d022       ?oop_since_save_marks_iterate@GenCollectedHeap@@QAEXHPAVOopsInGenClosure@@0@Z 0805e022 f   genCollectedHeap.obj
 0001:0005d078       ?oop_since_save_marks_iterate@GenCollectedHeap@@QAEXHPAVScanClosure@@0@Z 0805e078 f   genCollectedHeap.obj
 0001:0005d0ce       ?oop_since_save_marks_iterate@GenCollectedHeap@@QAEXHPAVFastScanClosure@@0@Z 0805e0ce f   genCollectedHeap.obj
 0001:0005d124       ?no_allocs_since_save_marks@GenCollectedHeap@@QAEHH@Z 0805e124 f   genCollectedHeap.obj
 0001:0005d16b       ?supports_inline_contig_alloc@GenCollectedHeap@@UBEHXZ 0805e16b f   genCollectedHeap.obj
 0001:0005d173       ?top_addr@GenCollectedHeap@@UBEPAPAVHeapWord@@XZ 0805e173 f   genCollectedHeap.obj
 0001:0005d17b       ?end_addr@GenCollectedHeap@@UBEPAPAVHeapWord@@XZ 0805e17b f   genCollectedHeap.obj
 0001:0005d183       ?unsafe_max_alloc@GenCollectedHeap@@UAEIXZ 0805e183 f   genCollectedHeap.obj
 0001:0005d18b       ?collect@GenCollectedHeap@@UAEXW4Cause@GCCause@@@Z 0805e18b f   genCollectedHeap.obj
 0001:0005d1c8       ?collect@GenCollectedHeap@@QAEXW4Cause@GCCause@@H@Z 0805e1c8 f   genCollectedHeap.obj
 0001:0005d1f4       ?collect_locked@GenCollectedHeap@@UAEXW4Cause@GCCause@@@Z 0805e1f4 f   genCollectedHeap.obj
 0001:0005d205       ?collect_locked@GenCollectedHeap@@AAEXW4Cause@GCCause@@H@Z 0805e205 f   genCollectedHeap.obj
 0001:0005d275       ?do_full_collection@GenCollectedHeap@@IAEXHHAAH@Z 0805e275 f   genCollectedHeap.obj
 0001:0005d290       ?is_in@GenCollectedHeap@@UBEHPBX@Z 0805e290 f   genCollectedHeap.obj
 0001:0005d2db       ?oop_iterate@GenCollectedHeap@@UAEXPAVOopClosure@@@Z 0805e2db f   genCollectedHeap.obj
 0001:0005d307       ?oop_iterate@GenCollectedHeap@@UAEXVMemRegion@@PAVOopClosure@@@Z 0805e307 f   genCollectedHeap.obj
 0001:0005d34e       ?object_iterate@GenCollectedHeap@@UAEXPAVObjectClosure@@@Z 0805e34e f   genCollectedHeap.obj
 0001:0005d390       ?object_iterate_since_last_GC@GenCollectedHeap@@UAEXPAVObjectClosure@@@Z 0805e390 f   genCollectedHeap.obj
 0001:0005d3bc       ?space_containing@GenCollectedHeap@@UBEPAVSpace@@PBX@Z 0805e3bc f   genCollectedHeap.obj
 0001:0005d3fc       ?block_start@GenCollectedHeap@@UBEPAVHeapWord@@PBX@Z 0805e3fc f   genCollectedHeap.obj
 0001:0005d466       ?block_size@GenCollectedHeap@@UBEIPBVHeapWord@@@Z 0805e466 f   genCollectedHeap.obj
 0001:0005d4d0       ?block_is_obj@GenCollectedHeap@@UBEHPBVHeapWord@@@Z 0805e4d0 f   genCollectedHeap.obj
 0001:0005d53a       ?supports_tlab_allocation@GenCollectedHeap@@UBEHXZ 0805e53a f   genCollectedHeap.obj
 0001:0005d568       ?tlab_capacity@GenCollectedHeap@@UBEIXZ 0805e568 f   genCollectedHeap.obj
 0001:0005d59e       ?allocate_new_tlab@GenCollectedHeap@@UAEPAVHeapWord@@I@Z 0805e59e f   genCollectedHeap.obj
 0001:0005d5ae       ?gather_scratch@GenCollectedHeap@@QAEPAUScratchBlock@@PAVGeneration@@I@Z 0805e5ae f   genCollectedHeap.obj
 0001:0005d65a       ?large_typearray_limit@GenCollectedHeap@@UAEIXZ 0805e65a f   genCollectedHeap.obj
 0001:0005d68a       ?generation_iterate@GenCollectedHeap@@QAEXPAVGenClosure@1@H@Z 0805e68a f   genCollectedHeap.obj
 0001:0005d6e4       ?space_iterate@GenCollectedHeap@@UAEXPAVSpaceClosure@@@Z 0805e6e4 f   genCollectedHeap.obj
 0001:0005d724       ?save_marks@GenCollectedHeap@@QAEXXZ 0805e724 f   genCollectedHeap.obj
 0001:0005d75c       ?heap@GenCollectedHeap@@SAPAV1@XZ 0805e75c f   genCollectedHeap.obj
 0001:0005d762       ?prepare_for_compaction@GenCollectedHeap@@AAEXXZ 0805e762 f   genCollectedHeap.obj
 0001:0005d7a1       ?print_on@GenCollectedHeap@@UBEXPAVoutputStream@@@Z 0805e7a1 f   genCollectedHeap.obj
 0001:0005d7e3       ?print_perm_heap_change@GenCollectedHeap@@QBEXI@Z 0805e7e3 f   genCollectedHeap.obj
 0001:0005d835       ?addr_to_arena_id@GenCollectedHeap@@UAEHPAX@Z 0805e835 f   genCollectedHeap.obj
 0001:0005d89f       ?gc_prologue@GenCollectedHeap@@MAEXH@Z 0805e89f f   genCollectedHeap.obj
 0001:0005d923       ?do_generation@GenGCPrologueClosure@@UAEXPAVGeneration@@@Z 0805e923 f i genCollectedHeap.obj
 0001:0005d937       ?gc_epilogue@GenCollectedHeap@@MAEXH@Z 0805e937 f   genCollectedHeap.obj
 0001:0005d9dc       ?do_generation@GenGCEpilogueClosure@@UAEXPAVGeneration@@@Z 0805e9dc f i genCollectedHeap.obj
 0001:0005d9f0       ?ensure_parseability@GenCollectedHeap@@UAEXXZ 0805e9f0 f   genCollectedHeap.obj
 0001:0005da25       ?do_generation@GenEnsureParseabilityClosure@@UAEXPAVGeneration@@@Z 0805ea25 f i genCollectedHeap.obj
 0001:0005da34       ?handle_failed_promotion@GenCollectedHeap@@QAEPAVoopDesc@@PAVGeneration@@PAV2@IPAPAV2@@Z 0805ea34 f   genCollectedHeap.obj
 0001:0005daea       ?millis_since_last_gc@GenCollectedHeap@@UAE_JXZ 0805eaea f   genCollectedHeap.obj
 0001:0005db4e       ?do_generation@GenTimeOfLastGCClosure@@UAEXPAVGeneration@@@Z 0805eb4e f i genCollectedHeap.obj
 0001:0005db83       ?do_nmethods@MarkRefsIntoClosure@@UBE?BHXZ 0805eb83 f i genCollectedHeap.obj
 0001:0005db83       ?collector_policy@SharedHeap@@QBEPAVCollectorPolicy@@XZ 0805eb83 f i genCollectedHeap.obj
 0001:0005db87       ?permanent_capacity@SharedHeap@@MBEIXZ 0805eb87 f i genCollectedHeap.obj
 0001:0005db96       ?permanent_used@SharedHeap@@MBEIXZ 0805eb96 f i genCollectedHeap.obj
 0001:0005dba5       ?is_in_permanent@SharedHeap@@MBEHPBX@Z 0805eba5 f i genCollectedHeap.obj
 0001:0005dbcf       ?permanent_mem_allocate@SharedHeap@@MAEPAVHeapWord@@I@Z 0805ebcf f i genCollectedHeap.obj
 0001:0005dbdd       ?permanent_oop_iterate@SharedHeap@@MAEXPAVOopClosure@@@Z 0805ebdd f i genCollectedHeap.obj
 0001:0005dbec       ?permanent_object_iterate@SharedHeap@@MAEXPAVObjectClosure@@@Z 0805ebec f i genCollectedHeap.obj
 0001:0005dbfb       ?read_ref_array@ModRefBarrierSet@@UAEXVMemRegion@@@Z 0805ebfb f i genCollectedHeap.obj
 0001:0005dbfb       ?follow_roots_or_mark_for_unloading@SingletonBlob@@UAEXHAAH@Z 0805ebfb f i genCollectedHeap.obj
 0001:0005dbfb       ?mangle_region@MutableSpace@@QAEXVMemRegion@@@Z 0805ebfb f i genCollectedHeap.obj
 0001:0005dbfb       ?see_tag@xmlStream@@MAEXPBDH@Z 0805ebfb f i genCollectedHeap.obj
 0001:0005dbfb       ?mangle_region@Space@@UAEXVMemRegion@@@Z 0805ebfb f i genCollectedHeap.obj
 0001:0005dbfb       ?read_prim_array@ModRefBarrierSet@@UAEXVMemRegion@@@Z 0805ebfb f i genCollectedHeap.obj
 0001:0005dbfb       ?check_for_non_bad_heap_word_value@CollectedHeap@@MAEXPAVHeapWord@@I@Z 0805ebfb f i genCollectedHeap.obj
 0001:0005dbfb       ?follow_roots_or_mark_for_unloading@BufferBlob@@UAEXHAAH@Z 0805ebfb f i genCollectedHeap.obj
 0001:0005dbfb       ?check_for_non_bad_heap_word_value@GenCollectedHeap@@EAEXPAVHeapWord@@I@Z 0805ebfb f i genCollectedHeap.obj
 0001:0005dbfb       ?follow_roots_or_mark_for_unloading@RuntimeStub@@UAEXHAAH@Z 0805ebfb f i genCollectedHeap.obj
 0001:0005dbfb       ?read_region@ModRefBarrierSet@@UAEXVMemRegion@@@Z 0805ebfb f i genCollectedHeap.obj
 0001:0005dbfb       ?do_it@NoopGCTask@@UAEXPAVGCTaskManager@@I@Z 0805ebfb f i genCollectedHeap.obj
 0001:0005dbfb       ?read_prim_field@ModRefBarrierSet@@UAEXPAVHeapWord@@I@Z 0805ebfb f i genCollectedHeap.obj
 0001:0005dbfb       ?post_initialize@ProfileData@@UAEXPAVBytecodeStream@@PAVmethodDataOopDesc@@@Z 0805ebfb f i genCollectedHeap.obj
 0001:0005dbfb       ?write_prim_array@ModRefBarrierSet@@UAEXVMemRegion@@@Z 0805ebfb f i genCollectedHeap.obj
 0001:0005dbfb       ?check_for_bad_heap_word_value@CollectedHeap@@MAEXPAVHeapWord@@I@Z 0805ebfb f i genCollectedHeap.obj
 0001:0005dbfe       ?name@VM_GenCollectFull@@UBEPBDXZ 0805ebfe f i genCollectedHeap.obj
 0001:0005dc04       ?invoke_at_safepoint@GenMarkSweep@@SAXHPAVReferenceProcessor@@H@Z 0805ec04 f   genMarkSweep.obj
 0001:0005ddb7       ?allocate_stacks@GenMarkSweep@@CAXXZ 0805edb7 f   genMarkSweep.obj
 0001:0005de52       ?deallocate_stacks@GenMarkSweep@@CAXXZ 0805ee52 f   genMarkSweep.obj
 0001:0005de52       ?deallocate_stacks@PSMarkSweep@@CAXXZ 0805ee52 f   genMarkSweep.obj
 0001:0005de95       ?mark_sweep_phase1@GenMarkSweep@@CAXHAAHH@Z 0805ee95 f   genMarkSweep.obj
 0001:0005df7b       ?mark_sweep_phase2@GenMarkSweep@@CAXXZ 0805ef7b f   genMarkSweep.obj
 0001:0005dfe7       ?mark_sweep_phase3@GenMarkSweep@@CAXH@Z 0805efe7 f   genMarkSweep.obj
 0001:0005e0c1       ?do_generation@GenAdjustPointersClosure@@UAEXPAVGeneration@@@Z 0805f0c1 f i genMarkSweep.obj
 0001:0005e0d0       ?mark_sweep_phase4@GenMarkSweep@@CAXXZ 0805f0d0 f   genMarkSweep.obj
 0001:0005e13a       ?do_generation@GenCompactClosure@@UAEXPAVGeneration@@@Z 0805f13a f i genMarkSweep.obj
 0001:0005e149       ?reserved_region@CollectedHeap@@QBE?AVMemRegion@@XZ 0805f149 f i genMarkSweep.obj
 0001:0005e15b       ?update_time_of_last_gc@GenCollectedHeap@@QAEX_J@Z 0805f15b f i genMarkSweep.obj
 0001:0005e1a5       ?do_object@JVMPI_Object_Free@@EAEXPAVoopDesc@@@Z 0805f1a5 f i genMarkSweep.obj
 0001:0005e1bd       ?max_alignment_constraint@GenRemSet@@SAIW4Name@1@@Z 0805f1bd f   genRemSet.obj
 0001:0005e1e6       ?add_delta@RetTableEntry@@QAEXHH@Z 0805f1e6 f   generateOopMap.obj
 0001:0005e221       ?compute_ret_table@RetTable@@QAEXVmethodHandle@@@Z 0805f221 f   generateOopMap.obj
 0001:0005e281       ?dest@BytecodeStream@@QBEHXZ 0805f281 f i generateOopMap.obj
 0001:0005e2a1       ?dest_w@BytecodeStream@@QBEHXZ 0805f2a1 f i generateOopMap.obj
 0001:0005e2bc       ?add_jsr@RetTable@@AAEXHH@Z 0805f2bc f   generateOopMap.obj
 0001:0005e305       ??0RetTableEntry@@QAE@HPAV0@@Z 0805f305 f i generateOopMap.obj
 0001:0005e341       ?add_jsr@RetTableEntry@@QAEXH@Z 0805f341 f i generateOopMap.obj
 0001:0005e366       ?find_jsrs_for_target@RetTable@@QAEPAVRetTableEntry@@H@Z 0805f366 f   generateOopMap.obj
 0001:0005e393       ?update_ret_table@RetTable@@QAEXHH@Z 0805f393 f   generateOopMap.obj
 0001:0005e5b1       ?to_char@CellTypeState@@QBEDXZ 0805f5b1 f   generateOopMap.obj
 0001:0005e5e9       ?initialize_bb@GenerateOopMap@@IAEXXZ 0805f5e9 f   generateOopMap.obj
 0001:0005e633       ?set_bbmark_bit@GenerateOopMap@@IAEXH@Z 0805f633 f   generateOopMap.obj
 0001:0005e651       ?bb_mark_fct@GenerateOopMap@@KAXPAV1@HPAH@Z 0805f651 f   generateOopMap.obj
 0001:0005e683       ?mark_bbheaders_and_count_gc_points@GenerateOopMap@@IAEXXZ 0805f683 f   generateOopMap.obj
 0001:0005e763       ?reachable_basicblock@GenerateOopMap@@KAXPAV1@HPAH@Z 0805f763 f   generateOopMap.obj
 0001:0005e785       ?mark_reachable_code@GenerateOopMap@@IAEXXZ 0805f785 f   generateOopMap.obj
 0001:0005e8a7       ?jump_targets_do@GenerateOopMap@@IAEHPAVBytecodeStream@@P6AXPAV1@HPAH@Z2@Z 0805f8a7 f   generateOopMap.obj
 0001:0005ea2d       ?get_basic_block_at@GenerateOopMap@@IBEPAVBasicBlock@@H@Z 0805fa2d f   generateOopMap.obj
 0001:0005ea39       ?get_basic_block_containing@GenerateOopMap@@IBEPAVBasicBlock@@H@Z 0805fa39 f   generateOopMap.obj
 0001:0005eab3       ?restore_state@GenerateOopMap@@IAEXPAVBasicBlock@@@Z 0805fab3 f   generateOopMap.obj
 0001:0005eae8       ?next_bb_start_pc@GenerateOopMap@@IAEHPAVBasicBlock@@@Z 0805fae8 f   generateOopMap.obj
 0001:0005eb13       ?init_state@GenerateOopMap@@IAEXXZ 0805fb13 f   generateOopMap.obj
 0001:0005eb6d       ?make_context_uninitialized@GenerateOopMap@@IAEXXZ 0805fb6d f   generateOopMap.obj
 0001:0005eb93       ?methodsig_to_effect@GenerateOopMap@@IAEHPAVsymbolOopDesc@@HPAVCellTypeState@@@Z 0805fb93 f   generateOopMap.obj
 0001:0005ebbd       ?do_array@ComputeEntryStack@@EAEXHH@Z 0805fbbd f i generateOopMap.obj
 0001:0005ebbd       ?do_object@ComputeEntryStack@@EAEXHH@Z 0805fbbd f i generateOopMap.obj
 0001:0005ebda       ?do_long@ComputeEntryStack@@EAEXXZ 0805fbda f i generateOopMap.obj
 0001:0005ebda       ?do_double@ComputeCallStack@@EAEXXZ 0805fbda f i generateOopMap.obj
 0001:0005ebda       ?do_long@ComputeCallStack@@EAEXXZ 0805fbda f i generateOopMap.obj
 0001:0005ebda       ?do_double@ComputeEntryStack@@EAEXXZ 0805fbda f i generateOopMap.obj
 0001:0005ec02       ?compute_for_parameters@ComputeEntryStack@@QAEHHPAVCellTypeState@@@Z 0805fc02 f i generateOopMap.obj
 0001:0005ec2e       ?merge@CellTypeState@@QBE?AV1@V1@H@Z 0805fc2e f   generateOopMap.obj
 0001:0005ec73       ?merge_state_vectors@GenerateOopMap@@IAEHPAVCellTypeState@@0@Z 0805fc73 f   generateOopMap.obj
 0001:0005ed40       ?copy_state@GenerateOopMap@@IAEXPAVCellTypeState@@0@Z 0805fd40 f   generateOopMap.obj
 0001:0005edcb       ?merge_state_into_bb@GenerateOopMap@@IAEXPAVBasicBlock@@@Z 0805fdcb f   generateOopMap.obj
 0001:0005ee42       ?merge_state@GenerateOopMap@@KAXPAV1@HPAH@Z 0805fe42 f   generateOopMap.obj
 0001:0005ee5a       ?set_var@GenerateOopMap@@IAEXHVCellTypeState@@@Z 0805fe5a f   generateOopMap.obj
 0001:0005ee85       ?get_var@GenerateOopMap@@IAE?AVCellTypeState@@H@Z 0805fe85 f   generateOopMap.obj
 0001:0005eebc       ?pop@GenerateOopMap@@IAE?AVCellTypeState@@XZ 0805febc f   generateOopMap.obj
 0001:0005eef4       ?push@GenerateOopMap@@IAEXVCellTypeState@@@Z 0805fef4 f   generateOopMap.obj
 0001:0005ef22       ?monitor_pop@GenerateOopMap@@IAE?AVCellTypeState@@XZ 0805ff22 f   generateOopMap.obj
 0001:0005ef57       ?monitor_push@GenerateOopMap@@IAEXVCellTypeState@@@Z 0805ff57 f   generateOopMap.obj
 0001:0005ef83       ?do_interpretation@GenerateOopMap@@IAEXXZ 0805ff83 f   generateOopMap.obj
 0001:0005efd0       ?init_basic_blocks@GenerateOopMap@@IAEXXZ 0805ffd0 f   generateOopMap.obj
 0001:0005f119       ?setup_method_entry_state@GenerateOopMap@@IAEXXZ 08060119 f   generateOopMap.obj
 0001:0005f166       ?update_basic_blocks@GenerateOopMap@@IAEXHH@Z 08060166 f   generateOopMap.obj
 0001:0005f218       ?initialize_vars@GenerateOopMap@@IAEXXZ 08060218 f   generateOopMap.obj
 0001:0005f248       ?add_to_ref_init_set@GenerateOopMap@@IAEXH@Z 08060248 f   generateOopMap.obj
 0001:0005f27e       ?interp_all@GenerateOopMap@@IAEXXZ 0806027e f   generateOopMap.obj
 0001:0005f2ce       ?interp_bb@GenerateOopMap@@IAEXPAVBasicBlock@@@Z 080602ce f   generateOopMap.obj
 0001:0005f3d9       ?get_index@BytecodeStream@@QBEHXZ 080603d9 f i generateOopMap.obj
 0001:0005f40c       ?do_exception_edge@GenerateOopMap@@IAEXPAVBytecodeStream@@@Z 0806040c f   generateOopMap.obj
 0001:0005f554       ?get_index_big@BytecodeStream@@QBEHXZ 08060554 f i generateOopMap.obj
 0001:0005f572       ?interp1@GenerateOopMap@@IAEXPAVBytecodeStream@@@Z 08060572 f   generateOopMap.obj
 0001:0005fcf9       ?check_type@GenerateOopMap@@IAEXVCellTypeState@@0@Z 08060cf9 f   generateOopMap.obj
 0001:0005fd37       ?ppstore@GenerateOopMap@@IAEXPAVCellTypeState@@H@Z 08060d37 f   generateOopMap.obj
 0001:0005fd82       ?ppload@GenerateOopMap@@IAEXPAVCellTypeState@@H@Z 08060d82 f   generateOopMap.obj
 0001:0005fe04       ?ppdupswap@GenerateOopMap@@IAEXHPBD@Z 08060e04 f   generateOopMap.obj
 0001:0005fe52       ?ppop1@GenerateOopMap@@IAEXVCellTypeState@@@Z 08060e52 f   generateOopMap.obj
 0001:0005fe73       ?ppop@GenerateOopMap@@IAEXPAVCellTypeState@@@Z 08060e73 f   generateOopMap.obj
 0001:0005fe95       ?ppush1@GenerateOopMap@@IAEXVCellTypeState@@@Z 08060e95 f   generateOopMap.obj
 0001:0005fea1       ?ppush@GenerateOopMap@@IAEXPAVCellTypeState@@@Z 08060ea1 f   generateOopMap.obj
 0001:0005fec3       ?pp@GenerateOopMap@@IAEXPAVCellTypeState@@0@Z 08060ec3 f   generateOopMap.obj
 0001:0005fede       ?pp_new_ref@GenerateOopMap@@IAEXPAVCellTypeState@@H@Z 08060ede f   generateOopMap.obj
 0001:0005ff04       ?ppop_any@GenerateOopMap@@IAEXH@Z 08060f04 f   generateOopMap.obj
 0001:0005ff26       ?replace_all_CTS_matches@GenerateOopMap@@IAEXVCellTypeState@@0@Z 08060f26 f   generateOopMap.obj
 0001:0005ff7c       ?do_checkcast@GenerateOopMap@@IAEXXZ 08060f7c f   generateOopMap.obj
 0001:0005ffa7       ?do_monitorenter@GenerateOopMap@@IAEXH@Z 08060fa7 f   generateOopMap.obj
 0001:00060016       ?do_monitorexit@GenerateOopMap@@IAEXH@Z 08061016 f   generateOopMap.obj
 0001:00060098       ?do_return_monitor_check@GenerateOopMap@@IAEXXZ 08061098 f   generateOopMap.obj
 0001:000600a3       ?do_jsr@GenerateOopMap@@IAEXH@Z 080610a3 f   generateOopMap.obj
 0001:000600ba       ?do_ldc@GenerateOopMap@@IAEXHH@Z 080610ba f   generateOopMap.obj
 0001:00060112       ?do_multianewarray@GenerateOopMap@@IAEXHH@Z 08061112 f   generateOopMap.obj
 0001:0006014d       ?do_astore@GenerateOopMap@@IAEXH@Z 0806114d f   generateOopMap.obj
 0001:000601a7       ?copy_cts@GenerateOopMap@@IAEHPAVCellTypeState@@0@Z 080611a7 f   generateOopMap.obj
 0001:000601cc       ?do_field@GenerateOopMap@@IAEXHHHH@Z 080611cc f   generateOopMap.obj
 0001:0006025a       ?do_method@GenerateOopMap@@IAEXHHHH@Z 0806125a f   generateOopMap.obj
 0001:00060329       ?do_bool@ComputeCallStack@@EAEXXZ 08061329 f i generateOopMap.obj
 0001:00060329       ?do_int@ComputeCallStack@@EAEXXZ 08061329 f i generateOopMap.obj
 0001:00060329       ?do_byte@ComputeCallStack@@EAEXXZ 08061329 f i generateOopMap.obj
 0001:00060329       ?do_char@ComputeEntryStack@@EAEXXZ 08061329 f i generateOopMap.obj
 0001:00060329       ?do_float@ComputeEntryStack@@EAEXXZ 08061329 f i generateOopMap.obj
 0001:00060329       ?do_bool@ComputeEntryStack@@EAEXXZ 08061329 f i generateOopMap.obj
 0001:00060329       ?do_short@ComputeCallStack@@EAEXXZ 08061329 f i generateOopMap.obj
 0001:00060329       ?do_float@ComputeCallStack@@EAEXXZ 08061329 f i generateOopMap.obj
 0001:00060329       ?do_char@ComputeCallStack@@EAEXXZ 08061329 f i generateOopMap.obj
 0001:00060329       ?do_byte@ComputeEntryStack@@EAEXXZ 08061329 f i generateOopMap.obj
 0001:00060329       ?do_int@ComputeEntryStack@@EAEXXZ 08061329 f i generateOopMap.obj
 0001:00060329       ?do_short@ComputeEntryStack@@EAEXXZ 08061329 f i generateOopMap.obj
 0001:0006033d       ?do_void@ComputeCallStack@@EAEXXZ 0806133d f i generateOopMap.obj
 0001:0006033d       ?do_void@ComputeEntryStack@@EAEXXZ 0806133d f i generateOopMap.obj
 0001:00060351       ?do_array@ComputeCallStack@@EAEXHH@Z 08061351 f i generateOopMap.obj
 0001:00060351       ?do_object@ComputeCallStack@@EAEXHH@Z 08061351 f i generateOopMap.obj
 0001:00060367       ?compute_for_parameters@ComputeCallStack@@QAEHHPAVCellTypeState@@@Z 08061367 f i generateOopMap.obj
 0001:00060395       ?compute_for_returntype@ComputeCallStack@@QAEHPAVCellTypeState@@@Z 08061395 f i generateOopMap.obj
 0001:000603c0       ?sigchar_to_effect@GenerateOopMap@@IAEPAVCellTypeState@@DHPAV2@@Z 080613c0 f   generateOopMap.obj
 0001:00060426       ?ret_jump_targets_do@GenerateOopMap@@IAEXPAVBytecodeStream@@P6AXPAV1@HPAH@ZH2@Z 08061426 f   generateOopMap.obj
 0001:000604ab       ??0GenerateOopMap@@QAE@VmethodHandle@@@Z 080614ab f   generateOopMap.obj
 0001:000604ce       ?possible_gc_point@GenerateOopMap@@UAEHPAVBytecodeStream@@@Z 080614ce f i generateOopMap.obj
 0001:000604e5       ?fill_stackmap_prolog@GenerateOopMap@@UAEXH@Z 080614e5 f i generateOopMap.obj
 0001:000604fa       ?fill_stackmap_epilog@GenerateOopMap@@UAEXXZ 080614fa f i generateOopMap.obj
 0001:0006050d       ?fill_stackmap_for_opcodes@GenerateOopMap@@UAEXPAVBytecodeStream@@PAVCellTypeState@@1H@Z 0806150d f i generateOopMap.obj
 0001:00060522       ?fill_init_vars@GenerateOopMap@@UAEXPAV?$GrowableArray@H@@@Z 08061522 f i generateOopMap.obj
 0001:00060537       ?compute_map@GenerateOopMap@@QAEXPAVThread@@@Z 08061537 f   generateOopMap.obj
 0001:000606b0       ?error_work@GenerateOopMap@@IAEXPBDPAD@Z 080616b0 f   generateOopMap.obj
 0001:00060747       ?report_error@GenerateOopMap@@IAAXPBDZZ 08061747 f   generateOopMap.obj
 0001:0006075a       ?verify_error@GenerateOopMap@@IAAXPBDZZ 0806175a f   generateOopMap.obj
 0001:0006076b       ?report_result@GenerateOopMap@@IAEXXZ 0806176b f   generateOopMap.obj
 0001:000607c5       ?result_for_basicblock@GenerateOopMap@@QAEXH@Z 080617c5 f   generateOopMap.obj
 0001:000607e7       ?record_refval_conflict@GenerateOopMap@@IAEXH@Z 080617e7 f   generateOopMap.obj
 0001:0006084a       ?rewrite_refval_conflicts@GenerateOopMap@@IAEXXZ 0806184a f   generateOopMap.obj
 0001:000608d7       ?rewrite_refval_conflict@GenerateOopMap@@IAEXHH@Z 080618d7 f   generateOopMap.obj
 0001:00060932       ?rewrite_refval_conflict_inst@GenerateOopMap@@IAEHPAVBytecodeStream@@HH@Z 08061932 f   generateOopMap.obj
 0001:0006099d       ?rewrite_load_or_store@GenerateOopMap@@IAEHPAVBytecodeStream@@W4Code@Bytecodes@@1I@Z 0806199d f   generateOopMap.obj
 0001:00060a54       ?expand_current_instr@GenerateOopMap@@IAEXHHHQAE@Z 08061a54 f   generateOopMap.obj
 0001:00060ac6       ?relocated@RelocCallback@@UAEXHH@Z 08061ac6 f i generateOopMap.obj
 0001:00060afe       ?is_astore@GenerateOopMap@@IAEHPAVBytecodeStream@@PAH@Z 08061afe f   generateOopMap.obj
 0001:00060b2e       ?is_aload@GenerateOopMap@@IAEHPAVBytecodeStream@@PAH@Z 08061b2e f   generateOopMap.obj
 0001:00060b5e       ?stack_top_holds_ret_addr@GenerateOopMap@@IAEHH@Z 08061b5e f   generateOopMap.obj
 0001:00060b88       ?compute_ret_adr_at_TOS@GenerateOopMap@@IAEXXZ 08061b88 f   generateOopMap.obj
 0001:00060c55       ?update_ret_adr_at_TOS@GenerateOopMap@@IAEXHH@Z 08061c55 f   generateOopMap.obj
 0001:00060c84       ?do_potential_rewrite@ResolveOopMapConflicts@@QAE?AVmethodHandle@@PAVThread@@@Z 08061c84 f   generateOopMap.obj
 0001:00060ccb       ??0Generation@@IAE@VReservedSpace@@IH@Z 08061ccb f   generation.obj
 0001:00060d6a       ?spec@Generation@@QAEPAVGenerationSpec@@XZ 08061d6a f   generation.obj
 0001:00060d7d       ?max_capacity@Generation@@UBEIXZ 08061d7d f   generation.obj
 0001:00060d84       ?print_heap_change@Generation@@QBEXI@Z 08061d84 f   generation.obj
 0001:00060dba       ?ref_processor_init@Generation@@QAEXXZ 08061dba f   generation.obj
 0001:00060dd5       ?print@Generation@@UBEXXZ  08061dd5 f   generation.obj
 0001:00060de4       ?print_on@Generation@@UBEXPAVoutputStream@@@Z 08061de4 f   generation.obj
 0001:00060e40       ?is_in@Generation@@UBEHPBX@Z 08061e40 f   generation.obj
 0001:00060e6e       ?do_space@GenerationIsInClosure@@UAEXPAVSpace@@@Z 08061e6e f i generation.obj
 0001:00060e8b       ?next_gen@Generation@@IBEPAV1@XZ 08061e8b f   generation.obj
 0001:00060ea5       ?max_contiguous_available@Generation@@UBEIXZ 08061ea5 f   generation.obj
 0001:00060ece       ?promote@Generation@@UAEPAVoopDesc@@PAV2@IPAPAV2@@Z 08061ece f   generation.obj
 0001:00060f0d       ?par_promote@Generation@@UAEPAVoopDesc@@HPAV2@PAVmarkOopDesc@@I@Z 08061f0d f   generation.obj
 0001:00060f21       ?par_promote_alloc_undo@Generation@@UAEXHPAVHeapWord@@I@Z 08061f21 f   generation.obj
 0001:00060f39       ?space_containing@Generation@@UBEPAVSpace@@PBX@Z 08061f39 f   generation.obj
 0001:00060f62       ?block_start@Generation@@UBEPAVHeapWord@@PBX@Z 08061f62 f   generation.obj
 0001:00060f8b       ?do_space@GenerationBlockStartClosure@@UAEXPAVSpace@@@Z 08061f8b f i generation.obj
 0001:00060fb2       ?block_size@Generation@@UBEIPBVHeapWord@@@Z 08061fb2 f   generation.obj
 0001:00060fdb       ?do_space@GenerationBlockSizeClosure@@UAEXPAVSpace@@@Z 08061fdb f i generation.obj
 0001:00061002       ?block_is_obj@Generation@@UBEHPBVHeapWord@@@Z 08062002 f   generation.obj
 0001:0006102b       ?do_space@GenerationBlockIsObjClosure@@UAEXPAVSpace@@@Z 0806202b f i generation.obj
 0001:00061052       ?oop_iterate@Generation@@UAEXPAVOopClosure@@@Z 08062052 f   generation.obj
 0001:00061087       ??0GenerationOopIterateClosure@@QAE@PAVOopClosure@@VMemRegion@@@Z 08062087 f i generation.obj
 0001:000610a7       ?do_space@GenerationOopIterateClosure@@UAEXPAVSpace@@@Z 080620a7 f i generation.obj
 0001:000610c9       ?oop_iterate@Generation@@UAEXVMemRegion@@PAVOopClosure@@@Z 080620c9 f   generation.obj
 0001:000610fe       ?younger_refs_in_space_iterate@Generation@@IAEXPAVSpace@@PAVOopsInGenClosure@@@Z 080620fe f   generation.obj
 0001:00061115       ?object_iterate@Generation@@UAEXPAVObjectClosure@@@Z 08062115 f   generation.obj
 0001:00061136       ?do_space@GenerationObjIterateClosure@@UAEXPAVSpace@@@Z 08062136 f i generation.obj
 0001:00061147       ?prepare_for_compaction@Generation@@UAEXPAVCompactPoint@@@Z 08062147 f   generation.obj
 0001:0006116b       ?adjust_pointers@Generation@@UAEXXZ 0806216b f   generation.obj
 0001:00061183       ?do_space@AdjustPointersClosure@@UAEXPAVSpace@@@Z 08062183 f i generation.obj
 0001:0006118f       ?compact@Generation@@UAEXXZ 0806218f f   generation.obj
 0001:000611b0       ??0CardGeneration@@IAE@VReservedSpace@@IHPAVGenRemSet@@@Z 080621b0 f   generation.obj
 0001:000612c4       ?collect@OneContigSpaceCardGeneration@@UAEXHHIHH@Z 080622c4 f   generation.obj
 0001:0006131a       ?expand_and_allocate@OneContigSpaceCardGeneration@@UAEPAVHeapWord@@IHHH@Z 0806231a f   generation.obj
 0001:0006138c       ?expand@OneContigSpaceCardGeneration@@IAEXII@Z 0806238c f   generation.obj
 0001:00061413       ?shrink@OneContigSpaceCardGeneration@@IAEXI@Z 08062413 f   generation.obj
 0001:00061430       ?capacity@OneContigSpaceCardGeneration@@UBEIXZ 08062430 f   generation.obj
 0001:0006143d       ?used@OneContigSpaceCardGeneration@@UBEIXZ 0806243d f   generation.obj
 0001:00061448       ?used_region@OneContigSpaceCardGeneration@@UBE?AVMemRegion@@XZ 08062448 f   generation.obj
 0001:0006146f       ?free@OneContigSpaceCardGeneration@@UBEIXZ 0806246f f   generation.obj
 0001:0006146f       ?unsafe_max_alloc_nogc@OneContigSpaceCardGeneration@@UBEIXZ 0806246f f   generation.obj
 0001:0006147a       ?contiguous_available@OneContigSpaceCardGeneration@@UBEIXZ 0806247a f   generation.obj
 0001:00061498       ?grow_by@OneContigSpaceCardGeneration@@IAEHI@Z 08062498 f   generation.obj
 0001:00061536       ?grow_to_reserved@OneContigSpaceCardGeneration@@IAEXXZ 08062536 f   generation.obj
 0001:0006154f       ?shrink_by@OneContigSpaceCardGeneration@@IAEXI@Z 0806254f f   generation.obj
 0001:000615b5       ?object_iterate@OneContigSpaceCardGeneration@@UAEXPAVObjectClosure@@@Z 080625b5 f   generation.obj
 0001:000615c7       ?space_iterate@OneContigSpaceCardGeneration@@UAEXPAVSpaceClosure@@H@Z 080625c7 f   generation.obj
 0001:000615da       ?object_iterate_since_last_GC@OneContigSpaceCardGeneration@@UAEXPAVObjectClosure@@@Z 080625da f   generation.obj
 0001:0006161b       ?younger_refs_iterate@OneContigSpaceCardGeneration@@UAEXPAVOopsInGenClosure@@@Z 0806261b f   generation.obj
 0001:00061644       ?save_marks@OneContigSpaceCardGeneration@@UAEXXZ 08062644 f   generation.obj
 0001:00061651       ?reset_saved_marks@OneContigSpaceCardGeneration@@UAEXXZ 08062651 f   generation.obj
 0001:0006165e       ?no_allocs_since_save_marks@OneContigSpaceCardGeneration@@UAEHXZ 0806265e f   generation.obj
 0001:00061670       ?oop_since_save_marks_iterate_nv@OneContigSpaceCardGeneration@@UAEXPAVUpdateTrainRSWrapParScanWithoutBarrierClosure@@@Z 08062670 f   generation.obj
 0001:00061670       ?oop_since_save_marks_iterate_v@OneContigSpaceCardGeneration@@UAEXPAVOopsInGenClosure@@@Z 08062670 f   generation.obj
 0001:00061670       ?oop_since_save_marks_iterate_nv@OneContigSpaceCardGeneration@@UAEXPAVUpdateTrainRSWrapParScanWithBarrierClosure@@@Z 08062670 f   generation.obj
 0001:000616a1       ?oop_since_save_marks_iterate_nv@OneContigSpaceCardGeneration@@UAEXPAVScanClosure@@@Z 080626a1 f   generation.obj
 0001:000616d2       ?oop_since_save_marks_iterate_nv@OneContigSpaceCardGeneration@@UAEXPAVFastScanClosure@@@Z 080626d2 f   generation.obj
 0001:00061703       ?oop_since_save_marks_iterate_nv@OneContigSpaceCardGeneration@@UAEXPAVTrainScanClosure@@@Z 08062703 f   generation.obj
 0001:00061734       ?oop_since_save_marks_iterate_nv@OneContigSpaceCardGeneration@@UAEXPAVUpdateTrainRSWrapScanClosure@@@Z 08062734 f   generation.obj
 0001:00061765       ?oop_since_save_marks_iterate_nv@OneContigSpaceCardGeneration@@UAEXPAVUpdateTrainRSWrapFastScanClosure@@@Z 08062765 f   generation.obj
 0001:00061796       ?oop_since_save_marks_iterate_nv@OneContigSpaceCardGeneration@@UAEXPAVUpdateTrainRSWrapTrainScanClosure@@@Z 08062796 f   generation.obj
 0001:000617c7       ?oop_since_save_marks_iterate_nv@OneContigSpaceCardGeneration@@UAEXPAVParScanWithBarrierClosure@@@Z 080627c7 f   generation.obj
 0001:000617f8       ?oop_since_save_marks_iterate_nv@OneContigSpaceCardGeneration@@UAEXPAVParScanWithoutBarrierClosure@@@Z 080627f8 f   generation.obj
 0001:00061829       ?gc_epilogue@OneContigSpaceCardGeneration@@UAEXH@Z 08062829 f   generation.obj
 0001:00061849       ?print_on@OneContigSpaceCardGeneration@@UBEXPAVoutputStream@@@Z 08062849 f   generation.obj
 0001:00061875       ??0ReferenceProcessor@@QAE@XZ 08062875 f i generation.obj
 0001:0006189e       ?kind@Generation@@UAE?AW4Name@1@XZ 0806289e f i generation.obj
 0001:0006189e       ?cell_count@VirtualCallData@@UAEHXZ 0806289e f i generation.obj
 0001:0006189e       ?tag@AddressType@@UBE?AW4ValueTag@@XZ 0806289e f i generation.obj
 0001:0006189e       ?type@static_stub_Relocation@@EAE?AW4relocType@relocInfo@@XZ 0806289e f i generation.obj
 0001:000618a2       ?verify@CarSpace@@UBEXH@Z  080628a2 f i generation.obj
 0001:000618a2       ?oops_do@unknown_compiledNode@@UAEXPAVOopClosure@@@Z 080628a2 f i generation.obj
 0001:000618a2       ?fill_stackmap_prolog@GeneratePairingInfo@@EAEXH@Z 080628a2 f i generation.obj
 0001:000618a2       ?verify@CompactibleFreeListSpace@@UBEXH@Z 080628a2 f i generation.obj
 0001:000618a2       ?fix_relocation_at_move@Relocation@@UAEXH@Z 080628a2 f i generation.obj
 0001:000618a2       ?input_values_do@Phi@@UAEXP6AXPAPAVInstruction@@@Z@Z 080628a2 f i generation.obj
 0001:000618a2       ?state_values_do@Instruction@@UAEXP6AXPAPAV1@@Z@Z 080628a2 f i generation.obj
 0001:000618a2       ?do_object@TrainIsAliveClosure@@UAEXPAVoopDesc@@@Z 080628a2 f i generation.obj
 0001:000618a2       ?oops_do@VM_Operation@@UAEXPAVOopClosure@@@Z 080628a2 f i generation.obj
 0001:000618a2       ?print_value_on@CodeBlob@@UBEXPAVoutputStream@@@Z 080628a2 f i generation.obj
 0001:000618a2       ?print@ICStubInterface@@UAEXPAVStub@@@Z 080628a2 f i generation.obj
 0001:000618a2       ?verify@OffsetTableContigSpace@@UBEXH@Z 080628a2 f i generation.obj
 0001:000618a2       ?bytecode_prolog@MethodClosure@@UAEXW4Code@Bytecodes@@@Z 080628a2 f i generation.obj
 0001:000618a2       ?oops_do@RuntimeStub@@UAEXPAVOopClosure@@@Z 080628a2 f i generation.obj
 0001:000618a2       ?verify@ContiguousSpace@@UBEXH@Z 080628a2 f i generation.obj
 0001:000618a2       ?input_values_do@Constant@@UAEXP6AXPAPAVInstruction@@@Z@Z 080628a2 f i generation.obj
 0001:000618a2       ?do_object@CMSIsAliveClosure@@UAEXPAVoopDesc@@@Z 080628a2 f i generation.obj
 0001:000618a2       ?print_value_on@DeoptimizationBlob@@UBEXPAVoutputStream@@@Z 080628a2 f i generation.obj
 0001:000618a2       ?print_value_on@RuntimeStub@@UBEXPAVoutputStream@@@Z 080628a2 f i generation.obj
 0001:000618a2       ?input_values_do@StateSplit@@UAEXP6AXPAPAVInstruction@@@Z@Z 080628a2 f i generation.obj
 0001:000618a2       ?fill_init_vars@ciOneAddressMapGenerator@@EAEXPAV?$GrowableArray@H@@@Z 080628a2 f i generation.obj
 0001:000618a2       ?verify@OneContigSpaceCardGeneration@@UAEXH@Z 080628a2 f i generation.obj
 0001:000618a2       ?print@CompilationScope@@UAEXH@Z 080628a2 f i generation.obj
 0001:000618a2       ?set_alloc_size@instanceKlass@@UAEX_I@Z 080628a2 f i generation.obj
 0001:000618a2       ?oops_do@BufferBlob@@UAEXPAVOopClosure@@@Z 080628a2 f i generation.obj
 0001:000618a2       ?remember_klass@OopClosure@@UAEXPAVKlass@@@Z 080628a2 f i generation.obj
 0001:000618a2       ?do_object@EntireTrainIsAliveClosure@@UAEXPAVoopDesc@@@Z 080628a2 f i generation.obj
 0001:000618a2       ?input_values_do@CachingChange@@UAEXP6AXPAPAVInstruction@@@Z@Z 080628a2 f i generation.obj
 0001:000618a2       ?visit@CodeStub@@UAEXPAVLIR_OpVisitState@@@Z 080628a2 f i generation.obj
 0001:000618a2       ?translate_from@ProfileData@@UAEXPAV1@@Z 080628a2 f i generation.obj
 0001:000618a2       ?print_value_on@SingletonBlob@@UBEXPAVoutputStream@@@Z 080628a2 f i generation.obj
 0001:000618a2       ?oops_do@vmNode@@UAEXPAVOopClosure@@@Z 080628a2 f i generation.obj
 0001:000618a2       ?fix_relocation_at_move@breakpoint_Relocation@@UAEXH@Z 080628a2 f i generation.obj
 0001:000618a2       ?set_lock_stack@Instruction@@UAEXPAVValueStack@@@Z 080628a2 f i generation.obj
 0001:000618a2       ?other_values_do@Instruction@@UAEXP6AXPAPAV1@@Z@Z 080628a2 f i generation.obj
 0001:000618a2       ?do_object@IsAliveClosure@MarkSweep@@UAEXPAVoopDesc@@@Z 080628a2 f i generation.obj
 0001:000618a2       ?do_object@PSIsAliveClosure@@UAEXPAVoopDesc@@@Z 080628a2 f i generation.obj
 0001:000618a2       ?gc_epilogue@Generation@@UAEXH@Z 080628a2 f i generation.obj
 0001:000618a2       ?pop_tag@xmlStream@@MAEXPBD@Z 080628a2 f i generation.obj
 0001:000618a2       ?input_values_do@Local@@UAEXP6AXPAPAVInstruction@@@Z@Z 080628a2 f i generation.obj
 0001:000618a2       ?fill_init_vars@GeneratePairingInfo@@EAEXPAV?$GrowableArray@H@@@Z 080628a2 f i generation.obj
 0001:000618a2       ?verify@MutableSpace@@UBEXH@Z 080628a2 f i generation.obj
 0001:000618a2       ?print_value_on@BufferBlob@@UBEXPAVoutputStream@@@Z 080628a2 f i generation.obj
 0001:000618a2       ?array_klasses_do@Klass@@UAEXP6AXPAVklassOopDesc@@@Z@Z 080628a2 f i generation.obj
 0001:000618a2       ?par_promote_alloc_done@Generation@@UAEXH@Z 080628a2 f i generation.obj
 0001:000618a2       ?examine_modified_oop@Generation@@UAEXPAPAVoopDesc@@@Z 080628a2 f i generation.obj
 0001:000618a2       ?oops_do@DeoptimizationBlob@@UAEXPAVOopClosure@@@Z 080628a2 f i generation.obj
 0001:000618a2       ?fill_stackmap_prolog@ResolveOopMapConflicts@@EAEXH@Z 080628a2 f i generation.obj
 0001:000618a2       ?do_oop@DoNothingClosure@@UAEXPAPAVoopDesc@@@Z 080628a2 f i generation.obj
 0001:000618a2       ?verify@ICStubInterface@@UAEXPAVStub@@@Z 080628a2 f i generation.obj
 0001:000618a2       ?set_code_pc@CodeStub@@UAEXPAE@Z 080628a2 f i generation.obj
 0001:000618a2       ?print_value_on@nmethod@@UBEXPAVoutputStream@@@Z 080628a2 f i generation.obj
 0001:000618a2       ?oop_iterate@ProfileData@@UAEXPAVOopClosure@@@Z 080628a2 f i generation.obj
 0001:000618a2       ?oops_do@adapterNode@@UAEXPAVOopClosure@@@Z 080628a2 f i generation.obj
 0001:000618a2       ?par_oop_since_save_marks_iterate_done@Generation@@UAEXH@Z 080628a2 f i generation.obj
 0001:000618a2       ?do_oop@AssertIsPermClosure@@UAEXPAPAVoopDesc@@@Z 080628a2 f i generation.obj
 0001:000618a2       ?gc_prologue@Generation@@UAEXH@Z 080628a2 f i generation.obj
 0001:000618a2       ?oops_do@runtimeStubNode@@UAEXPAVOopClosure@@@Z 080628a2 f i generation.obj
 0001:000618a2       ?oops_do@SafepointBlob@@UAEXPAVOopClosure@@@Z 080628a2 f i generation.obj
 0001:000618a2       ?oops_do@Relocation@@UAEXP6AXPAPAVoopDesc@@@Z@Z 080628a2 f i generation.obj
 0001:000618a2       ?read_ref_field@ModRefBarrierSet@@UAEXPAPAVoopDesc@@@Z 080628a2 f i generation.obj
 0001:000618a2       ?print_on@LIR_Op@@UBEXPAVoutputStream@@@Z 080628a2 f i generation.obj
 0001:000618a2       ?other_values_do@StoreIndexed@@UAEXP6AXPAPAVInstruction@@@Z@Z 080628a2 f i generation.obj
 0001:000618a5       ?oop_since_save_marks_iterate_nv@Generation@@UAEXPAVUpdateTrainRSWrapScanClosure@@@Z 080628a5 f i generation.obj
 0001:000618a5       ?oop_since_save_marks_iterate_nv@Generation@@UAEXPAVScanClosure@@@Z 080628a5 f i generation.obj
 0001:000618a5       ?oop_since_save_marks_iterate_nv@Generation@@UAEXPAVUpdateTrainRSWrapTrainScanClosure@@@Z 080628a5 f i generation.obj
 0001:000618a5       ?oop_since_save_marks_iterate_nv@Generation@@UAEXPAVParScanWithBarrierClosure@@@Z 080628a5 f i generation.obj
 0001:000618a5       ?oop_since_save_marks_iterate_nv@Generation@@UAEXPAVUpdateTrainRSWrapParScanWithBarrierClosure@@@Z 080628a5 f i generation.obj
 0001:000618a5       ?oop_since_save_marks_iterate_nv@Generation@@UAEXPAVUpdateTrainRSWrapParScanWithoutBarrierClosure@@@Z 080628a5 f i generation.obj
 0001:000618a5       ?oop_since_save_marks_iterate_nv@Generation@@UAEXPAVUpdateTrainRSWrapFastScanClosure@@@Z 080628a5 f i generation.obj
 0001:000618a5       ?oop_since_save_marks_iterate_nv@Generation@@UAEXPAVFastScanClosure@@@Z 080628a5 f i generation.obj
 0001:000618a5       ?oop_since_save_marks_iterate_nv@Generation@@UAEXPAVTrainScanClosure@@@Z 080628a5 f i generation.obj
 0001:000618a5       ?oop_since_save_marks_iterate_nv@Generation@@UAEXPAVParScanWithoutBarrierClosure@@@Z 080628a5 f i generation.obj
 0001:000618b4       ?ref_processor@Generation@@QAEQAVReferenceProcessor@@XZ 080628b4 f i generation.obj
 0001:000618b8       ??0GenerationCounters@@QAE@PBD0HHPAVVirtualSpace@@@Z 080628b8 f   generationCounters.obj
 0001:00061a2c       ?init@GenerationSpec@@QAEPAVGeneration@@VReservedSpace@@HPAVGenRemSet@@@Z 08062a2c f   generationSpec.obj
 0001:00061b97       ?init@PermanentGenerationSpec@@QAEPAVPermGen@@VReservedSpace@@IPAVGenRemSet@@@Z 08062b97 f   generationSpec.obj
 0001:00061c3c       ?check_basic_types@@YAXXZ  08062c3c f   globalDefinitions.obj
 0001:00061ccc       ?name2type@@YA?AW4BasicType@@PBD@Z 08062ccc f   globalDefinitions.obj
 0001:00061d1f       ?is_unlocker@Flag@@QBEHXZ  08062d1f f   globals.obj
 0001:00061d5a       ?is_unlocked@Flag@@QBEHXZ  08062d5a f   globals.obj
 0001:00061e04       ?boolAtPut@DebugFlags@@SAHPADIPAH@Z 08062e04 f   globals.obj
 0001:00061e69       ?intxAtPut@DebugFlags@@SAHPADIPAH@Z 08062e69 f   globals.obj
 0001:00061ece       ?uintxAtPut@DebugFlags@@SAHPADIPAI@Z 08062ece f   globals.obj
 0001:00061f33       ?ccstrAt@DebugFlags@@SAHPADIPAPBD@Z 08062f33 f   globals.obj
 0001:00061f91       ?ccstrAtPut@DebugFlags@@SAHPADIPAPBD@Z 08062f91 f   globals.obj
 0001:000620ab       ??0GenericGrowableArray@@IAE@HH@Z 080630ab f   growableArray.obj
 0001:00062104       ??0GenericGrowableArray@@IAE@HHPAVGrET@@H@Z 08063104 f   growableArray.obj
 0001:00062175       ??0GenericGrowableArray@@IAE@PAVArena@@HHPAVGrET@@@Z 08063175 f   growableArray.obj
 0001:000621b3       ?grow@GenericGrowableArray@@IAEXH@Z 080631b3 f   growableArray.obj
 0001:00062258       ?grow64@GenericGrowableArray@@IAEXH@Z 08063258 f   growableArray.obj
 0001:00062312       ?raw_contains@GenericGrowableArray@@IBEHPBVGrET@@@Z 08063312 f   growableArray.obj
 0001:00062339       ?raw_appendAll@GenericGrowableArray@@IAEXPBV1@@Z 08063339 f   growableArray.obj
 0001:00062364       ?raw_find@GenericGrowableArray@@IBEHPBVGrET@@@Z 08063364 f   growableArray.obj
 0001:00062387       ?raw_find@GenericGrowableArray@@IBEHPAVGrET@@P6AH00@Z@Z 08063387 f   growableArray.obj
 0001:000623b6       ?raw_remove@GenericGrowableArray@@IAEXPBVGrET@@@Z 080633b6 f   growableArray.obj
 0001:00062407       ?raw_remove_at@GenericGrowableArray@@IAEXH@Z 08063407 f   growableArray.obj
 0001:00062428       ?raw_at_put_grow@GenericGrowableArray@@IAEXHPBVGrET@@0@Z 08063428 f   growableArray.obj
 0001:00062466       ?raw_sort@GenericGrowableArray@@IAEXP6AHPBX0@Z@Z 08063466 f   growableArray.obj
 0001:0006247d       ?clear_and_deallocate@GenericGrowableArray@@QAEXXZ 0806347d f   growableArray.obj
 0001:00062497       ?oops_do@HandleArea@@QAEXPAVOopClosure@@@Z 08063497 f   handles.obj
 0001:00062513       ?initialize@HandleMark@@AAEXPAVThread@@@Z 08063513 f   handles.obj
 0001:00062543       ??1HandleMark@@QAE@XZ      08063543 f   handles.obj
 0001:00062574       ?header_size@CodeHeap@@SAIXZ 08063574 f   heap.obj
 0001:00062578       ??0CodeHeap@@QAE@XZ        08063578 f   heap.obj
 0001:000625a6       ?mark_segmap_as_free@CodeHeap@@AAEXII@Z 080635a6 f   heap.obj
 0001:000625d2       ?mark_segmap_as_used@CodeHeap@@AAEXII@Z 080635d2 f   heap.obj
 0001:000625fb       ?reserve@CodeHeap@@QAEHIII@Z 080635fb f   heap.obj
 0001:000626bb       ?expand_by@CodeHeap@@QAEHI@Z 080636bb f   heap.obj
 0001:0006273f       ?clear@CodeHeap@@QAEXXZ    0806373f f   heap.obj
 0001:0006274e       ?allocate@CodeHeap@@QAEPAXI@Z 0806374e f   heap.obj
 0001:000627af       ?deallocate@CodeHeap@@QAEXPAX@Z 080637af f   heap.obj
 0001:000627bf       ?find_start@CodeHeap@@QBEPAXPAX@Z 080637bf f   heap.obj
 0001:0006280d       ?next_free@CodeHeap@@ABEPAXPAVHeapBlock@@@Z 0806380d f   heap.obj
 0001:0006282f       ?first_block@CodeHeap@@ABEPAVHeapBlock@@XZ 0806382f f   heap.obj
 0001:00062845       ?block_start@CodeHeap@@ABEPAVHeapBlock@@PAX@Z 08063845 f   heap.obj
 0001:00062858       ?next_block@CodeHeap@@ABEPAVHeapBlock@@PAV2@@Z 08063858 f   heap.obj
 0001:00062884       ?max_capacity@CodeHeap@@QBEIXZ 08063884 f   heap.obj
 0001:00062889       ?allocated_capacity@CodeHeap@@QBEIXZ 08063889 f   heap.obj
 0001:000628aa       ?following_block@CodeHeap@@AAEPAVFreeBlock@@PAV2@@Z 080638aa f   heap.obj
 0001:000628b9       ?insert_after@CodeHeap@@AAEXPAVFreeBlock@@0@Z 080638b9 f   heap.obj
 0001:000628e3       ?merge_right@CodeHeap@@AAEXPAVFreeBlock@@@Z 080638e3 f   heap.obj
 0001:00062923       ?add_to_freelist@CodeHeap@@AAEXPAVHeapBlock@@@Z 08063923 f   heap.obj
 0001:00062977       ?search_freelist@CodeHeap@@AAEPAVFreeBlock@@I@Z 08063977 f   heap.obj
 0001:00062a1c       ?compare@KlassInfoEntry@@QAEHPAV1@0@Z 08063a1c f   heapInspection.obj
 0001:00062a3a       ?print_on@KlassInfoEntry@@QBEXPAVoutputStream@@@Z 08063a3a f   heapInspection.obj
 0001:00062bd4       ?lookup@KlassInfoBucket@@QAEPAVKlassInfoEntry@@QAVklassOopDesc@@@Z 08063bd4 f   heapInspection.obj
 0001:00062c13       ?iterate@KlassInfoBucket@@QAEXPAVKlassInfoClosure@@@Z 08063c13 f   heapInspection.obj
 0001:00062c31       ?empty@KlassInfoBucket@@QAEXXZ 08063c31 f   heapInspection.obj
 0001:00062c4c       ??0KlassInfoTable@@QAE@HPAVHeapWord@@@Z 08063c4c f   heapInspection.obj
 0001:00062c9a       ??1KlassInfoTable@@QAE@XZ  08063c9a f   heapInspection.obj
 0001:00062cc3       ?hash@KlassInfoTable@@AAEIPAVklassOopDesc@@@Z 08063cc3 f   heapInspection.obj
 0001:00062cd0       ?lookup@KlassInfoTable@@AAEPAVKlassInfoEntry@@QAVklassOopDesc@@@Z 08063cd0 f   heapInspection.obj
 0001:00062cf3       ?record_instance@KlassInfoTable@@QAEXQAVoopDesc@@@Z 08063cf3 f   heapInspection.obj
 0001:00062d23       ?iterate@KlassInfoTable@@QAEXPAVKlassInfoClosure@@@Z 08063d23 f   heapInspection.obj
 0001:00062d46       ?sort_helper@KlassInfoHisto@@CAHPAPAVKlassInfoEntry@@0@Z 08063d46 f   heapInspection.obj
 0001:00062d59       ??0KlassInfoHisto@@QAE@PBDH@Z 08063d59 f   heapInspection.obj
 0001:00062d8e       ??1KlassInfoHisto@@QAE@XZ  08063d8e f   heapInspection.obj
 0001:00062d95       ?add@KlassInfoHisto@@QAEXPAVKlassInfoEntry@@@Z 08063d95 f   heapInspection.obj
 0001:00062db9       ?sort@KlassInfoHisto@@QAEXXZ 08063db9 f   heapInspection.obj
 0001:00062dc6       ?print_elements@KlassInfoHisto@@ABEXPAVoutputStream@@@Z 08063dc6 f   heapInspection.obj
 0001:00062e3f       ?print_on@KlassInfoHisto@@QBEXPAVoutputStream@@@Z 08063e3f f   heapInspection.obj
 0001:00062e65       ?heap_inspection@HeapInspection@@SAXXZ 08063e65 f   heapInspection.obj
 0001:00062f56       ?do_cinfo@HistoClosure@@UAEXPAVKlassInfoEntry@@@Z 08063f56 f i heapInspection.obj
 0001:00062f65       ?do_object@RecordInstanceClosure@@UAEXPAVoopDesc@@@Z 08063f65 f i heapInspection.obj
 0001:00062f94       ?initialize@hpi@@SAHXZ     08063f94 f   hpi.obj
 0001:00062feb       ?initialize_socket_library@hpi@@SAHXZ 08063feb f   hpi.obj
 0001:0006300b       ?initialize_get_interface@hpi@@CAXPAUvm_calls@@@Z 0806400b f   hpi_win32.obj
 0001:000630ad       ?finalize@ICStub@@IAEXXZ   080640ad f   icBuffer.obj
 0001:000630fa       ?CompiledIC_at@@YAPAVCompiledIC@@PAE@Z 080640fa f i icBuffer.obj
 0001:00063115       ?destination@ICStub@@QBEPAEXZ 08064115 f   icBuffer.obj
 0001:00063120       ?cached_oop@ICStub@@QBEPAVoopDesc@@XZ 08064120 f   icBuffer.obj
 0001:0006312b       ?set_stub@ICStub@@QAEXPAVCompiledIC@@PAVoopDesc@@PAE@Z 0806412b f   icBuffer.obj
 0001:0006314b       ?clear@ICStub@@QAEXXZ      0806414b f   icBuffer.obj
 0001:00063150       ?init_next_stub@InlineCacheBuffer@@CAXXZ 08064150 f   icBuffer.obj
 0001:00063167       ?initialize@InlineCacheBuffer@@SAXXZ 08064167 f   icBuffer.obj
 0001:000631c2       ?initialize@ICStubInterface@@UAEXPAVStub@@H@Z 080641c2 f i icBuffer.obj
 0001:000631d3       ?finalize@ICStubInterface@@UAEXPAVStub@@@Z 080641d3 f i icBuffer.obj
 0001:000631df       ?new_ic_stub@InlineCacheBuffer@@CAPAVICStub@@XZ 080641df f   icBuffer.obj
 0001:00063260       ?update_inline_caches@InlineCacheBuffer@@SAXXZ 08064260 f   icBuffer.obj
 0001:00063277       ?contains@InlineCacheBuffer@@SAHPAE@Z 08064277 f   icBuffer.obj
 0001:00063297       ?is_empty@InlineCacheBuffer@@SAHXZ 08064297 f   icBuffer.obj
 0001:000632a7       ?InlineCacheBuffer_init@@YAXXZ 080642a7 f   icBuffer.obj
 0001:000632ac       ?create_transition_stub@InlineCacheBuffer@@SAXPAVCompiledIC@@PAVoopDesc@@PAE@Z 080642ac f   icBuffer.obj
 0001:000632fc       ?ic_destination_for@InlineCacheBuffer@@SAPAEPAVCompiledIC@@@Z 080642fc f   icBuffer.obj
 0001:0006330f       ?cached_oop_for@InlineCacheBuffer@@SAPAVoopDesc@@PAVCompiledIC@@@Z 0806430f f   icBuffer.obj
 0001:00063322       ?name@VM_ForceSafepoint@@UBEPBDXZ 08064322 f i icBuffer.obj
 0001:00063328       ?assemble_ic_buffer_code@InlineCacheBuffer@@CAXPAEPAVoopDesc@@0@Z 08064328 f   icBuffer_i486.obj
 0001:0006339e       ?ic_buffer_entry_point@InlineCacheBuffer@@CAPAEPAE@Z 0806439e f   icBuffer_i486.obj
 0001:000633aa       ?ic_buffer_cached_oop@InlineCacheBuffer@@CAPAVoopDesc@@PAE@Z 080643aa f   icBuffer_i486.obj
 0001:000633b2       ?vm_init_globals@@YAXXZ    080643b2 f   init.obj
 0001:000633d0       ?init_globals@@YAXXZ       080643d0 f   init.obj
 0001:0006345c       ?exit_globals@@YAXXZ       0806445c f   init.obj
 0001:0006347a       ?is_init_completed@@YAHXZ  0806447a f   init.obj
 0001:00063480       ?set_init_completed@@YAXXZ 08064480 f   init.obj
 0001:0006348b       ?should_be_initialized@instanceKlass@@UBEHXZ 0806448b f   instanceKlass.obj
 0001:00063498       ?vtable@instanceKlass@@UBEPAVklassVtable@@XZ 08064498 f   instanceKlass.obj
 0001:000634d8       ?as_klassOop@Klass@@QBEPAVklassOopDesc@@XZ 080644d8 f i instanceKlass.obj
 0001:000634dc       ?itable@instanceKlass@@QBEPAVklassItable@@XZ 080644dc f   instanceKlass.obj
 0001:0006350c       ?initialize@instanceKlass@@UAEXPAVThread@@@Z 0806450c f   instanceKlass.obj
 0001:0006355d       ?verify_code@instanceKlass@@CAXVinstanceKlassHandle@@PAVThread@@@Z 0806455d f   instanceKlass.obj
 0001:0006356d       ?add_loader_constraints@instanceKlass@@CAXVinstanceKlassHandle@@PAVThread@@@Z 0806456d f   instanceKlass.obj
 0001:0006382f       ?link_class@instanceKlass@@QAEXPAVThread@@@Z 0806482f f   instanceKlass.obj
 0001:00063863       ?link_class_impl@instanceKlass@@CAXVinstanceKlassHandle@@PAVThread@@@Z 08064863 f   instanceKlass.obj
 0001:00063aee       ?initialize_impl@instanceKlass@@CAXVinstanceKlassHandle@@PAVThread@@@Z 08064aee f   instanceKlass.obj
 0001:00063d98       ?set_initialization_state_and_notify@instanceKlass@@QAEXW4ClassState@1@PAVThread@@@Z 08064d98 f   instanceKlass.obj
 0001:00063dc8       ?set_initialization_state_and_notify_impl@instanceKlass@@CAXVinstanceKlassHandle@@W4ClassState@1@PAVThread@@@Z 08064dc8 f   instanceKlass.obj
 0001:00063e0e       ?add_implementor@instanceKlass@@QAEXPAVklassOopDesc@@@Z 08064e0e f   instanceKlass.obj
 0001:00063e74       ?init_implementor@instanceKlass@@QAEXXZ 08064e74 f   instanceKlass.obj
 0001:00063e7d       ?process_interfaces@instanceKlass@@QAEXPAVThread@@@Z 08064e7d f   instanceKlass.obj
 0001:00063ed6       ?can_be_primary_super_slow@instanceKlass@@UBEHXZ 08064ed6 f   instanceKlass.obj
 0001:00063ee4       ?compute_secondary_supers@instanceKlass@@UAEPAVobjArrayOopDesc@@HPAVThread@@@Z 08064ee4 f   instanceKlass.obj
 0001:00063f7e       ?compute_is_subtype_of@instanceKlass@@UAEHPAVklassOopDesc@@@Z 08064f7e f   instanceKlass.obj
 0001:00063f98       ?implements_interface@instanceKlass@@QBEHPAVklassOopDesc@@@Z 08064f98 f   instanceKlass.obj
 0001:00063fd9       ?allocate_objArray@instanceKlass@@QAEPAVobjArrayOopDesc@@HHPAVThread@@@Z 08064fd9 f   instanceKlass.obj
 0001:000640a0       ?register_finalizer@instanceKlass@@SAPAVinstanceOopDesc@@PAV2@PAVThread@@@Z 080650a0 f   instanceKlass.obj
 0001:0006411b       ?allocate_instance@instanceKlass@@QAEPAVinstanceOopDesc@@PAVThread@@@Z 0806511b f   instanceKlass.obj
 0001:00064196       ?allocate_permanent_instance@instanceKlass@@QAEPAVinstanceOopDesc@@PAVThread@@@Z 08065196 f   instanceKlass.obj
 0001:0006420e       ?check_valid_for_instantiation@instanceKlass@@UAEXHPAVThread@@@Z 0806520e f   instanceKlass.obj
 0001:000642cc       ?array_klass_impl@instanceKlass@@EAEPAVklassOopDesc@@HHPAVThread@@@Z 080652cc f   instanceKlass.obj
 0001:00064300       ?array_klass_impl@instanceKlass@@CAPAVklassOopDesc@@VinstanceKlassHandle@@HHPAVThread@@@Z 08065300 f   instanceKlass.obj
 0001:0006446b       ?array_klass_impl@instanceKlass@@EAEPAVklassOopDesc@@HPAVThread@@@Z 0806546b f   instanceKlass.obj
 0001:0006447d       ?call_class_initializer@instanceKlass@@QAEXPAVThread@@@Z 0806547d f   instanceKlass.obj
 0001:000644a8       ?class_initializer@instanceKlass@@QAEPAVmethodOopDesc@@XZ 080654a8 f   instanceKlass.obj
 0001:000644ba       ?call_class_initializer_impl@instanceKlass@@CAXVinstanceKlassHandle@@PAVThread@@@Z 080654ba f   instanceKlass.obj
 0001:00064515       ?mask_for@instanceKlass@@QAEXVmethodHandle@@HPAVInterpreterOopMap@@@Z 08065515 f   instanceKlass.obj
 0001:00064578       ?find_local_field@instanceKlass@@QBEHPAVsymbolOopDesc@@0PAVfieldDescriptor@@@Z 08065578 f   instanceKlass.obj
 0001:000645fa       ?find_interface_field@instanceKlass@@QBEPAVklassOopDesc@@PAVsymbolOopDesc@@0PAVfieldDescriptor@@@Z 080655fa f   instanceKlass.obj
 0001:00064669       ?find_field@instanceKlass@@QBEPAVklassOopDesc@@PAVsymbolOopDesc@@0PAVfieldDescriptor@@@Z 08065669 f   instanceKlass.obj
 0001:000646af       ?jni_find_field@instanceKlass@@QBEPAVklassOopDesc@@PAVsymbolOopDesc@@0HPAVfieldDescriptor@@@Z 080656af f   instanceKlass.obj
 0001:00064709       ?jni_find_local_field_from_offset@instanceKlass@@QBEHHHPAVfieldDescriptor@@@Z 08065709 f   instanceKlass.obj
 0001:0006475d       ?jni_find_field_from_offset@instanceKlass@@QBEHHHPAVfieldDescriptor@@@Z 0806575d f   instanceKlass.obj
 0001:0006478d       ?methods_do@instanceKlass@@QAEXP6AXPAVmethodOopDesc@@@Z@Z 0806578d f   instanceKlass.obj
 0001:000647c0       ?do_local_static_fields@instanceKlass@@QAEXP6AXPAVfieldDescriptor@@PAVThread@@@Z1@Z 080657c0 f   instanceKlass.obj
 0001:000647f0       ?do_local_static_fields_impl@instanceKlass@@CAXVinstanceKlassHandle@@P6AXPAVfieldDescriptor@@PAVThread@@@Z2@Z 080657f0 f   instanceKlass.obj
 0001:00064853       ?array_klasses_do@instanceKlass@@UAEXP6AXPAVklassOopDesc@@@Z@Z 08065853 f   instanceKlass.obj
 0001:0006486d       ?with_array_klasses_do@instanceKlass@@UAEXP6AXPAVklassOopDesc@@@Z@Z 0806586d f   instanceKlass.obj
 0001:0006488b       ?find_method@instanceKlass@@QBEPAVmethodOopDesc@@PAVsymbolOopDesc@@0@Z 0806588b f   instanceKlass.obj
 0001:000648a2       ?find_method@instanceKlass@@SAPAVmethodOopDesc@@PAVobjArrayOopDesc@@PAVsymbolOopDesc@@1@Z 080658a2 f   instanceKlass.obj
 0001:0006497b       ?method_index_for@instanceKlass@@QBEHPAVmethodOopDesc@@PAVThread@@@Z 0806597b f   instanceKlass.obj
 0001:000649db       ?uncached_lookup_method@instanceKlass@@UBEPAVmethodOopDesc@@PAVsymbolOopDesc@@0@Z 080659db f   instanceKlass.obj
 0001:00064a02       ?lookup_method_in_all_interfaces@instanceKlass@@QBEPAVmethodOopDesc@@PAVsymbolOopDesc@@0@Z 08065a02 f   instanceKlass.obj
 0001:00064a3f       ?jni_id_for_impl@instanceKlass@@CAPAVJNIid@@VinstanceKlassHandle@@H@Z 08065a3f f   instanceKlass.obj
 0001:00064ad9       ?jni_id_for@instanceKlass@@QAEPAVJNIid@@H@Z 08065ad9 f   instanceKlass.obj
 0001:00064b12       ?mark_dependent_nmethods@instanceKlass@@QAEHPAVklassOopDesc@@@Z 08065b12 f   instanceKlass.obj
 0001:00064b6b       ?add_dependent_nmethod@instanceKlass@@QAEXPAVnmethod@@@Z 08065b6b f   instanceKlass.obj
 0001:00064bba       ?remove_dependent_nmethod@instanceKlass@@QAEXPAVnmethod@@@Z 08065bba f   instanceKlass.obj
 0001:00064c12       ?follow_static_fields@instanceKlass@@QAEXXZ 08065c12 f   instanceKlass.obj
 0001:00064c48       ?adjust_static_fields@instanceKlass@@QAEXXZ 08065c48 f   instanceKlass.obj
 0001:00064c73       ?oop_follow_contents@instanceKlass@@UAEXPAVoopDesc@@@Z 08065c73 f   instanceKlass.obj
 0001:00064cdf       ?oop_oop_iterate_v@instanceKlass@@UAEHPAVoopDesc@@PAVOopClosure@@@Z 08065cdf f   instanceKlass.obj
 0001:00064d94       ?oop_oop_iterate_nv@instanceKlass@@UAEHPAVoopDesc@@PAVScanClosure@@@Z 08065d94 f   instanceKlass.obj
 0001:00064e39       ?oop_oop_iterate_nv@instanceKlass@@UAEHPAVoopDesc@@PAVFastScanClosure@@@Z 08065e39 f   instanceKlass.obj
 0001:00064ede       ?oop_oop_iterate_nv@instanceKlass@@UAEHPAVoopDesc@@PAVFilteringClosure@@@Z 08065ede f   instanceKlass.obj
 0001:00064f83       ?do_oop_nv@FilteringClosure@@QAEXPAPAVoopDesc@@@Z 08065f83 f i instanceKlass.obj
 0001:00064f9d       ?oop_oop_iterate_nv@instanceKlass@@UAEHPAVoopDesc@@PAVTrainScanClosure@@@Z 08065f9d f   instanceKlass.obj
 0001:00065042       ?do_oop@TrainScanClosure@@UAEXPAPAVoopDesc@@@Z 08066042 f i instanceKlass.obj
 0001:000650f7       ?oop_oop_iterate_nv@instanceKlass@@UAEHPAVoopDesc@@PAVUpdateTrainRSWrapFastScanClosure@@@Z 080660f7 f   instanceKlass.obj
 0001:000650f7       ?oop_oop_iterate_nv@instanceKlass@@UAEHPAVoopDesc@@PAVUpdateTrainRSWrapTrainScanClosure@@@Z 080660f7 f   instanceKlass.obj
 0001:000650f7       ?oop_oop_iterate_nv@instanceKlass@@UAEHPAVoopDesc@@PAVUpdateTrainRSWrapScanClosure@@@Z 080660f7 f   instanceKlass.obj
